	.file	"bio.c"
	.text
.Ltext0:
	.comm	bcache,16668,32
	.section	.rodata
.LC0:
	.string	"bcache"
	.text
	.globl	binit
	.type	binit, @function
binit:
.LFB0:
	.file 1 "bio.c"
	.loc 1 41 0
	.cfi_startproc
	pushl	%ebp
.LCFI0:
	.cfi_def_cfa_offset 8
	.cfi_offset 5, -8
	movl	%esp, %ebp
.LCFI1:
	.cfi_def_cfa_register 5
	subl	$40, %esp
	.loc 1 44 0
	movl	$.LC0, 4(%esp)
	movl	$bcache, (%esp)
	call	initlock
.LVL0:
	.loc 1 48 0
	movl	$bcache+16132, bcache+16144
	.loc 1 49 0
	movl	$bcache+16132, bcache+16148
	.loc 1 50 0
	movl	$bcache+52, -12(%ebp)
.LVL1:
	jmp	.L2
.L3:
	.loc 1 51 0 discriminator 2
	movl	bcache+16148, %edx
	movl	-12(%ebp), %eax
	movl	%edx, 16(%eax)
	.loc 1 52 0 discriminator 2
	movl	-12(%ebp), %eax
	movl	$bcache+16132, 12(%eax)
	.loc 1 53 0 discriminator 2
	movl	-12(%ebp), %eax
	movl	$-1, 4(%eax)
	.loc 1 54 0 discriminator 2
	movl	bcache+16148, %eax
	movl	-12(%ebp), %edx
	movl	%edx, 12(%eax)
	.loc 1 55 0 discriminator 2
	movl	-12(%ebp), %eax
	movl	%eax, bcache+16148
	.loc 1 50 0 discriminator 2
	addl	$536, -12(%ebp)
.LVL2:
.L2:
	.loc 1 50 0 is_stmt 0 discriminator 1
	cmpl	$bcache+16132, -12(%ebp)
	jb	.L3
	.loc 1 57 0 is_stmt 1
	leave
.LCFI2:
	.cfi_restore 5
	.cfi_def_cfa 4, 4
.LVL3:
	ret
	.cfi_endproc
.LFE0:
	.size	binit, .-binit
	.section	.rodata
.LC1:
	.string	"bget: no buffers"
	.text
	.type	bget, @function
bget:
.LFB1:
	.loc 1 64 0
	.cfi_startproc
.LVL4:
	pushl	%ebp
.LCFI3:
	.cfi_def_cfa_offset 8
	.cfi_offset 5, -8
	movl	%esp, %ebp
.LCFI4:
	.cfi_def_cfa_register 5
	subl	$40, %esp
	.loc 1 67 0
	movl	$bcache, (%esp)
	call	acquire
.LVL5:
.L5:
	.loc 1 71 0
	movl	bcache+16148, %eax
	movl	%eax, -12(%ebp)
.LVL6:
	jmp	.L6
.LVL7:
.L10:
	.loc 1 72 0
	movl	-12(%ebp), %eax
	movl	4(%eax), %eax
	cmpl	8(%ebp), %eax
	jne	.L7
	.loc 1 72 0 is_stmt 0 discriminator 1
	movl	-12(%ebp), %eax
	movl	8(%eax), %eax
	cmpl	12(%ebp), %eax
	jne	.L7
	.loc 1 73 0 is_stmt 1
	movl	-12(%ebp), %eax
	movl	(%eax), %eax
	andl	$1, %eax
	testl	%eax, %eax
	jne	.L8
	.loc 1 74 0
	movl	-12(%ebp), %eax
	movl	(%eax), %eax
	orl	$1, %eax
	movl	%eax, %edx
	movl	-12(%ebp), %eax
	movl	%edx, (%eax)
	.loc 1 75 0
	movl	$bcache, (%esp)
	call	release
.LVL8:
	.loc 1 76 0
	movl	-12(%ebp), %eax
	jmp	.L9
.L8:
	.loc 1 78 0
	movl	$bcache, 4(%esp)
	movl	-12(%ebp), %eax
	movl	%eax, (%esp)
	call	sleep
.LVL9:
	.loc 1 79 0
	jmp	.L5
.L7:
	.loc 1 71 0
	movl	-12(%ebp), %eax
	movl	16(%eax), %eax
	movl	%eax, -12(%ebp)
.LVL10:
.L6:
	.loc 1 71 0 is_stmt 0 discriminator 1
	cmpl	$bcache+16132, -12(%ebp)
	jne	.L10
	.loc 1 86 0 is_stmt 1
	movl	bcache+16144, %eax
	movl	%eax, -12(%ebp)
.LVL11:
	jmp	.L11
.LVL12:
.L13:
	.loc 1 87 0
	movl	-12(%ebp), %eax
	movl	(%eax), %eax
	andl	$1, %eax
	testl	%eax, %eax
	jne	.L12
	.loc 1 87 0 is_stmt 0 discriminator 1
	movl	-12(%ebp), %eax
	movl	(%eax), %eax
	andl	$4, %eax
	testl	%eax, %eax
	jne	.L12
	.loc 1 88 0 is_stmt 1
	movl	-12(%ebp), %eax
	movl	8(%ebp), %edx
	movl	%edx, 4(%eax)
	.loc 1 89 0
	movl	-12(%ebp), %eax
	movl	12(%ebp), %edx
	movl	%edx, 8(%eax)
	.loc 1 90 0
	movl	-12(%ebp), %eax
	movl	$1, (%eax)
	.loc 1 91 0
	movl	$bcache, (%esp)
	call	release
.LVL13:
	.loc 1 92 0
	movl	-12(%ebp), %eax
	jmp	.L9
.L12:
	.loc 1 86 0
	movl	-12(%ebp), %eax
	movl	12(%eax), %eax
	movl	%eax, -12(%ebp)
.LVL14:
.L11:
	.loc 1 86 0 is_stmt 0 discriminator 1
	cmpl	$bcache+16132, -12(%ebp)
	jne	.L13
	.loc 1 95 0 is_stmt 1
	movl	$.LC1, (%esp)
	call	panic
.LVL15:
.L9:
	.loc 1 96 0
	leave
.LCFI5:
	.cfi_restore 5
	.cfi_def_cfa 4, 4
	ret
	.cfi_endproc
.LFE1:
	.size	bget, .-bget
	.globl	bread
	.type	bread, @function
bread:
.LFB2:
	.loc 1 101 0
	.cfi_startproc
.LVL16:
	pushl	%ebp
.LCFI6:
	.cfi_def_cfa_offset 8
	.cfi_offset 5, -8
	movl	%esp, %ebp
.LCFI7:
	.cfi_def_cfa_register 5
	subl	$40, %esp
	.loc 1 104 0
	movl	12(%ebp), %eax
	movl	%eax, 4(%esp)
	movl	8(%ebp), %eax
	movl	%eax, (%esp)
	call	bget
.LVL17:
	movl	%eax, -12(%ebp)
.LVL18:
	.loc 1 105 0
	movl	-12(%ebp), %eax
	movl	(%eax), %eax
.LVL19:
	andl	$2, %eax
	testl	%eax, %eax
	jne	.L15
	.loc 1 106 0
	movl	-12(%ebp), %eax
	movl	%eax, (%esp)
	call	iderw
.LVL20:
.L15:
	.loc 1 108 0
	movl	-12(%ebp), %eax
	.loc 1 109 0
	leave
.LCFI8:
	.cfi_restore 5
	.cfi_def_cfa 4, 4
	ret
	.cfi_endproc
.LFE2:
	.size	bread, .-bread
	.section	.rodata
.LC2:
	.string	"bwrite"
	.text
	.globl	bwrite
	.type	bwrite, @function
bwrite:
.LFB3:
	.loc 1 114 0
	.cfi_startproc
.LVL21:
	pushl	%ebp
.LCFI9:
	.cfi_def_cfa_offset 8
	.cfi_offset 5, -8
	movl	%esp, %ebp
.LCFI10:
	.cfi_def_cfa_register 5
	subl	$24, %esp
	.loc 1 115 0
	movl	8(%ebp), %eax
	movl	(%eax), %eax
	andl	$1, %eax
	testl	%eax, %eax
	jne	.L18
	.loc 1 116 0
	movl	$.LC2, (%esp)
	call	panic
.LVL22:
.L18:
	.loc 1 117 0
	movl	8(%ebp), %eax
	movl	(%eax), %eax
	orl	$4, %eax
	movl	%eax, %edx
	movl	8(%ebp), %eax
	movl	%edx, (%eax)
	.loc 1 118 0
	movl	8(%ebp), %eax
	movl	%eax, (%esp)
	call	iderw
.LVL23:
	.loc 1 119 0
	leave
.LCFI11:
	.cfi_restore 5
	.cfi_def_cfa 4, 4
	ret
	.cfi_endproc
.LFE3:
	.size	bwrite, .-bwrite
	.section	.rodata
.LC3:
	.string	"brelse"
	.text
	.globl	brelse
	.type	brelse, @function
brelse:
.LFB4:
	.loc 1 125 0
	.cfi_startproc
.LVL24:
	pushl	%ebp
.LCFI12:
	.cfi_def_cfa_offset 8
	.cfi_offset 5, -8
	movl	%esp, %ebp
.LCFI13:
	.cfi_def_cfa_register 5
	subl	$24, %esp
	.loc 1 126 0
	movl	8(%ebp), %eax
	movl	(%eax), %eax
	andl	$1, %eax
	testl	%eax, %eax
	jne	.L20
	.loc 1 127 0
	movl	$.LC3, (%esp)
	call	panic
.LVL25:
.L20:
	.loc 1 129 0
	movl	$bcache, (%esp)
	call	acquire
.LVL26:
	.loc 1 131 0
	movl	8(%ebp), %eax
	movl	16(%eax), %eax
	movl	8(%ebp), %edx
	movl	12(%edx), %edx
	movl	%edx, 12(%eax)
	.loc 1 132 0
	movl	8(%ebp), %eax
	movl	12(%eax), %eax
	movl	8(%ebp), %edx
	movl	16(%edx), %edx
	movl	%edx, 16(%eax)
	.loc 1 133 0
	movl	bcache+16148, %edx
	movl	8(%ebp), %eax
	movl	%edx, 16(%eax)
	.loc 1 134 0
	movl	8(%ebp), %eax
	movl	$bcache+16132, 12(%eax)
	.loc 1 135 0
	movl	bcache+16148, %eax
	movl	8(%ebp), %edx
	movl	%edx, 12(%eax)
	.loc 1 136 0
	movl	8(%ebp), %eax
	movl	%eax, bcache+16148
	.loc 1 138 0
	movl	8(%ebp), %eax
	movl	(%eax), %eax
	andl	$-2, %eax
	movl	%eax, %edx
	movl	8(%ebp), %eax
	movl	%edx, (%eax)
	.loc 1 139 0
	movl	8(%ebp), %eax
	movl	%eax, (%esp)
	call	wakeup
.LVL27:
	.loc 1 141 0
	movl	$bcache, (%esp)
	call	release
.LVL28:
	.loc 1 142 0
	leave
.LCFI14:
	.cfi_restore 5
	.cfi_def_cfa 4, 4
	ret
	.cfi_endproc
.LFE4:
	.size	brelse, .-brelse
.Letext0:
	.file 2 "types.h"
	.file 3 "spinlock.h"
	.file 4 "buf.h"
	.file 5 "defs.h"
	.section	.note.GNU-stack,"",@progbits
