	.file	"cat.c"
	.text
.Ltext0:
	.comm	buf,512,32
	.section	.rodata
.LC0:
	.string	"cat: read error\n"
	.text
	.globl	cat
	.type	cat, @function
cat:
.LFB0:
	.file 1 "cat.c"
	.loc 1 9 0
	.cfi_startproc
.LVL0:
	pushl	%ebp
.LCFI0:
	.cfi_def_cfa_offset 8
	.cfi_offset 5, -8
	movl	%esp, %ebp
.LCFI1:
	.cfi_def_cfa_register 5
	subl	$40, %esp
	.loc 1 12 0
	jmp	.L2
.LVL1:
.L3:
	.loc 1 13 0
	movl	-12(%ebp), %eax
.LVL2:
	movl	%eax, 8(%esp)
	movl	$buf, 4(%esp)
	movl	$1, (%esp)
	call	write
.LVL3:
.L2:
	.loc 1 12 0 discriminator 1
	movl	$512, 8(%esp)
	movl	$buf, 4(%esp)
	movl	8(%ebp), %eax
	movl	%eax, (%esp)
	call	read
.LVL4:
	movl	%eax, -12(%ebp)
.LVL5:
	cmpl	$0, -12(%ebp)
	jg	.L3
	.loc 1 14 0
	cmpl	$0, -12(%ebp)
	jns	.L1
	.loc 1 15 0
	movl	$.LC0, 4(%esp)
	movl	$1, (%esp)
	call	printf
.LVL6:
	.loc 1 16 0
	call	exit
.LVL7:
.L1:
	.loc 1 18 0
	leave
.LCFI2:
	.cfi_restore 5
	.cfi_def_cfa 4, 4
	ret
	.cfi_endproc
.LFE0:
	.size	cat, .-cat
	.section	.rodata
.LC1:
	.string	"cat: cannot open %s\n"
	.text
	.globl	main
	.type	main, @function
main:
.LFB1:
	.loc 1 22 0
	.cfi_startproc
.LVL8:
	pushl	%ebp
.LCFI3:
	.cfi_def_cfa_offset 8
	.cfi_offset 5, -8
	movl	%esp, %ebp
.LCFI4:
	.cfi_def_cfa_register 5
	andl	$-16, %esp
	subl	$32, %esp
	.loc 1 25 0
	cmpl	$1, 8(%ebp)
	jg	.L6
	.loc 1 26 0
	movl	$0, (%esp)
	call	cat
.LVL9:
	.loc 1 27 0
	call	exit
.LVL10:
.L6:
	.loc 1 30 0
	movl	$1, 28(%esp)
.LVL11:
	jmp	.L7
.LVL12:
.L9:
	.loc 1 31 0
	movl	28(%esp), %eax
.LVL13:
	leal	0(,%eax,4), %edx
	movl	12(%ebp), %eax
	addl	%edx, %eax
	movl	(%eax), %eax
	movl	$0, 4(%esp)
	movl	%eax, (%esp)
	call	open
.LVL14:
	movl	%eax, 24(%esp)
.LVL15:
	cmpl	$0, 24(%esp)
	jns	.L8
	.loc 1 32 0
	movl	28(%esp), %eax
.LVL16:
	leal	0(,%eax,4), %edx
	movl	12(%ebp), %eax
	addl	%edx, %eax
	movl	(%eax), %eax
	movl	%eax, 8(%esp)
	movl	$.LC1, 4(%esp)
	movl	$1, (%esp)
	call	printf
.LVL17:
	.loc 1 33 0
	call	exit
.LVL18:
.L8:
	.loc 1 35 0
	movl	24(%esp), %eax
.LVL19:
	movl	%eax, (%esp)
	call	cat
.LVL20:
	.loc 1 36 0
	movl	24(%esp), %eax
	movl	%eax, (%esp)
	call	close
.LVL21:
	.loc 1 30 0
	addl	$1, 28(%esp)
.LVL22:
.L7:
	.loc 1 30 0 is_stmt 0 discriminator 1
	movl	28(%esp), %eax
	cmpl	8(%ebp), %eax
	jl	.L9
	.loc 1 38 0 is_stmt 1
	call	exit
.LVL23:
	.cfi_endproc
.LFE1:
	.size	main, .-main
.Letext0:
	.file 2 "user.h"
	.section	.note.GNU-stack,"",@progbits
