	.file	"file.c"
	.text
.Ltext0:
	.comm	devsw,80,32
	.comm	ftable,2452,32
	.section	.rodata
.LC0:
	.string	"ftable"
	.text
	.globl	fileinit
	.type	fileinit, @function
fileinit:
.LFB0:
	.file 1 "file.c"
	.loc 1 20 0
	.cfi_startproc
	pushl	%ebp
.LCFI0:
	.cfi_def_cfa_offset 8
	.cfi_offset 5, -8
	movl	%esp, %ebp
.LCFI1:
	.cfi_def_cfa_register 5
	subl	$24, %esp
	.loc 1 21 0
	movl	$.LC0, 4(%esp)
	movl	$ftable, (%esp)
	call	initlock
.LVL0:
	.loc 1 22 0
	leave
.LCFI2:
	.cfi_restore 5
	.cfi_def_cfa 4, 4
	ret
	.cfi_endproc
.LFE0:
	.size	fileinit, .-fileinit
	.globl	filealloc
	.type	filealloc, @function
filealloc:
.LFB1:
	.loc 1 27 0
	.cfi_startproc
	pushl	%ebp
.LCFI3:
	.cfi_def_cfa_offset 8
	.cfi_offset 5, -8
	movl	%esp, %ebp
.LCFI4:
	.cfi_def_cfa_register 5
	subl	$40, %esp
	.loc 1 30 0
	movl	$ftable, (%esp)
	call	acquire
.LVL1:
	.loc 1 31 0
	movl	$ftable+52, -12(%ebp)
.LVL2:
	jmp	.L3
.L6:
	.loc 1 32 0
	movl	-12(%ebp), %eax
	movl	4(%eax), %eax
	testl	%eax, %eax
	jne	.L4
	.loc 1 33 0
	movl	-12(%ebp), %eax
	movl	$1, 4(%eax)
	.loc 1 34 0
	movl	$ftable, (%esp)
	call	release
.LVL3:
	.loc 1 35 0
	movl	-12(%ebp), %eax
	jmp	.L5
.L4:
	.loc 1 31 0
	addl	$24, -12(%ebp)
.LVL4:
.L3:
	.loc 1 31 0 is_stmt 0 discriminator 1
	cmpl	$ftable+2452, -12(%ebp)
	jb	.L6
	.loc 1 38 0 is_stmt 1
	movl	$ftable, (%esp)
	call	release
.LVL5:
	.loc 1 39 0
	movl	$0, %eax
.L5:
	.loc 1 40 0
	leave
.LCFI5:
	.cfi_restore 5
	.cfi_def_cfa 4, 4
.LVL6:
	ret
	.cfi_endproc
.LFE1:
	.size	filealloc, .-filealloc
	.section	.rodata
.LC1:
	.string	"filedup"
	.text
	.globl	filedup
	.type	filedup, @function
filedup:
.LFB2:
	.loc 1 45 0
	.cfi_startproc
.LVL7:
	pushl	%ebp
.LCFI6:
	.cfi_def_cfa_offset 8
	.cfi_offset 5, -8
	movl	%esp, %ebp
.LCFI7:
	.cfi_def_cfa_register 5
	subl	$24, %esp
	.loc 1 46 0
	movl	$ftable, (%esp)
	call	acquire
.LVL8:
	.loc 1 47 0
	movl	8(%ebp), %eax
	movl	4(%eax), %eax
	testl	%eax, %eax
	jg	.L8
	.loc 1 48 0
	movl	$.LC1, (%esp)
	call	panic
.LVL9:
.L8:
	.loc 1 49 0
	movl	8(%ebp), %eax
	movl	4(%eax), %eax
	leal	1(%eax), %edx
	movl	8(%ebp), %eax
	movl	%edx, 4(%eax)
	.loc 1 50 0
	movl	$ftable, (%esp)
	call	release
.LVL10:
	.loc 1 51 0
	movl	8(%ebp), %eax
	.loc 1 52 0
	leave
.LCFI8:
	.cfi_restore 5
	.cfi_def_cfa 4, 4
	ret
	.cfi_endproc
.LFE2:
	.size	filedup, .-filedup
	.section	.rodata
.LC2:
	.string	"fileclose"
	.text
	.globl	fileclose
	.type	fileclose, @function
fileclose:
.LFB3:
	.loc 1 57 0
	.cfi_startproc
.LVL11:
	pushl	%ebp
.LCFI9:
	.cfi_def_cfa_offset 8
	.cfi_offset 5, -8
	movl	%esp, %ebp
.LCFI10:
	.cfi_def_cfa_register 5
	subl	$56, %esp
	.loc 1 60 0
	movl	$ftable, (%esp)
	call	acquire
.LVL12:
	.loc 1 61 0
	movl	8(%ebp), %eax
	movl	4(%eax), %eax
	testl	%eax, %eax
	jg	.L11
	.loc 1 62 0
	movl	$.LC2, (%esp)
	call	panic
.LVL13:
.L11:
	.loc 1 63 0
	movl	8(%ebp), %eax
	movl	4(%eax), %eax
	leal	-1(%eax), %edx
	movl	8(%ebp), %eax
	movl	%edx, 4(%eax)
	movl	8(%ebp), %eax
	movl	4(%eax), %eax
	testl	%eax, %eax
	jle	.L12
	.loc 1 64 0
	movl	$ftable, (%esp)
	call	release
.LVL14:
	jmp	.L10
.L12:
	.loc 1 67 0
	movl	8(%ebp), %eax
	movl	(%eax), %edx
	movl	%edx, -32(%ebp)
	movl	4(%eax), %edx
	movl	%edx, -28(%ebp)
	movl	8(%eax), %edx
	movl	%edx, -24(%ebp)
	movl	12(%eax), %edx
	movl	%edx, -20(%ebp)
	movl	16(%eax), %edx
	movl	%edx, -16(%ebp)
	movl	20(%eax), %eax
	movl	%eax, -12(%ebp)
	.loc 1 68 0
	movl	8(%ebp), %eax
	movl	$0, 4(%eax)
	.loc 1 69 0
	movl	8(%ebp), %eax
	movl	$0, (%eax)
	.loc 1 70 0
	movl	$ftable, (%esp)
	call	release
.LVL15:
	.loc 1 72 0
	movl	-32(%ebp), %eax
	cmpl	$1, %eax
	jne	.L14
	.loc 1 73 0
	movzbl	-23(%ebp), %eax
	movsbl	%al, %edx
	movl	-20(%ebp), %eax
	movl	%edx, 4(%esp)
	movl	%eax, (%esp)
	call	pipeclose
.LVL16:
	jmp	.L10
.L14:
	.loc 1 74 0
	movl	-32(%ebp), %eax
	cmpl	$2, %eax
	jne	.L10
	.loc 1 75 0
	call	begin_op
.LVL17:
	.loc 1 76 0
	movl	-16(%ebp), %eax
	movl	%eax, (%esp)
	call	iput
.LVL18:
	.loc 1 77 0
	call	end_op
.LVL19:
.L10:
	.loc 1 79 0
	leave
.LCFI11:
	.cfi_restore 5
	.cfi_def_cfa 4, 4
	ret
	.cfi_endproc
.LFE3:
	.size	fileclose, .-fileclose
	.globl	filestat
	.type	filestat, @function
filestat:
.LFB4:
	.loc 1 84 0
	.cfi_startproc
.LVL20:
	pushl	%ebp
.LCFI12:
	.cfi_def_cfa_offset 8
	.cfi_offset 5, -8
	movl	%esp, %ebp
.LCFI13:
	.cfi_def_cfa_register 5
	subl	$24, %esp
	.loc 1 85 0
	movl	8(%ebp), %eax
	movl	(%eax), %eax
	cmpl	$2, %eax
	jne	.L17
	.loc 1 86 0
	movl	8(%ebp), %eax
	movl	16(%eax), %eax
	movl	%eax, (%esp)
	call	ilock
.LVL21:
	.loc 1 87 0
	movl	8(%ebp), %eax
	movl	16(%eax), %eax
	movl	12(%ebp), %edx
	movl	%edx, 4(%esp)
	movl	%eax, (%esp)
	call	stati
.LVL22:
	.loc 1 88 0
	movl	8(%ebp), %eax
	movl	16(%eax), %eax
	movl	%eax, (%esp)
	call	iunlock
.LVL23:
	.loc 1 89 0
	movl	$0, %eax
	jmp	.L18
.L17:
	.loc 1 91 0
	movl	$-1, %eax
.L18:
	.loc 1 92 0
	leave
.LCFI14:
	.cfi_restore 5
	.cfi_def_cfa 4, 4
	ret
	.cfi_endproc
.LFE4:
	.size	filestat, .-filestat
	.section	.rodata
.LC3:
	.string	"fileread"
	.text
	.globl	fileread
	.type	fileread, @function
fileread:
.LFB5:
	.loc 1 97 0
	.cfi_startproc
.LVL24:
	pushl	%ebp
.LCFI15:
	.cfi_def_cfa_offset 8
	.cfi_offset 5, -8
	movl	%esp, %ebp
.LCFI16:
	.cfi_def_cfa_register 5
	subl	$40, %esp
	.loc 1 100 0
	movl	8(%ebp), %eax
	movzbl	8(%eax), %eax
	testb	%al, %al
	jne	.L20
	.loc 1 101 0
	movl	$-1, %eax
	jmp	.L21
.L20:
	.loc 1 102 0
	movl	8(%ebp), %eax
	movl	(%eax), %eax
	cmpl	$1, %eax
	jne	.L22
	.loc 1 103 0
	movl	8(%ebp), %eax
	movl	12(%eax), %eax
	movl	16(%ebp), %edx
	movl	%edx, 8(%esp)
	movl	12(%ebp), %edx
	movl	%edx, 4(%esp)
	movl	%eax, (%esp)
	call	piperead
.LVL25:
	jmp	.L21
.L22:
	.loc 1 104 0
	movl	8(%ebp), %eax
	movl	(%eax), %eax
	cmpl	$2, %eax
	jne	.L23
	.loc 1 105 0
	movl	8(%ebp), %eax
	movl	16(%eax), %eax
	movl	%eax, (%esp)
	call	ilock
.LVL26:
	.loc 1 106 0
	movl	16(%ebp), %ecx
	movl	8(%ebp), %eax
	movl	20(%eax), %edx
	movl	8(%ebp), %eax
	movl	16(%eax), %eax
	movl	%ecx, 12(%esp)
	movl	%edx, 8(%esp)
	movl	12(%ebp), %edx
	movl	%edx, 4(%esp)
	movl	%eax, (%esp)
	call	readi
.LVL27:
	movl	%eax, -12(%ebp)
.LVL28:
	cmpl	$0, -12(%ebp)
	jle	.L24
	.loc 1 107 0
	movl	8(%ebp), %eax
.LVL29:
	movl	20(%eax), %edx
	movl	-12(%ebp), %eax
	addl	%eax, %edx
	movl	8(%ebp), %eax
	movl	%edx, 20(%eax)
.L24:
	.loc 1 108 0
	movl	8(%ebp), %eax
	movl	16(%eax), %eax
	movl	%eax, (%esp)
	call	iunlock
.LVL30:
	.loc 1 109 0
	movl	-12(%ebp), %eax
	jmp	.L21
.LVL31:
.L23:
	.loc 1 111 0
	movl	$.LC3, (%esp)
	call	panic
.LVL32:
.L21:
	.loc 1 112 0
	leave
.LCFI17:
	.cfi_restore 5
	.cfi_def_cfa 4, 4
	ret
	.cfi_endproc
.LFE5:
	.size	fileread, .-fileread
	.section	.rodata
.LC4:
	.string	"short filewrite"
.LC5:
	.string	"filewrite"
	.text
	.globl	filewrite
	.type	filewrite, @function
filewrite:
.LFB6:
	.loc 1 118 0
	.cfi_startproc
.LVL33:
	pushl	%ebp
.LCFI18:
	.cfi_def_cfa_offset 8
	.cfi_offset 5, -8
	movl	%esp, %ebp
.LCFI19:
	.cfi_def_cfa_register 5
	pushl	%ebx
	subl	$36, %esp
	.cfi_offset 3, -12
	.loc 1 121 0
	movl	8(%ebp), %eax
	movzbl	9(%eax), %eax
	testb	%al, %al
	jne	.L26
	.loc 1 122 0
	movl	$-1, %eax
	jmp	.L27
.L26:
	.loc 1 123 0
	movl	8(%ebp), %eax
	movl	(%eax), %eax
	cmpl	$1, %eax
	jne	.L28
	.loc 1 124 0
	movl	8(%ebp), %eax
	movl	12(%eax), %eax
	movl	16(%ebp), %edx
	movl	%edx, 8(%esp)
	movl	12(%ebp), %edx
	movl	%edx, 4(%esp)
	movl	%eax, (%esp)
	call	pipewrite
.LVL34:
	jmp	.L27
.L28:
	.loc 1 125 0
	movl	8(%ebp), %eax
	movl	(%eax), %eax
	cmpl	$2, %eax
	jne	.L29
.LBB2:
	.loc 1 132 0
	movl	$6656, -20(%ebp)
.LVL35:
	.loc 1 133 0
	movl	$0, -12(%ebp)
.LVL36:
	.loc 1 134 0
	jmp	.L30
.LVL37:
.L36:
.LBB3:
	.loc 1 135 0
	movl	-12(%ebp), %eax
.LVL38:
	movl	16(%ebp), %edx
	subl	%eax, %edx
	movl	%edx, %eax
	movl	%eax, -16(%ebp)
.LVL39:
	.loc 1 136 0
	movl	-16(%ebp), %eax
	cmpl	-20(%ebp), %eax
	jle	.L31
	.loc 1 137 0
	movl	-20(%ebp), %eax
.LVL40:
	movl	%eax, -16(%ebp)
.LVL41:
.L31:
	.loc 1 139 0
	call	begin_op
.LVL42:
	.loc 1 140 0
	movl	8(%ebp), %eax
	movl	16(%eax), %eax
	movl	%eax, (%esp)
	call	ilock
.LVL43:
	.loc 1 141 0
	movl	-16(%ebp), %ecx
	movl	8(%ebp), %eax
	movl	20(%eax), %edx
	movl	-12(%ebp), %ebx
	movl	12(%ebp), %eax
	addl	%eax, %ebx
	movl	8(%ebp), %eax
	movl	16(%eax), %eax
	movl	%ecx, 12(%esp)
	movl	%edx, 8(%esp)
	movl	%ebx, 4(%esp)
	movl	%eax, (%esp)
	call	writei
.LVL44:
	movl	%eax, -24(%ebp)
.LVL45:
	cmpl	$0, -24(%ebp)
	jle	.L32
	.loc 1 142 0
	movl	8(%ebp), %eax
.LVL46:
	movl	20(%eax), %edx
	movl	-24(%ebp), %eax
	addl	%eax, %edx
	movl	8(%ebp), %eax
	movl	%edx, 20(%eax)
.L32:
	.loc 1 143 0
	movl	8(%ebp), %eax
	movl	16(%eax), %eax
	movl	%eax, (%esp)
	call	iunlock
.LVL47:
	.loc 1 144 0
	call	end_op
.LVL48:
	.loc 1 146 0
	cmpl	$0, -24(%ebp)
	jns	.L33
	.loc 1 147 0
	jmp	.L34
.L33:
	.loc 1 148 0
	movl	-24(%ebp), %eax
	cmpl	-16(%ebp), %eax
	je	.L35
	.loc 1 149 0
	movl	$.LC4, (%esp)
	call	panic
.LVL49:
.L35:
	.loc 1 150 0
	movl	-24(%ebp), %eax
	addl	%eax, -12(%ebp)
.LVL50:
.L30:
.LBE3:
	.loc 1 134 0 discriminator 1
	movl	-12(%ebp), %eax
	cmpl	16(%ebp), %eax
	jl	.L36
.L34:
	.loc 1 152 0
	movl	-12(%ebp), %eax
	cmpl	16(%ebp), %eax
	jne	.L37
	.loc 1 152 0 is_stmt 0 discriminator 1
	movl	16(%ebp), %eax
	jmp	.L38
.L37:
	.loc 1 152 0 discriminator 2
	movl	$-1, %eax
.L38:
	.loc 1 152 0 discriminator 3
	jmp	.L27
.LVL51:
.L29:
.LBE2:
	.loc 1 154 0 is_stmt 1
	movl	$.LC5, (%esp)
	call	panic
.LVL52:
.L27:
	.loc 1 155 0
	addl	$36, %esp
	popl	%ebx
	.cfi_restore 3
	popl	%ebp
.LCFI20:
	.cfi_restore 5
	.cfi_def_cfa 4, 4
	ret
	.cfi_endproc
.LFE6:
	.size	filewrite, .-filewrite
.Letext0:
	.file 2 "file.h"
	.file 3 "spinlock.h"
	.file 4 "defs.h"
	.file 5 "types.h"
	.section	.note.GNU-stack,"",@progbits
