	.file	"fs.c"
	.text
.Ltext0:
	.comm	sb,28,4
	.globl	readsb
	.type	readsb, @function
readsb:
.LFB0:
	.file 1 "fs.c"
	.loc 1 30 0
	.cfi_startproc
.LVL0:
	pushl	%ebp
.LCFI0:
	.cfi_def_cfa_offset 8
	.cfi_offset 5, -8
	movl	%esp, %ebp
.LCFI1:
	.cfi_def_cfa_register 5
	subl	$40, %esp
	.loc 1 33 0
	movl	8(%ebp), %eax
	movl	$1, 4(%esp)
	movl	%eax, (%esp)
	call	bread
.LVL1:
	movl	%eax, -12(%ebp)
.LVL2:
	.loc 1 34 0
	movl	-12(%ebp), %eax
	addl	$24, %eax
.LVL3:
	movl	$28, 8(%esp)
	movl	%eax, 4(%esp)
	movl	12(%ebp), %eax
	movl	%eax, (%esp)
	call	memmove
.LVL4:
	.loc 1 35 0
	movl	-12(%ebp), %eax
	movl	%eax, (%esp)
	call	brelse
.LVL5:
	.loc 1 36 0
	leave
.LCFI2:
	.cfi_restore 5
	.cfi_def_cfa 4, 4
	ret
	.cfi_endproc
.LFE0:
	.size	readsb, .-readsb
	.type	bzero, @function
bzero:
.LFB1:
	.loc 1 41 0
	.cfi_startproc
.LVL6:
	pushl	%ebp
.LCFI3:
	.cfi_def_cfa_offset 8
	.cfi_offset 5, -8
	movl	%esp, %ebp
.LCFI4:
	.cfi_def_cfa_register 5
	subl	$40, %esp
	.loc 1 44 0
	movl	12(%ebp), %edx
	movl	8(%ebp), %eax
	movl	%edx, 4(%esp)
	movl	%eax, (%esp)
	call	bread
.LVL7:
	movl	%eax, -12(%ebp)
.LVL8:
	.loc 1 45 0
	movl	-12(%ebp), %eax
	addl	$24, %eax
.LVL9:
	movl	$512, 8(%esp)
	movl	$0, 4(%esp)
	movl	%eax, (%esp)
	call	memset
.LVL10:
	.loc 1 46 0
	movl	-12(%ebp), %eax
	movl	%eax, (%esp)
	call	log_write
.LVL11:
	.loc 1 47 0
	movl	-12(%ebp), %eax
	movl	%eax, (%esp)
	call	brelse
.LVL12:
	.loc 1 48 0
	leave
.LCFI5:
	.cfi_restore 5
	.cfi_def_cfa 4, 4
	ret
	.cfi_endproc
.LFE1:
	.size	bzero, .-bzero
	.section	.rodata
.LC0:
	.string	"balloc: out of blocks"
	.text
	.type	balloc, @function
balloc:
.LFB2:
	.loc 1 55 0
	.cfi_startproc
.LVL13:
	pushl	%ebp
.LCFI6:
	.cfi_def_cfa_offset 8
	.cfi_offset 5, -8
	movl	%esp, %ebp
.LCFI7:
	.cfi_def_cfa_register 5
	subl	$40, %esp
	.loc 1 59 0
	movl	$0, -20(%ebp)
.LVL14:
	.loc 1 60 0
	movl	$0, -12(%ebp)
.LVL15:
	jmp	.L4
.LVL16:
.L10:
	.loc 1 61 0
	movl	-12(%ebp), %eax
	leal	4095(%eax), %edx
.LVL17:
	testl	%eax, %eax
	cmovs	%edx, %eax
	sarl	$12, %eax
	movl	%eax, %edx
	movl	sb+24, %eax
	addl	%edx, %eax
	movl	%eax, 4(%esp)
	movl	8(%ebp), %eax
	movl	%eax, (%esp)
	call	bread
.LVL18:
	movl	%eax, -20(%ebp)
.LVL19:
	.loc 1 62 0
	movl	$0, -16(%ebp)
.LVL20:
	jmp	.L5
.LVL21:
.L9:
	.loc 1 63 0
	movl	-16(%ebp), %eax
	cltd
	shrl	$29, %edx
	addl	%edx, %eax
	andl	$7, %eax
	subl	%edx, %eax
	movl	$1, %edx
	movl	%eax, %ecx
	sall	%cl, %edx
	movl	%edx, %eax
	movl	%eax, -24(%ebp)
.LVL22:
	.loc 1 64 0
	movl	-16(%ebp), %eax
.LVL23:
	leal	7(%eax), %edx
.LVL24:
	testl	%eax, %eax
	cmovs	%edx, %eax
	sarl	$3, %eax
	movl	-20(%ebp), %edx
	movzbl	24(%edx,%eax), %eax
	movzbl	%al, %eax
	andl	-24(%ebp), %eax
	testl	%eax, %eax
	jne	.L6
	.loc 1 65 0
	movl	-16(%ebp), %eax
	leal	7(%eax), %edx
	testl	%eax, %eax
	cmovs	%edx, %eax
	sarl	$3, %eax
	movl	-20(%ebp), %edx
	movzbl	24(%edx,%eax), %edx
	movl	%edx, %ecx
	movl	-24(%ebp), %edx
	orl	%ecx, %edx
	movl	%edx, %ecx
	movl	-20(%ebp), %edx
	movb	%cl, 24(%edx,%eax)
	.loc 1 66 0
	movl	-20(%ebp), %eax
	movl	%eax, (%esp)
	call	log_write
.LVL25:
	.loc 1 67 0
	movl	-20(%ebp), %eax
	movl	%eax, (%esp)
	call	brelse
.LVL26:
	.loc 1 68 0
	movl	-16(%ebp), %eax
	movl	-12(%ebp), %edx
	addl	%eax, %edx
	movl	8(%ebp), %eax
	movl	%edx, 4(%esp)
	movl	%eax, (%esp)
	call	bzero
.LVL27:
	.loc 1 69 0
	movl	-16(%ebp), %eax
	movl	-12(%ebp), %edx
	addl	%edx, %eax
	jmp	.L11
.L6:
	.loc 1 62 0
	addl	$1, -16(%ebp)
.LVL28:
.L5:
	.loc 1 62 0 is_stmt 0 discriminator 1
	cmpl	$4095, -16(%ebp)
	jg	.L8
	.loc 1 62 0 discriminator 2
	movl	-16(%ebp), %eax
	movl	-12(%ebp), %edx
	addl	%edx, %eax
	movl	%eax, %edx
	movl	sb, %eax
	cmpl	%eax, %edx
	jb	.L9
.L8:
	.loc 1 72 0 is_stmt 1
	movl	-20(%ebp), %eax
	movl	%eax, (%esp)
	call	brelse
.LVL29:
	.loc 1 60 0
	addl	$4096, -12(%ebp)
.LVL30:
.L4:
	.loc 1 60 0 is_stmt 0 discriminator 1
	movl	-12(%ebp), %edx
	movl	sb, %eax
	cmpl	%eax, %edx
	jb	.L10
	.loc 1 74 0 is_stmt 1
	movl	$.LC0, (%esp)
	call	panic
.LVL31:
.L11:
	.loc 1 75 0 discriminator 1
	leave
.LCFI8:
	.cfi_restore 5
	.cfi_def_cfa 4, 4
	ret
	.cfi_endproc
.LFE2:
	.size	balloc, .-balloc
	.section	.rodata
.LC1:
	.string	"freeing free block"
	.text
	.type	bfree, @function
bfree:
.LFB3:
	.loc 1 80 0
	.cfi_startproc
.LVL32:
	pushl	%ebp
.LCFI9:
	.cfi_def_cfa_offset 8
	.cfi_offset 5, -8
	movl	%esp, %ebp
.LCFI10:
	.cfi_def_cfa_register 5
	subl	$40, %esp
	.loc 1 84 0
	movl	$sb, 4(%esp)
	movl	8(%ebp), %eax
	movl	%eax, (%esp)
	call	readsb
.LVL33:
	.loc 1 85 0
	movl	12(%ebp), %eax
	shrl	$12, %eax
	movl	%eax, %edx
	movl	sb+24, %eax
	addl	%eax, %edx
	movl	8(%ebp), %eax
	movl	%edx, 4(%esp)
	movl	%eax, (%esp)
	call	bread
.LVL34:
	movl	%eax, -12(%ebp)
.LVL35:
	.loc 1 86 0
	movl	12(%ebp), %eax
.LVL36:
	andl	$4095, %eax
	movl	%eax, -16(%ebp)
.LVL37:
	.loc 1 87 0
	movl	-16(%ebp), %eax
	cltd
	shrl	$29, %edx
	addl	%edx, %eax
.LVL38:
	andl	$7, %eax
	subl	%edx, %eax
	movl	$1, %edx
	movl	%eax, %ecx
	sall	%cl, %edx
	movl	%edx, %eax
	movl	%eax, -20(%ebp)
.LVL39:
	.loc 1 88 0
	movl	-16(%ebp), %eax
.LVL40:
	leal	7(%eax), %edx
.LVL41:
	testl	%eax, %eax
	cmovs	%edx, %eax
	sarl	$3, %eax
	movl	-12(%ebp), %edx
	movzbl	24(%edx,%eax), %eax
	movzbl	%al, %eax
	andl	-20(%ebp), %eax
	testl	%eax, %eax
	jne	.L13
	.loc 1 89 0
	movl	$.LC1, (%esp)
	call	panic
.LVL42:
.L13:
	.loc 1 90 0
	movl	-16(%ebp), %eax
	leal	7(%eax), %edx
.LVL43:
	testl	%eax, %eax
	cmovs	%edx, %eax
	sarl	$3, %eax
	movl	-12(%ebp), %edx
	movzbl	24(%edx,%eax), %edx
	movl	-20(%ebp), %ecx
	notl	%ecx
	andl	%ecx, %edx
	movl	%edx, %ecx
	movl	-12(%ebp), %edx
	movb	%cl, 24(%edx,%eax)
	.loc 1 91 0
	movl	-12(%ebp), %eax
	movl	%eax, (%esp)
	call	log_write
.LVL44:
	.loc 1 92 0
	movl	-12(%ebp), %eax
	movl	%eax, (%esp)
	call	brelse
.LVL45:
	.loc 1 93 0
	leave
.LCFI11:
	.cfi_restore 5
	.cfi_def_cfa 4, 4
	ret
	.cfi_endproc
.LFE3:
	.size	bfree, .-bfree
	.comm	icache,4052,32
	.section	.rodata
.LC2:
	.string	"icache"
	.align 4
.LC3:
	.string	"sb: size %d nblocks %d ninodes %d nlog %d logstart %d inodestart %d bmap start %d\n"
	.text
	.globl	iinit
	.type	iinit, @function
iinit:
.LFB4:
	.loc 1 164 0
	.cfi_startproc
.LVL46:
	pushl	%ebp
.LCFI12:
	.cfi_def_cfa_offset 8
	.cfi_offset 5, -8
	movl	%esp, %ebp
.LCFI13:
	.cfi_def_cfa_register 5
	pushl	%edi
	pushl	%esi
	pushl	%ebx
	subl	$60, %esp
	.cfi_offset 7, -12
	.cfi_offset 6, -16
	.cfi_offset 3, -20
	.loc 1 165 0
	movl	$.LC2, 4(%esp)
	movl	$icache, (%esp)
	call	initlock
.LVL47:
	.loc 1 166 0
	movl	$sb, 4(%esp)
	movl	8(%ebp), %eax
	movl	%eax, (%esp)
	call	readsb
.LVL48:
	.loc 1 167 0
	movl	sb+24, %eax
	movl	sb+20, %edi
	movl	sb+16, %esi
	movl	sb+12, %ebx
	movl	sb+8, %ecx
	movl	sb+4, %edx
	movl	%edx, -28(%ebp)
	movl	sb, %edx
	movl	%eax, 28(%esp)
	movl	%edi, 24(%esp)
	movl	%esi, 20(%esp)
	movl	%ebx, 16(%esp)
	movl	%ecx, 12(%esp)
	movl	-28(%ebp), %eax
	movl	%eax, 8(%esp)
	movl	%edx, %eax
	movl	%eax, 4(%esp)
	movl	$.LC3, (%esp)
	call	cprintf
.LVL49:
	.loc 1 169 0
	addl	$60, %esp
	popl	%ebx
	.cfi_restore 3
	popl	%esi
	.cfi_restore 6
	popl	%edi
	.cfi_restore 7
	popl	%ebp
.LCFI14:
	.cfi_restore 5
	.cfi_def_cfa 4, 4
	ret
	.cfi_endproc
.LFE4:
	.size	iinit, .-iinit
	.section	.rodata
.LC4:
	.string	"ialloc: no inodes"
	.text
	.globl	ialloc
	.type	ialloc, @function
ialloc:
.LFB5:
	.loc 1 178 0
	.cfi_startproc
.LVL50:
	pushl	%ebp
.LCFI15:
	.cfi_def_cfa_offset 8
	.cfi_offset 5, -8
	movl	%esp, %ebp
.LCFI16:
	.cfi_def_cfa_register 5
	subl	$40, %esp
	movl	12(%ebp), %eax
	movw	%ax, -28(%ebp)
	.loc 1 183 0
	movl	$1, -12(%ebp)
.LVL51:
	jmp	.L16
.LVL52:
.L19:
	.loc 1 184 0
	movl	-12(%ebp), %eax
	shrl	$3, %eax
	movl	%eax, %edx
.LVL53:
	movl	sb+20, %eax
	addl	%edx, %eax
	movl	%eax, 4(%esp)
	movl	8(%ebp), %eax
	movl	%eax, (%esp)
	call	bread
.LVL54:
	movl	%eax, -16(%ebp)
.LVL55:
	.loc 1 185 0
	movl	-16(%ebp), %eax
	leal	24(%eax), %edx
	movl	-12(%ebp), %eax
.LVL56:
	andl	$7, %eax
	sall	$6, %eax
	addl	%edx, %eax
	movl	%eax, -20(%ebp)
.LVL57:
	.loc 1 186 0
	movl	-20(%ebp), %eax
	movzwl	(%eax), %eax
.LVL58:
	testw	%ax, %ax
	jne	.L17
	.loc 1 187 0
	movl	$64, 8(%esp)
	movl	$0, 4(%esp)
	movl	-20(%ebp), %eax
	movl	%eax, (%esp)
	call	memset
.LVL59:
	.loc 1 188 0
	movl	-20(%ebp), %eax
	movzwl	-28(%ebp), %edx
	movw	%dx, (%eax)
	.loc 1 189 0
	movl	-16(%ebp), %eax
	movl	%eax, (%esp)
	call	log_write
.LVL60:
	.loc 1 190 0
	movl	-16(%ebp), %eax
	movl	%eax, (%esp)
	call	brelse
.LVL61:
	.loc 1 191 0
	movl	-12(%ebp), %eax
	movl	%eax, 4(%esp)
	movl	8(%ebp), %eax
	movl	%eax, (%esp)
	call	iget
.LVL62:
	jmp	.L20
.L17:
	.loc 1 193 0
	movl	-16(%ebp), %eax
	movl	%eax, (%esp)
	call	brelse
.LVL63:
	.loc 1 183 0
	addl	$1, -12(%ebp)
.LVL64:
.L16:
	.loc 1 183 0 is_stmt 0 discriminator 1
	movl	-12(%ebp), %edx
	movl	sb+8, %eax
	cmpl	%eax, %edx
	jb	.L19
	.loc 1 195 0 is_stmt 1
	movl	$.LC4, (%esp)
	call	panic
.LVL65:
.L20:
	.loc 1 196 0 discriminator 1
	leave
.LCFI17:
	.cfi_restore 5
	.cfi_def_cfa 4, 4
	ret
	.cfi_endproc
.LFE5:
	.size	ialloc, .-ialloc
	.globl	iupdate
	.type	iupdate, @function
iupdate:
.LFB6:
	.loc 1 201 0
	.cfi_startproc
.LVL66:
	pushl	%ebp
.LCFI18:
	.cfi_def_cfa_offset 8
	.cfi_offset 5, -8
	movl	%esp, %ebp
.LCFI19:
	.cfi_def_cfa_register 5
	subl	$40, %esp
	.loc 1 205 0
	movl	8(%ebp), %eax
	movl	4(%eax), %eax
	shrl	$3, %eax
	movl	%eax, %edx
	movl	sb+20, %eax
	addl	%eax, %edx
	movl	8(%ebp), %eax
	movl	(%eax), %eax
	movl	%edx, 4(%esp)
	movl	%eax, (%esp)
	call	bread
.LVL67:
	movl	%eax, -12(%ebp)
.LVL68:
	.loc 1 206 0
	movl	-12(%ebp), %eax
	leal	24(%eax), %edx
	movl	8(%ebp), %eax
.LVL69:
	movl	4(%eax), %eax
	andl	$7, %eax
	sall	$6, %eax
	addl	%edx, %eax
	movl	%eax, -16(%ebp)
.LVL70:
	.loc 1 207 0
	movl	8(%ebp), %eax
.LVL71:
	movzwl	16(%eax), %edx
	movl	-16(%ebp), %eax
	movw	%dx, (%eax)
	.loc 1 208 0
	movl	8(%ebp), %eax
	movzwl	18(%eax), %edx
	movl	-16(%ebp), %eax
	movw	%dx, 2(%eax)
	.loc 1 209 0
	movl	8(%ebp), %eax
	movzwl	20(%eax), %edx
	movl	-16(%ebp), %eax
	movw	%dx, 4(%eax)
	.loc 1 210 0
	movl	8(%ebp), %eax
	movzwl	22(%eax), %edx
	movl	-16(%ebp), %eax
	movw	%dx, 6(%eax)
	.loc 1 211 0
	movl	8(%ebp), %eax
	movl	24(%eax), %edx
	movl	-16(%ebp), %eax
	movl	%edx, 8(%eax)
	.loc 1 212 0
	movl	8(%ebp), %eax
	leal	28(%eax), %edx
	movl	-16(%ebp), %eax
	addl	$12, %eax
	movl	$52, 8(%esp)
	movl	%edx, 4(%esp)
	movl	%eax, (%esp)
	call	memmove
.LVL72:
	.loc 1 213 0
	movl	-12(%ebp), %eax
	movl	%eax, (%esp)
	call	log_write
.LVL73:
	.loc 1 214 0
	movl	-12(%ebp), %eax
	movl	%eax, (%esp)
	call	brelse
.LVL74:
	.loc 1 215 0
	leave
.LCFI20:
	.cfi_restore 5
	.cfi_def_cfa 4, 4
	ret
	.cfi_endproc
.LFE6:
	.size	iupdate, .-iupdate
	.section	.rodata
.LC5:
	.string	"iget: no inodes"
	.text
	.type	iget, @function
iget:
.LFB7:
	.loc 1 222 0
	.cfi_startproc
.LVL75:
	pushl	%ebp
.LCFI21:
	.cfi_def_cfa_offset 8
	.cfi_offset 5, -8
	movl	%esp, %ebp
.LCFI22:
	.cfi_def_cfa_register 5
	subl	$40, %esp
	.loc 1 225 0
	movl	$icache, (%esp)
	call	acquire
.LVL76:
	.loc 1 228 0
	movl	$0, -16(%ebp)
.LVL77:
	.loc 1 229 0
	movl	$icache+52, -12(%ebp)
.LVL78:
	jmp	.L23
.L27:
	.loc 1 230 0
	movl	-12(%ebp), %eax
	movl	8(%eax), %eax
	testl	%eax, %eax
	jle	.L24
	.loc 1 230 0 is_stmt 0 discriminator 1
	movl	-12(%ebp), %eax
	movl	(%eax), %eax
	cmpl	8(%ebp), %eax
	jne	.L24
	movl	-12(%ebp), %eax
	movl	4(%eax), %eax
	cmpl	12(%ebp), %eax
	jne	.L24
	.loc 1 231 0 is_stmt 1
	movl	-12(%ebp), %eax
	movl	8(%eax), %eax
	leal	1(%eax), %edx
	movl	-12(%ebp), %eax
	movl	%edx, 8(%eax)
	.loc 1 232 0
	movl	$icache, (%esp)
	call	release
.LVL79:
	.loc 1 233 0
	movl	-12(%ebp), %eax
	jmp	.L25
.L24:
	.loc 1 235 0
	cmpl	$0, -16(%ebp)
	jne	.L26
	.loc 1 235 0 is_stmt 0 discriminator 1
	movl	-12(%ebp), %eax
	movl	8(%eax), %eax
	testl	%eax, %eax
	jne	.L26
	.loc 1 236 0 is_stmt 1
	movl	-12(%ebp), %eax
	movl	%eax, -16(%ebp)
.LVL80:
.L26:
	.loc 1 229 0
	addl	$80, -12(%ebp)
.LVL81:
.L23:
	.loc 1 229 0 is_stmt 0 discriminator 1
	cmpl	$icache+4052, -12(%ebp)
	jb	.L27
	.loc 1 240 0 is_stmt 1
	cmpl	$0, -16(%ebp)
	jne	.L28
	.loc 1 241 0
	movl	$.LC5, (%esp)
	call	panic
.LVL82:
.L28:
	.loc 1 243 0
	movl	-16(%ebp), %eax
	movl	%eax, -12(%ebp)
.LVL83:
	.loc 1 244 0
	movl	-12(%ebp), %eax
	movl	8(%ebp), %edx
	movl	%edx, (%eax)
	.loc 1 245 0
	movl	-12(%ebp), %eax
	movl	12(%ebp), %edx
	movl	%edx, 4(%eax)
	.loc 1 246 0
	movl	-12(%ebp), %eax
	movl	$1, 8(%eax)
	.loc 1 247 0
	movl	-12(%ebp), %eax
	movl	$0, 12(%eax)
	.loc 1 248 0
	movl	$icache, (%esp)
	call	release
.LVL84:
	.loc 1 250 0
	movl	-12(%ebp), %eax
.L25:
	.loc 1 251 0
	leave
.LCFI23:
	.cfi_restore 5
	.cfi_def_cfa 4, 4
	ret
	.cfi_endproc
.LFE7:
	.size	iget, .-iget
	.globl	idup
	.type	idup, @function
idup:
.LFB8:
	.loc 1 257 0
	.cfi_startproc
.LVL85:
	pushl	%ebp
.LCFI24:
	.cfi_def_cfa_offset 8
	.cfi_offset 5, -8
	movl	%esp, %ebp
.LCFI25:
	.cfi_def_cfa_register 5
	subl	$24, %esp
	.loc 1 258 0
	movl	$icache, (%esp)
	call	acquire
.LVL86:
	.loc 1 259 0
	movl	8(%ebp), %eax
	movl	8(%eax), %eax
	leal	1(%eax), %edx
	movl	8(%ebp), %eax
	movl	%edx, 8(%eax)
	.loc 1 260 0
	movl	$icache, (%esp)
	call	release
.LVL87:
	.loc 1 261 0
	movl	8(%ebp), %eax
	.loc 1 262 0
	leave
.LCFI26:
	.cfi_restore 5
	.cfi_def_cfa 4, 4
	ret
	.cfi_endproc
.LFE8:
	.size	idup, .-idup
	.section	.rodata
.LC6:
	.string	"ilock"
.LC7:
	.string	"ilock: no type"
	.text
	.globl	ilock
	.type	ilock, @function
ilock:
.LFB9:
	.loc 1 268 0
	.cfi_startproc
.LVL88:
	pushl	%ebp
.LCFI27:
	.cfi_def_cfa_offset 8
	.cfi_offset 5, -8
	movl	%esp, %ebp
.LCFI28:
	.cfi_def_cfa_register 5
	subl	$40, %esp
	.loc 1 272 0
	cmpl	$0, 8(%ebp)
	je	.L32
	.loc 1 272 0 is_stmt 0 discriminator 1
	movl	8(%ebp), %eax
	movl	8(%eax), %eax
	testl	%eax, %eax
	jg	.L33
.L32:
	.loc 1 273 0 is_stmt 1
	movl	$.LC6, (%esp)
	call	panic
.LVL89:
.L33:
	.loc 1 275 0
	movl	$icache, (%esp)
	call	acquire
.LVL90:
	.loc 1 276 0
	jmp	.L34
.L35:
	.loc 1 277 0
	movl	$icache, 4(%esp)
	movl	8(%ebp), %eax
	movl	%eax, (%esp)
	call	sleep
.LVL91:
.L34:
	.loc 1 276 0 discriminator 1
	movl	8(%ebp), %eax
	movl	12(%eax), %eax
	andl	$1, %eax
	testl	%eax, %eax
	jne	.L35
	.loc 1 278 0
	movl	8(%ebp), %eax
	movl	12(%eax), %eax
	orl	$1, %eax
	movl	%eax, %edx
	movl	8(%ebp), %eax
	movl	%edx, 12(%eax)
	.loc 1 279 0
	movl	$icache, (%esp)
	call	release
.LVL92:
	.loc 1 281 0
	movl	8(%ebp), %eax
	movl	12(%eax), %eax
	andl	$2, %eax
	testl	%eax, %eax
	jne	.L31
	.loc 1 282 0
	movl	8(%ebp), %eax
	movl	4(%eax), %eax
	shrl	$3, %eax
	movl	%eax, %edx
	movl	sb+20, %eax
	addl	%eax, %edx
	movl	8(%ebp), %eax
	movl	(%eax), %eax
	movl	%edx, 4(%esp)
	movl	%eax, (%esp)
	call	bread
.LVL93:
	movl	%eax, -12(%ebp)
.LVL94:
	.loc 1 283 0
	movl	-12(%ebp), %eax
	leal	24(%eax), %edx
	movl	8(%ebp), %eax
.LVL95:
	movl	4(%eax), %eax
	andl	$7, %eax
	sall	$6, %eax
	addl	%edx, %eax
	movl	%eax, -16(%ebp)
.LVL96:
	.loc 1 284 0
	movl	-16(%ebp), %eax
	movzwl	(%eax), %edx
	movl	8(%ebp), %eax
.LVL97:
	movw	%dx, 16(%eax)
	.loc 1 285 0
	movl	-16(%ebp), %eax
	movzwl	2(%eax), %edx
	movl	8(%ebp), %eax
	movw	%dx, 18(%eax)
	.loc 1 286 0
	movl	-16(%ebp), %eax
	movzwl	4(%eax), %edx
	movl	8(%ebp), %eax
	movw	%dx, 20(%eax)
	.loc 1 287 0
	movl	-16(%ebp), %eax
	movzwl	6(%eax), %edx
	movl	8(%ebp), %eax
	movw	%dx, 22(%eax)
	.loc 1 288 0
	movl	-16(%ebp), %eax
	movl	8(%eax), %edx
	movl	8(%ebp), %eax
	movl	%edx, 24(%eax)
	.loc 1 289 0
	movl	-16(%ebp), %eax
	leal	12(%eax), %edx
	movl	8(%ebp), %eax
	addl	$28, %eax
	movl	$52, 8(%esp)
	movl	%edx, 4(%esp)
	movl	%eax, (%esp)
	call	memmove
.LVL98:
	.loc 1 290 0
	movl	-12(%ebp), %eax
	movl	%eax, (%esp)
	call	brelse
.LVL99:
	.loc 1 291 0
	movl	8(%ebp), %eax
	movl	12(%eax), %eax
	orl	$2, %eax
	movl	%eax, %edx
	movl	8(%ebp), %eax
	movl	%edx, 12(%eax)
	.loc 1 292 0
	movl	8(%ebp), %eax
	movzwl	16(%eax), %eax
	testw	%ax, %ax
	jne	.L31
	.loc 1 293 0
	movl	$.LC7, (%esp)
	call	panic
.LVL100:
.L31:
	.loc 1 295 0
	leave
.LCFI29:
	.cfi_restore 5
	.cfi_def_cfa 4, 4
	ret
	.cfi_endproc
.LFE9:
	.size	ilock, .-ilock
	.section	.rodata
.LC8:
	.string	"iunlock"
	.text
	.globl	iunlock
	.type	iunlock, @function
iunlock:
.LFB10:
	.loc 1 300 0
	.cfi_startproc
.LVL101:
	pushl	%ebp
.LCFI30:
	.cfi_def_cfa_offset 8
	.cfi_offset 5, -8
	movl	%esp, %ebp
.LCFI31:
	.cfi_def_cfa_register 5
	subl	$24, %esp
	.loc 1 301 0
	cmpl	$0, 8(%ebp)
	je	.L38
	.loc 1 301 0 is_stmt 0 discriminator 1
	movl	8(%ebp), %eax
	movl	12(%eax), %eax
	andl	$1, %eax
	testl	%eax, %eax
	je	.L38
	movl	8(%ebp), %eax
	movl	8(%eax), %eax
	testl	%eax, %eax
	jg	.L39
.L38:
	.loc 1 302 0 is_stmt 1
	movl	$.LC8, (%esp)
	call	panic
.LVL102:
.L39:
	.loc 1 304 0
	movl	$icache, (%esp)
	call	acquire
.LVL103:
	.loc 1 305 0
	movl	8(%ebp), %eax
	movl	12(%eax), %eax
	andl	$-2, %eax
	movl	%eax, %edx
	movl	8(%ebp), %eax
	movl	%edx, 12(%eax)
	.loc 1 306 0
	movl	8(%ebp), %eax
	movl	%eax, (%esp)
	call	wakeup
.LVL104:
	.loc 1 307 0
	movl	$icache, (%esp)
	call	release
.LVL105:
	.loc 1 308 0
	leave
.LCFI32:
	.cfi_restore 5
	.cfi_def_cfa 4, 4
	ret
	.cfi_endproc
.LFE10:
	.size	iunlock, .-iunlock
	.section	.rodata
.LC9:
	.string	"iput busy"
	.text
	.globl	iput
	.type	iput, @function
iput:
.LFB11:
	.loc 1 319 0
	.cfi_startproc
.LVL106:
	pushl	%ebp
.LCFI33:
	.cfi_def_cfa_offset 8
	.cfi_offset 5, -8
	movl	%esp, %ebp
.LCFI34:
	.cfi_def_cfa_register 5
	subl	$24, %esp
	.loc 1 320 0
	movl	$icache, (%esp)
	call	acquire
.LVL107:
	.loc 1 321 0
	movl	8(%ebp), %eax
	movl	8(%eax), %eax
	cmpl	$1, %eax
	jne	.L41
	.loc 1 321 0 is_stmt 0 discriminator 1
	movl	8(%ebp), %eax
	movl	12(%eax), %eax
	andl	$2, %eax
	testl	%eax, %eax
	je	.L41
	movl	8(%ebp), %eax
	movzwl	22(%eax), %eax
	testw	%ax, %ax
	jne	.L41
	.loc 1 323 0 is_stmt 1
	movl	8(%ebp), %eax
	movl	12(%eax), %eax
	andl	$1, %eax
	testl	%eax, %eax
	je	.L42
	.loc 1 324 0
	movl	$.LC9, (%esp)
	call	panic
.LVL108:
.L42:
	.loc 1 325 0
	movl	8(%ebp), %eax
	movl	12(%eax), %eax
	orl	$1, %eax
	movl	%eax, %edx
	movl	8(%ebp), %eax
	movl	%edx, 12(%eax)
	.loc 1 326 0
	movl	$icache, (%esp)
	call	release
.LVL109:
	.loc 1 327 0
	movl	8(%ebp), %eax
	movl	%eax, (%esp)
	call	itrunc
.LVL110:
	.loc 1 328 0
	movl	8(%ebp), %eax
	movw	$0, 16(%eax)
	.loc 1 329 0
	movl	8(%ebp), %eax
	movl	%eax, (%esp)
	call	iupdate
.LVL111:
	.loc 1 330 0
	movl	$icache, (%esp)
	call	acquire
.LVL112:
	.loc 1 331 0
	movl	8(%ebp), %eax
	movl	$0, 12(%eax)
	.loc 1 332 0
	movl	8(%ebp), %eax
	movl	%eax, (%esp)
	call	wakeup
.LVL113:
.L41:
	.loc 1 334 0
	movl	8(%ebp), %eax
	movl	8(%eax), %eax
	leal	-1(%eax), %edx
	movl	8(%ebp), %eax
	movl	%edx, 8(%eax)
	.loc 1 335 0
	movl	$icache, (%esp)
	call	release
.LVL114:
	.loc 1 336 0
	leave
.LCFI35:
	.cfi_restore 5
	.cfi_def_cfa 4, 4
	ret
	.cfi_endproc
.LFE11:
	.size	iput, .-iput
	.globl	iunlockput
	.type	iunlockput, @function
iunlockput:
.LFB12:
	.loc 1 341 0
	.cfi_startproc
.LVL115:
	pushl	%ebp
.LCFI36:
	.cfi_def_cfa_offset 8
	.cfi_offset 5, -8
	movl	%esp, %ebp
.LCFI37:
	.cfi_def_cfa_register 5
	subl	$24, %esp
	.loc 1 342 0
	movl	8(%ebp), %eax
	movl	%eax, (%esp)
	call	iunlock
.LVL116:
	.loc 1 343 0
	movl	8(%ebp), %eax
	movl	%eax, (%esp)
	call	iput
.LVL117:
	.loc 1 344 0
	leave
.LCFI38:
	.cfi_restore 5
	.cfi_def_cfa 4, 4
	ret
	.cfi_endproc
.LFE12:
	.size	iunlockput, .-iunlockput
	.section	.rodata
.LC10:
	.string	"bmap: out of range"
	.text
	.type	bmap, @function
bmap:
.LFB13:
	.loc 1 358 0
	.cfi_startproc
.LVL118:
	pushl	%ebp
.LCFI39:
	.cfi_def_cfa_offset 8
	.cfi_offset 5, -8
	movl	%esp, %ebp
.LCFI40:
	.cfi_def_cfa_register 5
	pushl	%ebx
	subl	$36, %esp
	.cfi_offset 3, -12
	.loc 1 362 0
	cmpl	$11, 12(%ebp)
	ja	.L45
	.loc 1 363 0
	movl	8(%ebp), %eax
	movl	12(%ebp), %edx
	addl	$4, %edx
	movl	12(%eax,%edx,4), %eax
	movl	%eax, -12(%ebp)
.LVL119:
	cmpl	$0, -12(%ebp)
	jne	.L46
	.loc 1 364 0
	movl	8(%ebp), %eax
.LVL120:
	movl	(%eax), %eax
.LVL121:
	movl	%eax, (%esp)
.LVL122:
	call	balloc
.LVL123:
	movl	%eax, -12(%ebp)
.LVL124:
	movl	8(%ebp), %eax
.LVL125:
	movl	12(%ebp), %edx
	leal	4(%edx), %ecx
	movl	-12(%ebp), %edx
	movl	%edx, 12(%eax,%ecx,4)
.L46:
	.loc 1 365 0
	movl	-12(%ebp), %eax
	jmp	.L47
.LVL126:
.L45:
	.loc 1 367 0
	subl	$12, 12(%ebp)
.LVL127:
	.loc 1 369 0
	cmpl	$127, 12(%ebp)
	ja	.L48
	.loc 1 371 0
	movl	8(%ebp), %eax
	movl	76(%eax), %eax
	movl	%eax, -12(%ebp)
.LVL128:
	cmpl	$0, -12(%ebp)
	jne	.L49
	.loc 1 372 0
	movl	8(%ebp), %eax
.LVL129:
	movl	(%eax), %eax
	movl	%eax, (%esp)
	call	balloc
.LVL130:
	movl	%eax, -12(%ebp)
.LVL131:
	movl	8(%ebp), %eax
.LVL132:
	movl	-12(%ebp), %edx
	movl	%edx, 76(%eax)
.L49:
	.loc 1 373 0
	movl	8(%ebp), %eax
	movl	(%eax), %eax
	movl	-12(%ebp), %edx
	movl	%edx, 4(%esp)
	movl	%eax, (%esp)
	call	bread
.LVL133:
	movl	%eax, -16(%ebp)
.LVL134:
	.loc 1 374 0
	movl	-16(%ebp), %eax
	addl	$24, %eax
.LVL135:
	movl	%eax, -20(%ebp)
.LVL136:
	.loc 1 375 0
	movl	12(%ebp), %eax
.LVL137:
	leal	0(,%eax,4), %edx
	movl	-20(%ebp), %eax
	addl	%edx, %eax
	movl	(%eax), %eax
	movl	%eax, -12(%ebp)
.LVL138:
	cmpl	$0, -12(%ebp)
	jne	.L50
	.loc 1 376 0
	movl	12(%ebp), %eax
.LVL139:
	leal	0(,%eax,4), %edx
	movl	-20(%ebp), %eax
	leal	(%edx,%eax), %ebx
	movl	8(%ebp), %eax
	movl	(%eax), %eax
	movl	%eax, (%esp)
	call	balloc
.LVL140:
	movl	%eax, -12(%ebp)
.LVL141:
	movl	-12(%ebp), %eax
	movl	%eax, (%ebx)
	.loc 1 377 0
	movl	-16(%ebp), %eax
.LVL142:
	movl	%eax, (%esp)
	call	log_write
.LVL143:
.L50:
	.loc 1 379 0
	movl	-16(%ebp), %eax
	movl	%eax, (%esp)
	call	brelse
.LVL144:
	.loc 1 380 0
	movl	-12(%ebp), %eax
	jmp	.L47
.LVL145:
.L48:
	.loc 1 383 0
	movl	$.LC10, (%esp)
	call	panic
.LVL146:
.L47:
	.loc 1 384 0
	addl	$36, %esp
	popl	%ebx
	.cfi_restore 3
	popl	%ebp
.LCFI41:
	.cfi_restore 5
	.cfi_def_cfa 4, 4
	ret
	.cfi_endproc
.LFE13:
	.size	bmap, .-bmap
	.type	itrunc, @function
itrunc:
.LFB14:
	.loc 1 393 0
	.cfi_startproc
.LVL147:
	pushl	%ebp
.LCFI42:
	.cfi_def_cfa_offset 8
	.cfi_offset 5, -8
	movl	%esp, %ebp
.LCFI43:
	.cfi_def_cfa_register 5
	subl	$40, %esp
	.loc 1 398 0
	movl	$0, -12(%ebp)
.LVL148:
	jmp	.L52
.L54:
	.loc 1 399 0
	movl	8(%ebp), %eax
	movl	-12(%ebp), %edx
	addl	$4, %edx
	movl	12(%eax,%edx,4), %eax
	testl	%eax, %eax
	je	.L53
	.loc 1 400 0
	movl	8(%ebp), %eax
	movl	-12(%ebp), %edx
	addl	$4, %edx
	movl	12(%eax,%edx,4), %edx
	movl	8(%ebp), %eax
	movl	(%eax), %eax
	movl	%edx, 4(%esp)
	movl	%eax, (%esp)
	call	bfree
.LVL149:
	.loc 1 401 0
	movl	8(%ebp), %eax
	movl	-12(%ebp), %edx
	addl	$4, %edx
	movl	$0, 12(%eax,%edx,4)
.L53:
	.loc 1 398 0
	addl	$1, -12(%ebp)
.L52:
	.loc 1 398 0 is_stmt 0 discriminator 1
	cmpl	$11, -12(%ebp)
	jle	.L54
	.loc 1 405 0 is_stmt 1
	movl	8(%ebp), %eax
	movl	76(%eax), %eax
	testl	%eax, %eax
	je	.L55
	.loc 1 406 0
	movl	8(%ebp), %eax
	movl	76(%eax), %edx
	movl	8(%ebp), %eax
	movl	(%eax), %eax
	movl	%edx, 4(%esp)
	movl	%eax, (%esp)
	call	bread
.LVL150:
	movl	%eax, -20(%ebp)
.LVL151:
	.loc 1 407 0
	movl	-20(%ebp), %eax
	addl	$24, %eax
.LVL152:
	movl	%eax, -24(%ebp)
.LVL153:
	.loc 1 408 0
	movl	$0, -16(%ebp)
.LVL154:
	jmp	.L56
.LVL155:
.L58:
	.loc 1 409 0
	movl	-16(%ebp), %eax
.LVL156:
	leal	0(,%eax,4), %edx
	movl	-24(%ebp), %eax
	addl	%edx, %eax
	movl	(%eax), %eax
	testl	%eax, %eax
	je	.L57
	.loc 1 410 0
	movl	-16(%ebp), %eax
	leal	0(,%eax,4), %edx
	movl	-24(%ebp), %eax
	addl	%edx, %eax
	movl	(%eax), %edx
	movl	8(%ebp), %eax
	movl	(%eax), %eax
	movl	%edx, 4(%esp)
	movl	%eax, (%esp)
	call	bfree
.LVL157:
.L57:
	.loc 1 408 0
	addl	$1, -16(%ebp)
.L56:
	.loc 1 408 0 is_stmt 0 discriminator 1
	movl	-16(%ebp), %eax
	cmpl	$127, %eax
	jbe	.L58
	.loc 1 412 0 is_stmt 1
	movl	-20(%ebp), %eax
	movl	%eax, (%esp)
	call	brelse
.LVL158:
	.loc 1 413 0
	movl	8(%ebp), %eax
	movl	76(%eax), %edx
	movl	8(%ebp), %eax
	movl	(%eax), %eax
	movl	%edx, 4(%esp)
	movl	%eax, (%esp)
	call	bfree
.LVL159:
	.loc 1 414 0
	movl	8(%ebp), %eax
	movl	$0, 76(%eax)
.LVL160:
.L55:
	.loc 1 417 0
	movl	8(%ebp), %eax
	movl	$0, 24(%eax)
	.loc 1 418 0
	movl	8(%ebp), %eax
	movl	%eax, (%esp)
	call	iupdate
.LVL161:
	.loc 1 419 0
	leave
.LCFI44:
	.cfi_restore 5
	.cfi_def_cfa 4, 4
	ret
	.cfi_endproc
.LFE14:
	.size	itrunc, .-itrunc
	.globl	stati
	.type	stati, @function
stati:
.LFB15:
	.loc 1 424 0
	.cfi_startproc
.LVL162:
	pushl	%ebp
.LCFI45:
	.cfi_def_cfa_offset 8
	.cfi_offset 5, -8
	movl	%esp, %ebp
.LCFI46:
	.cfi_def_cfa_register 5
	.loc 1 425 0
	movl	8(%ebp), %eax
	movl	(%eax), %eax
	movl	%eax, %edx
	movl	12(%ebp), %eax
	movl	%edx, 4(%eax)
	.loc 1 426 0
	movl	8(%ebp), %eax
	movl	4(%eax), %edx
	movl	12(%ebp), %eax
	movl	%edx, 8(%eax)
	.loc 1 427 0
	movl	8(%ebp), %eax
	movzwl	16(%eax), %edx
	movl	12(%ebp), %eax
	movw	%dx, (%eax)
	.loc 1 428 0
	movl	8(%ebp), %eax
	movzwl	22(%eax), %edx
	movl	12(%ebp), %eax
	movw	%dx, 12(%eax)
	.loc 1 429 0
	movl	8(%ebp), %eax
	movl	24(%eax), %edx
	movl	12(%ebp), %eax
	movl	%edx, 16(%eax)
	.loc 1 430 0
	popl	%ebp
.LCFI47:
	.cfi_restore 5
	.cfi_def_cfa 4, 4
	ret
	.cfi_endproc
.LFE15:
	.size	stati, .-stati
	.globl	readi
	.type	readi, @function
readi:
.LFB16:
	.loc 1 436 0
	.cfi_startproc
.LVL163:
	pushl	%ebp
.LCFI48:
	.cfi_def_cfa_offset 8
	.cfi_offset 5, -8
	movl	%esp, %ebp
.LCFI49:
	.cfi_def_cfa_register 5
	subl	$40, %esp
	.loc 1 440 0
	movl	8(%ebp), %eax
	movzwl	16(%eax), %eax
	cmpw	$3, %ax
	jne	.L61
	.loc 1 441 0
	movl	8(%ebp), %eax
	movzwl	18(%eax), %eax
	testw	%ax, %ax
	js	.L62
	.loc 1 441 0 is_stmt 0 discriminator 1
	movl	8(%ebp), %eax
	movzwl	18(%eax), %eax
	cmpw	$9, %ax
	jg	.L62
	movl	8(%ebp), %eax
	movzwl	18(%eax), %eax
	cwtl
	movl	devsw(,%eax,8), %eax
	testl	%eax, %eax
	jne	.L63
.L62:
	.loc 1 442 0 is_stmt 1
	movl	$-1, %eax
	jmp	.L64
.L63:
	.loc 1 443 0
	movl	8(%ebp), %eax
	movzwl	18(%eax), %eax
	cwtl
	movl	devsw(,%eax,8), %eax
	movl	20(%ebp), %edx
	movl	%edx, 8(%esp)
	movl	12(%ebp), %edx
	movl	%edx, 4(%esp)
	movl	8(%ebp), %edx
	movl	%edx, (%esp)
	call	*%eax
.LVL164:
	jmp	.L64
.L61:
	.loc 1 446 0
	movl	8(%ebp), %eax
	movl	24(%eax), %eax
	cmpl	16(%ebp), %eax
	jb	.L65
	.loc 1 446 0 is_stmt 0 discriminator 1
	movl	20(%ebp), %eax
	movl	16(%ebp), %edx
	addl	%edx, %eax
	cmpl	16(%ebp), %eax
	jnb	.L66
.L65:
	.loc 1 447 0 is_stmt 1
	movl	$-1, %eax
	jmp	.L64
.L66:
	.loc 1 448 0
	movl	20(%ebp), %eax
	movl	16(%ebp), %edx
	addl	%eax, %edx
	movl	8(%ebp), %eax
	movl	24(%eax), %eax
	cmpl	%eax, %edx
	jbe	.L67
	.loc 1 449 0
	movl	8(%ebp), %eax
	movl	24(%eax), %eax
	subl	16(%ebp), %eax
	movl	%eax, 20(%ebp)
.LVL165:
.L67:
	.loc 1 451 0
	movl	$0, -12(%ebp)
.LVL166:
	jmp	.L68
.LVL167:
.L69:
	.loc 1 452 0 discriminator 2
	movl	16(%ebp), %eax
.LVL168:
	shrl	$9, %eax
	movl	%eax, 4(%esp)
	movl	8(%ebp), %eax
	movl	%eax, (%esp)
	call	bmap
.LVL169:
	movl	8(%ebp), %edx
	movl	(%edx), %edx
	movl	%eax, 4(%esp)
	movl	%edx, (%esp)
	call	bread
.LVL170:
	movl	%eax, -16(%ebp)
.LVL171:
	.loc 1 453 0 discriminator 2
	movl	16(%ebp), %eax
.LVL172:
	andl	$511, %eax
	movl	%eax, %edx
	movl	$512, %eax
	subl	%edx, %eax
	movl	%eax, %edx
	movl	-12(%ebp), %eax
	movl	20(%ebp), %ecx
	subl	%eax, %ecx
	movl	%ecx, %eax
	cmpl	%eax, %edx
	cmovbe	%edx, %eax
	movl	%eax, -20(%ebp)
.LVL173:
	.loc 1 454 0 discriminator 2
	movl	16(%ebp), %eax
.LVL174:
	andl	$511, %eax
	leal	16(%eax), %edx
	movl	-16(%ebp), %eax
	addl	%edx, %eax
	leal	8(%eax), %edx
	movl	-20(%ebp), %eax
	movl	%eax, 8(%esp)
	movl	%edx, 4(%esp)
	movl	12(%ebp), %eax
	movl	%eax, (%esp)
	call	memmove
.LVL175:
	.loc 1 455 0 discriminator 2
	movl	-16(%ebp), %eax
	movl	%eax, (%esp)
	call	brelse
.LVL176:
	.loc 1 451 0 discriminator 2
	movl	-20(%ebp), %eax
	addl	%eax, -12(%ebp)
	movl	-20(%ebp), %eax
	addl	%eax, 16(%ebp)
	movl	-20(%ebp), %eax
	addl	%eax, 12(%ebp)
.LVL177:
.L68:
	.loc 1 451 0 is_stmt 0 discriminator 1
	movl	-12(%ebp), %eax
	cmpl	20(%ebp), %eax
	jb	.L69
	.loc 1 457 0 is_stmt 1
	movl	20(%ebp), %eax
.LVL178:
.L64:
	.loc 1 458 0
	leave
.LCFI50:
	.cfi_restore 5
	.cfi_def_cfa 4, 4
	ret
	.cfi_endproc
.LFE16:
	.size	readi, .-readi
	.globl	writei
	.type	writei, @function
writei:
.LFB17:
	.loc 1 464 0
	.cfi_startproc
.LVL179:
	pushl	%ebp
.LCFI51:
	.cfi_def_cfa_offset 8
	.cfi_offset 5, -8
	movl	%esp, %ebp
.LCFI52:
	.cfi_def_cfa_register 5
	subl	$40, %esp
	.loc 1 468 0
	movl	8(%ebp), %eax
	movzwl	16(%eax), %eax
	cmpw	$3, %ax
	jne	.L71
	.loc 1 469 0
	movl	8(%ebp), %eax
	movzwl	18(%eax), %eax
	testw	%ax, %ax
	js	.L72
	.loc 1 469 0 is_stmt 0 discriminator 1
	movl	8(%ebp), %eax
	movzwl	18(%eax), %eax
	cmpw	$9, %ax
	jg	.L72
	movl	8(%ebp), %eax
	movzwl	18(%eax), %eax
	cwtl
	movl	devsw+4(,%eax,8), %eax
	testl	%eax, %eax
	jne	.L73
.L72:
	.loc 1 470 0 is_stmt 1
	movl	$-1, %eax
	jmp	.L74
.L73:
	.loc 1 471 0
	movl	8(%ebp), %eax
	movzwl	18(%eax), %eax
	cwtl
	movl	devsw+4(,%eax,8), %eax
	movl	20(%ebp), %edx
	movl	%edx, 8(%esp)
	movl	12(%ebp), %edx
	movl	%edx, 4(%esp)
	movl	8(%ebp), %edx
	movl	%edx, (%esp)
	call	*%eax
.LVL180:
	jmp	.L74
.L71:
	.loc 1 474 0
	movl	8(%ebp), %eax
	movl	24(%eax), %eax
	cmpl	16(%ebp), %eax
	jb	.L75
	.loc 1 474 0 is_stmt 0 discriminator 1
	movl	20(%ebp), %eax
	movl	16(%ebp), %edx
	addl	%edx, %eax
	cmpl	16(%ebp), %eax
	jnb	.L76
.L75:
	.loc 1 475 0 is_stmt 1
	movl	$-1, %eax
	jmp	.L74
.L76:
	.loc 1 476 0
	movl	20(%ebp), %eax
	movl	16(%ebp), %edx
	addl	%edx, %eax
	cmpl	$71680, %eax
	jbe	.L77
	.loc 1 477 0
	movl	$-1, %eax
	jmp	.L74
.L77:
	.loc 1 479 0
	movl	$0, -12(%ebp)
.LVL181:
	jmp	.L78
.LVL182:
.L79:
	.loc 1 480 0 discriminator 2
	movl	16(%ebp), %eax
.LVL183:
	shrl	$9, %eax
	movl	%eax, 4(%esp)
	movl	8(%ebp), %eax
	movl	%eax, (%esp)
	call	bmap
.LVL184:
	movl	8(%ebp), %edx
	movl	(%edx), %edx
	movl	%eax, 4(%esp)
	movl	%edx, (%esp)
	call	bread
.LVL185:
	movl	%eax, -16(%ebp)
.LVL186:
	.loc 1 481 0 discriminator 2
	movl	16(%ebp), %eax
.LVL187:
	andl	$511, %eax
	movl	%eax, %edx
	movl	$512, %eax
	subl	%edx, %eax
	movl	%eax, %edx
	movl	-12(%ebp), %eax
	movl	20(%ebp), %ecx
	subl	%eax, %ecx
	movl	%ecx, %eax
	cmpl	%eax, %edx
	cmovbe	%edx, %eax
	movl	%eax, -20(%ebp)
.LVL188:
	.loc 1 482 0 discriminator 2
	movl	16(%ebp), %eax
.LVL189:
	andl	$511, %eax
	leal	16(%eax), %edx
	movl	-16(%ebp), %eax
	addl	%edx, %eax
	leal	8(%eax), %edx
	movl	-20(%ebp), %eax
	movl	%eax, 8(%esp)
	movl	12(%ebp), %eax
	movl	%eax, 4(%esp)
	movl	%edx, (%esp)
	call	memmove
.LVL190:
	.loc 1 483 0 discriminator 2
	movl	-16(%ebp), %eax
	movl	%eax, (%esp)
	call	log_write
.LVL191:
	.loc 1 484 0 discriminator 2
	movl	-16(%ebp), %eax
	movl	%eax, (%esp)
	call	brelse
.LVL192:
	.loc 1 479 0 discriminator 2
	movl	-20(%ebp), %eax
	addl	%eax, -12(%ebp)
	movl	-20(%ebp), %eax
	addl	%eax, 16(%ebp)
	movl	-20(%ebp), %eax
	addl	%eax, 12(%ebp)
.LVL193:
.L78:
	.loc 1 479 0 is_stmt 0 discriminator 1
	movl	-12(%ebp), %eax
	cmpl	20(%ebp), %eax
	jb	.L79
	.loc 1 487 0 is_stmt 1
	cmpl	$0, 20(%ebp)
	je	.L80
	.loc 1 487 0 is_stmt 0 discriminator 1
	movl	8(%ebp), %eax
	movl	24(%eax), %eax
	cmpl	16(%ebp), %eax
	jnb	.L80
	.loc 1 488 0 is_stmt 1
	movl	8(%ebp), %eax
	movl	16(%ebp), %edx
	movl	%edx, 24(%eax)
	.loc 1 489 0
	movl	8(%ebp), %eax
	movl	%eax, (%esp)
	call	iupdate
.LVL194:
.L80:
	.loc 1 491 0
	movl	20(%ebp), %eax
.LVL195:
.L74:
	.loc 1 492 0
	leave
.LCFI53:
	.cfi_restore 5
	.cfi_def_cfa 4, 4
	ret
	.cfi_endproc
.LFE17:
	.size	writei, .-writei
	.globl	namecmp
	.type	namecmp, @function
namecmp:
.LFB18:
	.loc 1 499 0
	.cfi_startproc
.LVL196:
	pushl	%ebp
.LCFI54:
	.cfi_def_cfa_offset 8
	.cfi_offset 5, -8
	movl	%esp, %ebp
.LCFI55:
	.cfi_def_cfa_register 5
	subl	$24, %esp
	.loc 1 500 0
	movl	$14, 8(%esp)
	movl	12(%ebp), %eax
	movl	%eax, 4(%esp)
	movl	8(%ebp), %eax
	movl	%eax, (%esp)
	call	strncmp
.LVL197:
	.loc 1 501 0
	leave
.LCFI56:
	.cfi_restore 5
	.cfi_def_cfa 4, 4
	ret
	.cfi_endproc
.LFE18:
	.size	namecmp, .-namecmp
	.section	.rodata
.LC11:
	.string	"dirlookup not DIR"
.LC12:
	.string	"dirlink read"
	.text
	.globl	dirlookup
	.type	dirlookup, @function
dirlookup:
.LFB19:
	.loc 1 507 0
	.cfi_startproc
.LVL198:
	pushl	%ebp
.LCFI57:
	.cfi_def_cfa_offset 8
	.cfi_offset 5, -8
	movl	%esp, %ebp
.LCFI58:
	.cfi_def_cfa_register 5
	subl	$56, %esp
	.loc 1 511 0
	movl	8(%ebp), %eax
	movzwl	16(%eax), %eax
	cmpw	$1, %ax
	je	.L84
	.loc 1 512 0
	movl	$.LC11, (%esp)
	call	panic
.LVL199:
.L84:
	.loc 1 514 0
	movl	$0, -12(%ebp)
.LVL200:
	jmp	.L85
.L91:
	.loc 1 515 0
	movl	$16, 12(%esp)
	movl	-12(%ebp), %eax
	movl	%eax, 8(%esp)
	leal	-32(%ebp), %eax
	movl	%eax, 4(%esp)
	movl	8(%ebp), %eax
	movl	%eax, (%esp)
	call	readi
.LVL201:
	cmpl	$16, %eax
	je	.L86
	.loc 1 516 0
	movl	$.LC12, (%esp)
	call	panic
.LVL202:
.L86:
	.loc 1 517 0
	movzwl	-32(%ebp), %eax
	testw	%ax, %ax
	jne	.L87
	.loc 1 518 0
	jmp	.L88
.L87:
	.loc 1 519 0
	leal	-32(%ebp), %eax
	addl	$2, %eax
	movl	%eax, 4(%esp)
	movl	12(%ebp), %eax
	movl	%eax, (%esp)
	call	namecmp
.LVL203:
	testl	%eax, %eax
	jne	.L88
	.loc 1 521 0
	cmpl	$0, 16(%ebp)
	je	.L89
	.loc 1 522 0
	movl	16(%ebp), %eax
	movl	-12(%ebp), %edx
	movl	%edx, (%eax)
.L89:
	.loc 1 523 0
	movzwl	-32(%ebp), %eax
	movzwl	%ax, %eax
	movl	%eax, -16(%ebp)
.LVL204:
	.loc 1 524 0
	movl	8(%ebp), %eax
.LVL205:
	movl	(%eax), %eax
	movl	-16(%ebp), %edx
	movl	%edx, 4(%esp)
	movl	%eax, (%esp)
	call	iget
.LVL206:
	jmp	.L92
.LVL207:
.L88:
	.loc 1 514 0
	addl	$16, -12(%ebp)
.L85:
	.loc 1 514 0 is_stmt 0 discriminator 1
	movl	8(%ebp), %eax
	movl	24(%eax), %eax
	cmpl	-12(%ebp), %eax
	ja	.L91
	.loc 1 528 0 is_stmt 1
	movl	$0, %eax
.L92:
	.loc 1 529 0
	leave
.LCFI59:
	.cfi_restore 5
	.cfi_def_cfa 4, 4
	ret
	.cfi_endproc
.LFE19:
	.size	dirlookup, .-dirlookup
	.section	.rodata
.LC13:
	.string	"dirlink"
	.text
	.globl	dirlink
	.type	dirlink, @function
dirlink:
.LFB20:
	.loc 1 534 0
	.cfi_startproc
.LVL208:
	pushl	%ebp
.LCFI60:
	.cfi_def_cfa_offset 8
	.cfi_offset 5, -8
	movl	%esp, %ebp
.LCFI61:
	.cfi_def_cfa_register 5
	subl	$56, %esp
	.loc 1 540 0
	movl	$0, 8(%esp)
	movl	12(%ebp), %eax
	movl	%eax, 4(%esp)
	movl	8(%ebp), %eax
	movl	%eax, (%esp)
	call	dirlookup
.LVL209:
	movl	%eax, -16(%ebp)
.LVL210:
	cmpl	$0, -16(%ebp)
	je	.L94
	.loc 1 541 0
	movl	-16(%ebp), %eax
	movl	%eax, (%esp)
	call	iput
.LVL211:
	.loc 1 542 0
	movl	$-1, %eax
	jmp	.L102
.LVL212:
.L94:
	.loc 1 546 0
	movl	$0, -12(%ebp)
.LVL213:
	jmp	.L96
.LVL214:
.L100:
	.loc 1 547 0
	movl	-12(%ebp), %eax
	movl	$16, 12(%esp)
	movl	%eax, 8(%esp)
	leal	-32(%ebp), %eax
	movl	%eax, 4(%esp)
	movl	8(%ebp), %eax
	movl	%eax, (%esp)
	call	readi
.LVL215:
	cmpl	$16, %eax
	je	.L97
	.loc 1 548 0
	movl	$.LC12, (%esp)
	call	panic
.LVL216:
.L97:
	.loc 1 549 0
	movzwl	-32(%ebp), %eax
	testw	%ax, %ax
	jne	.L98
	.loc 1 550 0
	jmp	.L99
.L98:
	.loc 1 546 0
	movl	-12(%ebp), %eax
	addl	$16, %eax
	movl	%eax, -12(%ebp)
.LVL217:
.L96:
	.loc 1 546 0 is_stmt 0 discriminator 1
	movl	-12(%ebp), %edx
	movl	8(%ebp), %eax
	movl	24(%eax), %eax
	cmpl	%eax, %edx
	jb	.L100
.L99:
	.loc 1 553 0 is_stmt 1
	movl	$14, 8(%esp)
	movl	12(%ebp), %eax
	movl	%eax, 4(%esp)
	leal	-32(%ebp), %eax
	addl	$2, %eax
	movl	%eax, (%esp)
	call	strncpy
.LVL218:
	.loc 1 554 0
	movl	16(%ebp), %eax
	movw	%ax, -32(%ebp)
	.loc 1 555 0
	movl	-12(%ebp), %eax
	movl	$16, 12(%esp)
	movl	%eax, 8(%esp)
	leal	-32(%ebp), %eax
	movl	%eax, 4(%esp)
	movl	8(%ebp), %eax
	movl	%eax, (%esp)
	call	writei
.LVL219:
	cmpl	$16, %eax
	je	.L101
	.loc 1 556 0
	movl	$.LC13, (%esp)
	call	panic
.LVL220:
.L101:
	.loc 1 558 0
	movl	$0, %eax
.LVL221:
.L102:
	.loc 1 559 0
	leave
.LCFI62:
	.cfi_restore 5
	.cfi_def_cfa 4, 4
	ret
	.cfi_endproc
.LFE20:
	.size	dirlink, .-dirlink
	.type	skipelem, @function
skipelem:
.LFB21:
	.loc 1 578 0
	.cfi_startproc
.LVL222:
	pushl	%ebp
.LCFI63:
	.cfi_def_cfa_offset 8
	.cfi_offset 5, -8
	movl	%esp, %ebp
.LCFI64:
	.cfi_def_cfa_register 5
	subl	$40, %esp
	.loc 1 582 0
	jmp	.L104
.L105:
	.loc 1 583 0
	addl	$1, 8(%ebp)
.LVL223:
.L104:
	.loc 1 582 0 discriminator 1
	movl	8(%ebp), %eax
	movzbl	(%eax), %eax
	cmpb	$47, %al
	je	.L105
	.loc 1 584 0
	movl	8(%ebp), %eax
	movzbl	(%eax), %eax
	testb	%al, %al
	jne	.L106
	.loc 1 585 0
	movl	$0, %eax
	jmp	.L107
.L106:
	.loc 1 586 0
	movl	8(%ebp), %eax
	movl	%eax, -12(%ebp)
.LVL224:
	.loc 1 587 0
	jmp	.L108
.LVL225:
.L110:
	.loc 1 588 0
	addl	$1, 8(%ebp)
.LVL226:
.L108:
	.loc 1 587 0 discriminator 1
	movl	8(%ebp), %eax
	movzbl	(%eax), %eax
	cmpb	$47, %al
	je	.L109
	.loc 1 587 0 is_stmt 0 discriminator 2
	movl	8(%ebp), %eax
	movzbl	(%eax), %eax
	testb	%al, %al
	jne	.L110
.L109:
	.loc 1 589 0 is_stmt 1
	movl	8(%ebp), %edx
	movl	-12(%ebp), %eax
	subl	%eax, %edx
	movl	%edx, %eax
	movl	%eax, -16(%ebp)
.LVL227:
	.loc 1 590 0
	cmpl	$13, -16(%ebp)
	jle	.L111
	.loc 1 591 0
	movl	$14, 8(%esp)
	movl	-12(%ebp), %eax
.LVL228:
	movl	%eax, 4(%esp)
	movl	12(%ebp), %eax
	movl	%eax, (%esp)
	call	memmove
.LVL229:
	.loc 1 596 0
	jmp	.L113
.LVL230:
.L111:
	.loc 1 593 0
	movl	-16(%ebp), %eax
.LVL231:
	movl	%eax, 8(%esp)
	movl	-12(%ebp), %eax
	movl	%eax, 4(%esp)
	movl	12(%ebp), %eax
	movl	%eax, (%esp)
	call	memmove
.LVL232:
	.loc 1 594 0
	movl	-16(%ebp), %edx
	movl	12(%ebp), %eax
	addl	%edx, %eax
	movb	$0, (%eax)
	.loc 1 596 0
	jmp	.L113
.L114:
	.loc 1 597 0
	addl	$1, 8(%ebp)
.LVL233:
.L113:
	.loc 1 596 0 discriminator 1
	movl	8(%ebp), %eax
	movzbl	(%eax), %eax
	cmpb	$47, %al
	je	.L114
	.loc 1 598 0
	movl	8(%ebp), %eax
.LVL234:
.L107:
	.loc 1 599 0
	leave
.LCFI65:
	.cfi_restore 5
	.cfi_def_cfa 4, 4
	ret
	.cfi_endproc
.LFE21:
	.size	skipelem, .-skipelem
	.type	namex, @function
namex:
.LFB22:
	.loc 1 607 0
	.cfi_startproc
.LVL235:
	pushl	%ebp
.LCFI66:
	.cfi_def_cfa_offset 8
	.cfi_offset 5, -8
	movl	%esp, %ebp
.LCFI67:
	.cfi_def_cfa_register 5
	subl	$40, %esp
	.loc 1 610 0
	movl	8(%ebp), %eax
	movzbl	(%eax), %eax
	cmpb	$47, %al
	jne	.L116
	.loc 1 611 0
	movl	$1, 4(%esp)
	movl	$1, (%esp)
	call	iget
.LVL236:
	movl	%eax, -12(%ebp)
.LVL237:
	.loc 1 615 0
	jmp	.L118
.LVL238:
.L116:
	.loc 1 613 0
	movl	%gs:4, %eax
	movl	104(%eax), %eax
	movl	%eax, (%esp)
	call	idup
.LVL239:
	movl	%eax, -12(%ebp)
.LVL240:
	.loc 1 615 0
	jmp	.L118
.LVL241:
.L123:
	.loc 1 616 0
	movl	-12(%ebp), %eax
.LVL242:
	movl	%eax, (%esp)
	call	ilock
.LVL243:
	.loc 1 617 0
	movl	-12(%ebp), %eax
	movzwl	16(%eax), %eax
	cmpw	$1, %ax
	je	.L119
	.loc 1 618 0
	movl	-12(%ebp), %eax
	movl	%eax, (%esp)
	call	iunlockput
.LVL244:
	.loc 1 619 0
	movl	$0, %eax
	jmp	.L120
.L119:
	.loc 1 621 0
	cmpl	$0, 12(%ebp)
	je	.L121
	.loc 1 621 0 is_stmt 0 discriminator 1
	movl	8(%ebp), %eax
	movzbl	(%eax), %eax
	testb	%al, %al
	jne	.L121
	.loc 1 623 0 is_stmt 1
	movl	-12(%ebp), %eax
	movl	%eax, (%esp)
	call	iunlock
.LVL245:
	.loc 1 624 0
	movl	-12(%ebp), %eax
	jmp	.L120
.L121:
	.loc 1 626 0
	movl	$0, 8(%esp)
	movl	16(%ebp), %eax
	movl	%eax, 4(%esp)
	movl	-12(%ebp), %eax
	movl	%eax, (%esp)
	call	dirlookup
.LVL246:
	movl	%eax, -16(%ebp)
.LVL247:
	cmpl	$0, -16(%ebp)
	jne	.L122
	.loc 1 627 0
	movl	-12(%ebp), %eax
.LVL248:
	movl	%eax, (%esp)
	call	iunlockput
.LVL249:
	.loc 1 628 0
	movl	$0, %eax
	jmp	.L120
.LVL250:
.L122:
	.loc 1 630 0
	movl	-12(%ebp), %eax
.LVL251:
	movl	%eax, (%esp)
	call	iunlockput
.LVL252:
	.loc 1 631 0
	movl	-16(%ebp), %eax
	movl	%eax, -12(%ebp)
.LVL253:
.L118:
	.loc 1 615 0 discriminator 1
	movl	16(%ebp), %eax
	movl	%eax, 4(%esp)
	movl	8(%ebp), %eax
	movl	%eax, (%esp)
	call	skipelem
.LVL254:
	movl	%eax, 8(%ebp)
.LVL255:
	cmpl	$0, 8(%ebp)
	jne	.L123
	.loc 1 633 0
	cmpl	$0, 12(%ebp)
	je	.L124
	.loc 1 634 0
	movl	-12(%ebp), %eax
.LVL256:
	movl	%eax, (%esp)
	call	iput
.LVL257:
	.loc 1 635 0
	movl	$0, %eax
	jmp	.L120
.LVL258:
.L124:
	.loc 1 637 0
	movl	-12(%ebp), %eax
.LVL259:
.L120:
	.loc 1 638 0
	leave
.LCFI68:
	.cfi_restore 5
	.cfi_def_cfa 4, 4
	ret
	.cfi_endproc
.LFE22:
	.size	namex, .-namex
	.globl	namei
	.type	namei, @function
namei:
.LFB23:
	.loc 1 642 0
	.cfi_startproc
.LVL260:
	pushl	%ebp
.LCFI69:
	.cfi_def_cfa_offset 8
	.cfi_offset 5, -8
	movl	%esp, %ebp
.LCFI70:
	.cfi_def_cfa_register 5
	subl	$40, %esp
	.loc 1 644 0
	leal	-22(%ebp), %eax
	movl	%eax, 8(%esp)
	movl	$0, 4(%esp)
	movl	8(%ebp), %eax
	movl	%eax, (%esp)
	call	namex
.LVL261:
	.loc 1 645 0
	leave
.LCFI71:
	.cfi_restore 5
	.cfi_def_cfa 4, 4
	ret
	.cfi_endproc
.LFE23:
	.size	namei, .-namei
	.globl	nameiparent
	.type	nameiparent, @function
nameiparent:
.LFB24:
	.loc 1 649 0
	.cfi_startproc
.LVL262:
	pushl	%ebp
.LCFI72:
	.cfi_def_cfa_offset 8
	.cfi_offset 5, -8
	movl	%esp, %ebp
.LCFI73:
	.cfi_def_cfa_register 5
	subl	$24, %esp
	.loc 1 650 0
	movl	12(%ebp), %eax
	movl	%eax, 8(%esp)
	movl	$1, 4(%esp)
	movl	8(%ebp), %eax
	movl	%eax, (%esp)
	call	namex
.LVL263:
	.loc 1 651 0
	leave
.LCFI74:
	.cfi_restore 5
	.cfi_def_cfa 4, 4
	ret
	.cfi_endproc
.LFE24:
	.size	nameiparent, .-nameiparent
.Letext0:
	.file 2 "types.h"
	.file 3 "stat.h"
	.file 4 "mmu.h"
	.file 5 "proc.h"
	.file 6 "file.h"
	.file 7 "spinlock.h"
	.file 8 "fs.h"
	.file 9 "buf.h"
	.file 10 "defs.h"
	.section	.note.GNU-stack,"",@progbits
