	.file	"ide.c"
	.text
.Ltext0:
	.type	inb, @function
inb:
.LFB2:
	.file 1 "x86.h"
	.loc 1 5 0
	.cfi_startproc
.LVL0:
	pushl	%ebp
.LCFI0:
	.cfi_def_cfa_offset 8
	.cfi_offset 5, -8
	movl	%esp, %ebp
.LCFI1:
	.cfi_def_cfa_register 5
	subl	$20, %esp
	movl	8(%ebp), %eax
	movw	%ax, -20(%ebp)
	.loc 1 8 0
	movzwl	-20(%ebp), %eax
	movl	%eax, %edx
#APP
# 8 "x86.h" 1
	in %dx,%al
# 0 "" 2
#NO_APP
	movb	%al, -1(%ebp)
.LVL1:
	.loc 1 9 0
	movzbl	-1(%ebp), %eax
	.loc 1 10 0
	leave
.LCFI2:
	.cfi_restore 5
	.cfi_def_cfa 4, 4
	ret
	.cfi_endproc
.LFE2:
	.size	inb, .-inb
	.type	insl, @function
insl:
.LFB3:
	.loc 1 14 0
	.cfi_startproc
.LVL2:
	pushl	%ebp
.LCFI3:
	.cfi_def_cfa_offset 8
	.cfi_offset 5, -8
	movl	%esp, %ebp
.LCFI4:
	.cfi_def_cfa_register 5
	pushl	%edi
	pushl	%ebx
	.cfi_offset 7, -12
	.cfi_offset 3, -16
	.loc 1 15 0
	movl	8(%ebp), %edx
	movl	12(%ebp), %ecx
	movl	16(%ebp), %eax
	movl	%ecx, %ebx
	movl	%ebx, %edi
	movl	%eax, %ecx
#APP
# 15 "x86.h" 1
	cld; rep insl
# 0 "" 2
.LVL3:
#NO_APP
	movl	%ecx, %eax
	movl	%edi, %ebx
	movl	%ebx, 12(%ebp)
	movl	%eax, 16(%ebp)
.LVL4:
	.loc 1 19 0
	popl	%ebx
	.cfi_restore 3
.LVL5:
	popl	%edi
	.cfi_restore 7
.LVL6:
	popl	%ebp
.LCFI5:
	.cfi_restore 5
	.cfi_def_cfa 4, 4
	ret
	.cfi_endproc
.LFE3:
	.size	insl, .-insl
	.type	outb, @function
outb:
.LFB4:
	.loc 1 23 0
	.cfi_startproc
.LVL7:
	pushl	%ebp
.LCFI6:
	.cfi_def_cfa_offset 8
	.cfi_offset 5, -8
	movl	%esp, %ebp
.LCFI7:
	.cfi_def_cfa_register 5
	subl	$8, %esp
	movl	8(%ebp), %edx
	movl	12(%ebp), %eax
	movw	%dx, -4(%ebp)
	movb	%al, -8(%ebp)
	.loc 1 24 0
	movzbl	-8(%ebp), %eax
	movzwl	-4(%ebp), %edx
#APP
# 24 "x86.h" 1
	out %al,%dx
# 0 "" 2
	.loc 1 25 0
#NO_APP
	leave
.LCFI8:
	.cfi_restore 5
	.cfi_def_cfa 4, 4
	ret
	.cfi_endproc
.LFE4:
	.size	outb, .-outb
	.type	outsl, @function
outsl:
.LFB6:
	.loc 1 35 0
	.cfi_startproc
.LVL8:
	pushl	%ebp
.LCFI9:
	.cfi_def_cfa_offset 8
	.cfi_offset 5, -8
	movl	%esp, %ebp
.LCFI10:
	.cfi_def_cfa_register 5
	pushl	%esi
	pushl	%ebx
	.cfi_offset 6, -12
	.cfi_offset 3, -16
	.loc 1 36 0
	movl	8(%ebp), %edx
	movl	12(%ebp), %ecx
	movl	16(%ebp), %eax
	movl	%ecx, %ebx
	movl	%ebx, %esi
	movl	%eax, %ecx
#APP
# 36 "x86.h" 1
	cld; rep outsl
# 0 "" 2
.LVL9:
#NO_APP
	movl	%ecx, %eax
	movl	%esi, %ebx
	movl	%ebx, 12(%ebp)
	movl	%eax, 16(%ebp)
.LVL10:
	.loc 1 40 0
	popl	%ebx
	.cfi_restore 3
.LVL11:
	popl	%esi
	.cfi_restore 6
.LVL12:
	popl	%ebp
.LCFI11:
	.cfi_restore 5
	.cfi_def_cfa 4, 4
	ret
	.cfi_endproc
.LFE6:
	.size	outsl, .-outsl
	.local	idelock
	.comm	idelock,52,32
	.local	idequeue
	.comm	idequeue,4,4
	.local	havedisk1
	.comm	havedisk1,4,4
	.type	idewait, @function
idewait:
.LFB20:
	.file 2 "ide.c"
	.loc 2 37 0
	.cfi_startproc
.LVL13:
	pushl	%ebp
.LCFI12:
	.cfi_def_cfa_offset 8
	.cfi_offset 5, -8
	movl	%esp, %ebp
.LCFI13:
	.cfi_def_cfa_register 5
	subl	$20, %esp
	.loc 2 40 0
	nop
.L7:
	.loc 2 40 0 is_stmt 0 discriminator 1
	movl	$503, (%esp)
	call	inb
.LVL14:
	movzbl	%al, %eax
	movl	%eax, -4(%ebp)
.LVL15:
	movl	-4(%ebp), %eax
	andl	$192, %eax
.LVL16:
	cmpl	$64, %eax
	jne	.L7
	.loc 2 42 0 is_stmt 1
	cmpl	$0, 8(%ebp)
	je	.L8
	.loc 2 42 0 is_stmt 0 discriminator 1
	movl	-4(%ebp), %eax
	andl	$33, %eax
	testl	%eax, %eax
	je	.L8
	.loc 2 43 0 is_stmt 1
	movl	$-1, %eax
	jmp	.L9
.L8:
	.loc 2 44 0
	movl	$0, %eax
.L9:
	.loc 2 45 0
	leave
.LCFI14:
	.cfi_restore 5
	.cfi_def_cfa 4, 4
	ret
	.cfi_endproc
.LFE20:
	.size	idewait, .-idewait
	.section	.rodata
.LC0:
	.string	"ide"
	.text
	.globl	ideinit
	.type	ideinit, @function
ideinit:
.LFB21:
	.loc 2 49 0
	.cfi_startproc
	pushl	%ebp
.LCFI15:
	.cfi_def_cfa_offset 8
	.cfi_offset 5, -8
	movl	%esp, %ebp
.LCFI16:
	.cfi_def_cfa_register 5
	subl	$40, %esp
	.loc 2 52 0
	movl	$.LC0, 4(%esp)
	movl	$idelock, (%esp)
	call	initlock
.LVL17:
	.loc 2 53 0
	movl	$14, (%esp)
	call	picenable
.LVL18:
	.loc 2 54 0
	movl	ncpu, %eax
	subl	$1, %eax
	movl	%eax, 4(%esp)
	movl	$14, (%esp)
	call	ioapicenable
.LVL19:
	.loc 2 55 0
	movl	$0, (%esp)
	call	idewait
.LVL20:
	.loc 2 58 0
	movl	$240, 4(%esp)
	movl	$502, (%esp)
	call	outb
.LVL21:
	.loc 2 59 0
	movl	$0, -12(%ebp)
.LVL22:
	jmp	.L11
.L14:
	.loc 2 60 0
	movl	$503, (%esp)
	call	inb
.LVL23:
	testb	%al, %al
	je	.L12
	.loc 2 61 0
	movl	$1, havedisk1
	.loc 2 62 0
	jmp	.L13
.L12:
	.loc 2 59 0
	addl	$1, -12(%ebp)
.L11:
	.loc 2 59 0 is_stmt 0 discriminator 1
	cmpl	$999, -12(%ebp)
	jle	.L14
.L13:
	.loc 2 67 0 is_stmt 1
	movl	$224, 4(%esp)
	movl	$502, (%esp)
	call	outb
.LVL24:
	.loc 2 68 0
	leave
.LCFI17:
	.cfi_restore 5
	.cfi_def_cfa 4, 4
.LVL25:
	ret
	.cfi_endproc
.LFE21:
	.size	ideinit, .-ideinit
	.section	.rodata
.LC1:
	.string	"idestart"
.LC2:
	.string	"incorrect blockno"
	.text
	.type	idestart, @function
idestart:
.LFB22:
	.loc 2 73 0
	.cfi_startproc
.LVL26:
	pushl	%ebp
.LCFI18:
	.cfi_def_cfa_offset 8
	.cfi_offset 5, -8
	movl	%esp, %ebp
.LCFI19:
	.cfi_def_cfa_register 5
	subl	$40, %esp
	.loc 2 74 0
	cmpl	$0, 8(%ebp)
	jne	.L16
	.loc 2 75 0
	movl	$.LC1, (%esp)
	call	panic
.LVL27:
.L16:
	.loc 2 76 0
	movl	8(%ebp), %eax
	movl	8(%eax), %eax
	cmpl	$999, %eax
	jbe	.L17
	.loc 2 77 0
	movl	$.LC2, (%esp)
	call	panic
.LVL28:
.L17:
	.loc 2 78 0
	movl	$1, -12(%ebp)
.LVL29:
	.loc 2 79 0
	movl	8(%ebp), %eax
	movl	8(%eax), %edx
	movl	-12(%ebp), %eax
	imull	%edx, %eax
	movl	%eax, -16(%ebp)
.LVL30:
	.loc 2 81 0
	cmpl	$7, -12(%ebp)
	jle	.L18
	.loc 2 81 0 is_stmt 0 discriminator 1
	movl	$.LC1, (%esp)
	call	panic
.LVL31:
.L18:
	.loc 2 83 0 is_stmt 1
	movl	$0, (%esp)
	call	idewait
.LVL32:
	.loc 2 84 0
	movl	$0, 4(%esp)
	movl	$1014, (%esp)
	call	outb
.LVL33:
	.loc 2 85 0
	movl	-12(%ebp), %eax
	movzbl	%al, %eax
	movl	%eax, 4(%esp)
	movl	$498, (%esp)
	call	outb
.LVL34:
	.loc 2 86 0
	movl	-16(%ebp), %eax
	movzbl	%al, %eax
	movl	%eax, 4(%esp)
	movl	$499, (%esp)
	call	outb
.LVL35:
	.loc 2 87 0
	movl	-16(%ebp), %eax
	sarl	$8, %eax
	movzbl	%al, %eax
	movl	%eax, 4(%esp)
	movl	$500, (%esp)
	call	outb
.LVL36:
	.loc 2 88 0
	movl	-16(%ebp), %eax
	sarl	$16, %eax
	movzbl	%al, %eax
	movl	%eax, 4(%esp)
	movl	$501, (%esp)
	call	outb
.LVL37:
	.loc 2 89 0
	movl	8(%ebp), %eax
	movl	4(%eax), %eax
	andl	$1, %eax
	sall	$4, %eax
	movl	%eax, %edx
	movl	-16(%ebp), %eax
	sarl	$24, %eax
	andl	$15, %eax
	orl	%edx, %eax
	orl	$-32, %eax
	movzbl	%al, %eax
	movl	%eax, 4(%esp)
	movl	$502, (%esp)
	call	outb
.LVL38:
	.loc 2 90 0
	movl	8(%ebp), %eax
	movl	(%eax), %eax
	andl	$4, %eax
	testl	%eax, %eax
	je	.L19
	.loc 2 91 0
	movl	$48, 4(%esp)
	movl	$503, (%esp)
	call	outb
.LVL39:
	.loc 2 92 0
	movl	8(%ebp), %eax
	addl	$24, %eax
	movl	$128, 8(%esp)
	movl	%eax, 4(%esp)
	movl	$496, (%esp)
	call	outsl
.LVL40:
	jmp	.L15
.L19:
	.loc 2 94 0
	movl	$32, 4(%esp)
	movl	$503, (%esp)
	call	outb
.LVL41:
.L15:
	.loc 2 96 0
	leave
.LCFI20:
	.cfi_restore 5
	.cfi_def_cfa 4, 4
	ret
	.cfi_endproc
.LFE22:
	.size	idestart, .-idestart
	.globl	ideintr
	.type	ideintr, @function
ideintr:
.LFB23:
	.loc 2 101 0
	.cfi_startproc
	pushl	%ebp
.LCFI21:
	.cfi_def_cfa_offset 8
	.cfi_offset 5, -8
	movl	%esp, %ebp
.LCFI22:
	.cfi_def_cfa_register 5
	subl	$40, %esp
	.loc 2 105 0
	movl	$idelock, (%esp)
	call	acquire
.LVL42:
	.loc 2 106 0
	movl	idequeue, %eax
	movl	%eax, -12(%ebp)
.LVL43:
	cmpl	$0, -12(%ebp)
	jne	.L22
	.loc 2 107 0
	movl	$idelock, (%esp)
	call	release
.LVL44:
	.loc 2 109 0
	jmp	.L21
.LVL45:
.L22:
	.loc 2 111 0
	movl	-12(%ebp), %eax
.LVL46:
	movl	20(%eax), %eax
	movl	%eax, idequeue
.LVL47:
	.loc 2 114 0
	movl	-12(%ebp), %eax
	movl	(%eax), %eax
	andl	$4, %eax
	testl	%eax, %eax
	jne	.L24
	.loc 2 114 0 is_stmt 0 discriminator 1
	movl	$1, (%esp)
	call	idewait
.LVL48:
	testl	%eax, %eax
	js	.L24
	.loc 2 115 0 is_stmt 1
	movl	-12(%ebp), %eax
	addl	$24, %eax
	movl	$128, 8(%esp)
	movl	%eax, 4(%esp)
	movl	$496, (%esp)
	call	insl
.LVL49:
.L24:
	.loc 2 118 0
	movl	-12(%ebp), %eax
	movl	(%eax), %eax
	orl	$2, %eax
	movl	%eax, %edx
	movl	-12(%ebp), %eax
	movl	%edx, (%eax)
	.loc 2 119 0
	movl	-12(%ebp), %eax
	movl	(%eax), %eax
	andl	$-5, %eax
	movl	%eax, %edx
	movl	-12(%ebp), %eax
	movl	%edx, (%eax)
	.loc 2 120 0
	movl	-12(%ebp), %eax
	movl	%eax, (%esp)
	call	wakeup
.LVL50:
	.loc 2 123 0
	movl	idequeue, %eax
	testl	%eax, %eax
	je	.L25
	.loc 2 124 0
	movl	idequeue, %eax
	movl	%eax, (%esp)
	call	idestart
.LVL51:
.L25:
	.loc 2 126 0
	movl	$idelock, (%esp)
	call	release
.LVL52:
.L21:
	.loc 2 127 0
	leave
.LCFI23:
	.cfi_restore 5
	.cfi_def_cfa 4, 4
.LVL53:
	ret
	.cfi_endproc
.LFE23:
	.size	ideintr, .-ideintr
	.section	.rodata
.LC3:
	.string	"iderw: buf not busy"
.LC4:
	.string	"iderw: nothing to do"
.LC5:
	.string	"iderw: ide disk 1 not present"
	.text
	.globl	iderw
	.type	iderw, @function
iderw:
.LFB24:
	.loc 2 135 0
	.cfi_startproc
.LVL54:
	pushl	%ebp
.LCFI24:
	.cfi_def_cfa_offset 8
	.cfi_offset 5, -8
	movl	%esp, %ebp
.LCFI25:
	.cfi_def_cfa_register 5
	subl	$40, %esp
	.loc 2 138 0
	movl	8(%ebp), %eax
	movl	(%eax), %eax
	andl	$1, %eax
	testl	%eax, %eax
	jne	.L27
	.loc 2 139 0
	movl	$.LC3, (%esp)
	call	panic
.LVL55:
.L27:
	.loc 2 140 0
	movl	8(%ebp), %eax
	movl	(%eax), %eax
	andl	$6, %eax
	cmpl	$2, %eax
	jne	.L28
	.loc 2 141 0
	movl	$.LC4, (%esp)
	call	panic
.LVL56:
.L28:
	.loc 2 142 0
	movl	8(%ebp), %eax
	movl	4(%eax), %eax
	testl	%eax, %eax
	je	.L29
	.loc 2 142 0 is_stmt 0 discriminator 1
	movl	havedisk1, %eax
	testl	%eax, %eax
	jne	.L29
	.loc 2 143 0 is_stmt 1
	movl	$.LC5, (%esp)
	call	panic
.LVL57:
.L29:
	.loc 2 145 0
	movl	$idelock, (%esp)
	call	acquire
.LVL58:
	.loc 2 148 0
	movl	8(%ebp), %eax
	movl	$0, 20(%eax)
	.loc 2 149 0
	movl	$idequeue, -12(%ebp)
.LVL59:
	jmp	.L30
.L31:
	.loc 2 149 0 is_stmt 0 discriminator 2
	movl	-12(%ebp), %eax
	movl	(%eax), %eax
	addl	$20, %eax
	movl	%eax, -12(%ebp)
.LVL60:
.L30:
	.loc 2 149 0 discriminator 1
	movl	-12(%ebp), %eax
	movl	(%eax), %eax
	testl	%eax, %eax
	jne	.L31
	.loc 2 151 0 is_stmt 1
	movl	-12(%ebp), %eax
	movl	8(%ebp), %edx
	movl	%edx, (%eax)
	.loc 2 154 0
	movl	idequeue, %eax
	cmpl	8(%ebp), %eax
	jne	.L32
	.loc 2 155 0
	movl	8(%ebp), %eax
	movl	%eax, (%esp)
	call	idestart
.LVL61:
	.loc 2 158 0
	jmp	.L33
.L32:
	jmp	.L33
.L34:
	.loc 2 159 0
	movl	$idelock, 4(%esp)
	movl	8(%ebp), %eax
	movl	%eax, (%esp)
	call	sleep
.LVL62:
.L33:
	.loc 2 158 0 discriminator 1
	movl	8(%ebp), %eax
	movl	(%eax), %eax
	andl	$6, %eax
	cmpl	$2, %eax
	jne	.L34
	.loc 2 162 0
	movl	$idelock, (%esp)
	call	release
.LVL63:
	.loc 2 163 0
	leave
.LCFI26:
	.cfi_restore 5
	.cfi_def_cfa 4, 4
	ret
	.cfi_endproc
.LFE24:
	.size	iderw, .-iderw
.Letext0:
	.file 3 "types.h"
	.file 4 "mmu.h"
	.file 5 "proc.h"
	.file 6 "spinlock.h"
	.file 7 "buf.h"
	.file 8 "defs.h"
	.section	.note.GNU-stack,"",@progbits
