	.file	"ioapic.c"
	.text
.Ltext0:
	.comm	ioapic,4,4
	.type	ioapicread, @function
ioapicread:
.LFB0:
	.file 1 "ioapic.c"
	.loc 1 36 0
	.cfi_startproc
.LVL0:
	pushl	%ebp
.LCFI0:
	.cfi_def_cfa_offset 8
	.cfi_offset 5, -8
	movl	%esp, %ebp
.LCFI1:
	.cfi_def_cfa_register 5
	.loc 1 37 0
	movl	ioapic, %eax
	movl	8(%ebp), %edx
	movl	%edx, (%eax)
	.loc 1 38 0
	movl	ioapic, %eax
	movl	16(%eax), %eax
	.loc 1 39 0
	popl	%ebp
.LCFI2:
	.cfi_restore 5
	.cfi_def_cfa 4, 4
	ret
	.cfi_endproc
.LFE0:
	.size	ioapicread, .-ioapicread
	.type	ioapicwrite, @function
ioapicwrite:
.LFB1:
	.loc 1 43 0
	.cfi_startproc
.LVL1:
	pushl	%ebp
.LCFI3:
	.cfi_def_cfa_offset 8
	.cfi_offset 5, -8
	movl	%esp, %ebp
.LCFI4:
	.cfi_def_cfa_register 5
	.loc 1 44 0
	movl	ioapic, %eax
	movl	8(%ebp), %edx
	movl	%edx, (%eax)
	.loc 1 45 0
	movl	ioapic, %eax
	movl	12(%ebp), %edx
	movl	%edx, 16(%eax)
	.loc 1 46 0
	popl	%ebp
.LCFI5:
	.cfi_restore 5
	.cfi_def_cfa 4, 4
	ret
	.cfi_endproc
.LFE1:
	.size	ioapicwrite, .-ioapicwrite
	.section	.rodata
	.align 4
.LC0:
	.string	"ioapicinit: id isn't equal to ioapicid; not a MP\n"
	.text
	.globl	ioapicinit
	.type	ioapicinit, @function
ioapicinit:
.LFB2:
	.loc 1 50 0
	.cfi_startproc
	pushl	%ebp
.LCFI6:
	.cfi_def_cfa_offset 8
	.cfi_offset 5, -8
	movl	%esp, %ebp
.LCFI7:
	.cfi_def_cfa_register 5
	subl	$40, %esp
	.loc 1 53 0
	movl	ismp, %eax
	testl	%eax, %eax
	jne	.L5
	.loc 1 54 0
	jmp	.L4
.L5:
	.loc 1 56 0
	movl	$-20971520, ioapic
	.loc 1 57 0
	movl	$1, (%esp)
	call	ioapicread
.LVL2:
	shrl	$16, %eax
	andl	$255, %eax
	movl	%eax, -16(%ebp)
.LVL3:
	.loc 1 58 0
	movl	$0, (%esp)
	call	ioapicread
.LVL4:
	shrl	$24, %eax
	movl	%eax, -20(%ebp)
.LVL5:
	.loc 1 59 0
	movzbl	ioapicid, %eax
.LVL6:
	movzbl	%al, %eax
	cmpl	-20(%ebp), %eax
	je	.L7
	.loc 1 60 0
	movl	$.LC0, (%esp)
	call	cprintf
.LVL7:
.L7:
	.loc 1 64 0
	movl	$0, -12(%ebp)
.LVL8:
	jmp	.L8
.LVL9:
.L9:
	.loc 1 65 0 discriminator 2
	movl	-12(%ebp), %eax
.LVL10:
	addl	$32, %eax
	orl	$65536, %eax
	movl	-12(%ebp), %edx
	addl	$8, %edx
	addl	%edx, %edx
	movl	%eax, 4(%esp)
	movl	%edx, (%esp)
	call	ioapicwrite
.LVL11:
	.loc 1 66 0 discriminator 2
	movl	-12(%ebp), %eax
	addl	$8, %eax
	addl	%eax, %eax
	addl	$1, %eax
	movl	$0, 4(%esp)
	movl	%eax, (%esp)
	call	ioapicwrite
.LVL12:
	.loc 1 64 0 discriminator 2
	addl	$1, -12(%ebp)
.L8:
	.loc 1 64 0 is_stmt 0 discriminator 1
	movl	-12(%ebp), %eax
	cmpl	-16(%ebp), %eax
	jle	.L9
.LVL13:
.L4:
	.loc 1 68 0 is_stmt 1
	leave
.LCFI8:
	.cfi_restore 5
	.cfi_def_cfa 4, 4
	ret
	.cfi_endproc
.LFE2:
	.size	ioapicinit, .-ioapicinit
	.globl	ioapicenable
	.type	ioapicenable, @function
ioapicenable:
.LFB3:
	.loc 1 72 0
	.cfi_startproc
.LVL14:
	pushl	%ebp
.LCFI9:
	.cfi_def_cfa_offset 8
	.cfi_offset 5, -8
	movl	%esp, %ebp
.LCFI10:
	.cfi_def_cfa_register 5
	subl	$8, %esp
	.loc 1 73 0
	movl	ismp, %eax
	testl	%eax, %eax
	jne	.L11
	.loc 1 74 0
	jmp	.L10
.L11:
	.loc 1 79 0
	movl	8(%ebp), %eax
	addl	$32, %eax
	movl	8(%ebp), %edx
	addl	$8, %edx
	addl	%edx, %edx
	movl	%eax, 4(%esp)
	movl	%edx, (%esp)
	call	ioapicwrite
.LVL15:
	.loc 1 80 0
	movl	12(%ebp), %eax
	sall	$24, %eax
	movl	8(%ebp), %edx
	addl	$8, %edx
	addl	%edx, %edx
	addl	$1, %edx
	movl	%eax, 4(%esp)
	movl	%edx, (%esp)
	call	ioapicwrite
.LVL16:
.L10:
	.loc 1 81 0
	leave
.LCFI11:
	.cfi_restore 5
	.cfi_def_cfa 4, 4
	ret
	.cfi_endproc
.LFE3:
	.size	ioapicenable, .-ioapicenable
.Letext0:
	.file 2 "types.h"
	.file 3 "defs.h"
	.section	.note.GNU-stack,"",@progbits
