	.file	"main.c"
	.text
.Ltext0:
	.type	v2p, @function
v2p:
.LFB0:
	.file 1 "memlayout.h"
	.loc 1 13 0
	.cfi_startproc
.LVL0:
	pushl	%ebp
.LCFI0:
	.cfi_def_cfa_offset 8
	.cfi_offset 5, -8
	movl	%esp, %ebp
.LCFI1:
	.cfi_def_cfa_register 5
	.loc 1 13 0
	movl	8(%ebp), %eax
	addl	$-2147483648, %eax
	popl	%ebp
.LCFI2:
	.cfi_restore 5
	.cfi_def_cfa 4, 4
	ret
	.cfi_endproc
.LFE0:
	.size	v2p, .-v2p
	.type	p2v, @function
p2v:
.LFB1:
	.loc 1 14 0
	.cfi_startproc
.LVL1:
	pushl	%ebp
.LCFI3:
	.cfi_def_cfa_offset 8
	.cfi_offset 5, -8
	movl	%esp, %ebp
.LCFI4:
	.cfi_def_cfa_register 5
	.loc 1 14 0
	movl	8(%ebp), %eax
	addl	$-2147483648, %eax
	popl	%ebp
.LCFI5:
	.cfi_restore 5
	.cfi_def_cfa 4, 4
	ret
	.cfi_endproc
.LFE1:
	.size	p2v, .-p2v
	.type	xchg, @function
xchg:
.LFB16:
	.file 2 "x86.h"
	.loc 2 122 0
	.cfi_startproc
.LVL2:
	pushl	%ebp
.LCFI6:
	.cfi_def_cfa_offset 8
	.cfi_offset 5, -8
	movl	%esp, %ebp
.LCFI7:
	.cfi_def_cfa_register 5
	subl	$16, %esp
	.loc 2 126 0
	movl	8(%ebp), %edx
	movl	12(%ebp), %eax
	movl	8(%ebp), %ecx
#APP
# 126 "x86.h" 1
	lock; xchgl (%edx), %eax
# 0 "" 2
#NO_APP
	movl	%eax, -4(%ebp)
.LVL3:
	.loc 2 130 0
	movl	-4(%ebp), %eax
	.loc 2 131 0
	leave
.LCFI8:
	.cfi_restore 5
	.cfi_def_cfa 4, 4
	ret
	.cfi_endproc
.LFE16:
	.size	xchg, .-xchg
	.section	.rodata
.LC0:
	.string	"\ncpu%d: starting xv6\n\n"
	.text
	.globl	main
	.type	main, @function
main:
.LFB20:
	.file 3 "main.c"
	.loc 3 19 0
	.cfi_startproc
	pushl	%ebp
.LCFI9:
	.cfi_def_cfa_offset 8
	.cfi_offset 5, -8
	movl	%esp, %ebp
.LCFI10:
	.cfi_def_cfa_register 5
	andl	$-16, %esp
	subl	$16, %esp
	.loc 3 20 0
	movl	$-2143289344, 4(%esp)
	movl	$end, (%esp)
	call	kinit1
.LVL4:
	.loc 3 21 0
	call	kvmalloc
.LVL5:
	.loc 3 22 0
	call	mpinit
.LVL6:
	.loc 3 23 0
	call	lapicinit
.LVL7:
	.loc 3 24 0
	call	seginit
.LVL8:
	.loc 3 25 0
	movl	%gs:0, %eax
	movzbl	(%eax), %eax
	movzbl	%al, %eax
	movl	%eax, 4(%esp)
	movl	$.LC0, (%esp)
	call	cprintf
.LVL9:
	.loc 3 26 0
	call	picinit
.LVL10:
	.loc 3 27 0
	call	ioapicinit
.LVL11:
	.loc 3 28 0
	call	consoleinit
.LVL12:
	.loc 3 29 0
	call	uartinit
.LVL13:
	.loc 3 30 0
	call	pinit
.LVL14:
	.loc 3 31 0
	call	tvinit
.LVL15:
	.loc 3 32 0
	call	binit
.LVL16:
	.loc 3 33 0
	call	fileinit
.LVL17:
	.loc 3 34 0
	call	ideinit
.LVL18:
	.loc 3 35 0
	movl	ismp, %eax
	testl	%eax, %eax
	jne	.L8
	.loc 3 36 0
	call	timerinit
.LVL19:
.L8:
	.loc 3 37 0
	call	startothers
.LVL20:
	.loc 3 38 0
	movl	$-1912602624, 4(%esp)
	movl	$-2143289344, (%esp)
	call	kinit2
.LVL21:
	.loc 3 39 0
	call	userinit
.LVL22:
	.loc 3 41 0
	call	mpmain
.LVL23:
	.cfi_endproc
.LFE20:
	.size	main, .-main
	.type	mpenter, @function
mpenter:
.LFB21:
	.loc 3 47 0
	.cfi_startproc
	pushl	%ebp
.LCFI11:
	.cfi_def_cfa_offset 8
	.cfi_offset 5, -8
	movl	%esp, %ebp
.LCFI12:
	.cfi_def_cfa_register 5
	subl	$8, %esp
	.loc 3 48 0
	call	switchkvm
.LVL24:
	.loc 3 49 0
	call	seginit
.LVL25:
	.loc 3 50 0
	call	lapicinit
.LVL26:
	.loc 3 51 0
	call	mpmain
.LVL27:
	.cfi_endproc
.LFE21:
	.size	mpenter, .-mpenter
	.section	.rodata
.LC1:
	.string	"cpu%d: starting\n"
	.text
	.type	mpmain, @function
mpmain:
.LFB22:
	.loc 3 57 0
	.cfi_startproc
	pushl	%ebp
.LCFI13:
	.cfi_def_cfa_offset 8
	.cfi_offset 5, -8
	movl	%esp, %ebp
.LCFI14:
	.cfi_def_cfa_register 5
	subl	$24, %esp
	.loc 3 58 0
	movl	%gs:0, %eax
	movzbl	(%eax), %eax
	movzbl	%al, %eax
	movl	%eax, 4(%esp)
	movl	$.LC1, (%esp)
	call	cprintf
.LVL28:
	.loc 3 59 0
	call	idtinit
.LVL29:
	.loc 3 60 0
	movl	%gs:0, %eax
	addl	$168, %eax
	movl	$1, 4(%esp)
	movl	%eax, (%esp)
	call	xchg
.LVL30:
	.loc 3 61 0
	call	scheduler
.LVL31:
	.cfi_endproc
.LFE22:
	.size	mpmain, .-mpmain
	.globl	entrypgdir
	.data
	.align 4096
	.type	entrypgdir, @object
	.size	entrypgdir, 4096
entrypgdir:
	.long	131
	.zero	2044
	.long	131
	.zero	2044
	.text
	.type	startothers, @function
startothers:
.LFB23:
	.loc 3 69 0
	.cfi_startproc
	pushl	%ebp
.LCFI15:
	.cfi_def_cfa_offset 8
	.cfi_offset 5, -8
	movl	%esp, %ebp
.LCFI16:
	.cfi_def_cfa_register 5
	pushl	%ebx
	subl	$36, %esp
	.cfi_offset 3, -12
	.loc 3 78 0
	movl	$28672, (%esp)
	call	p2v
.LVL32:
	movl	%eax, -16(%ebp)
.LVL33:
	.loc 3 79 0
	movl	$_binary_entryother_size, %eax
.LVL34:
	movl	%eax, 8(%esp)
	movl	$_binary_entryother_start, 4(%esp)
	movl	-16(%ebp), %eax
	movl	%eax, (%esp)
	call	memmove
.LVL35:
	.loc 3 81 0
	movl	$cpus, -12(%ebp)
.LVL36:
	jmp	.L12
.L16:
	.loc 3 82 0
	call	cpunum
.LVL37:
	imull	$188, %eax, %eax
	addl	$cpus, %eax
	cmpl	-12(%ebp), %eax
	jne	.L13
	.loc 3 83 0
	jmp	.L14
.L13:
	.loc 3 88 0
	call	kalloc
.LVL38:
	movl	%eax, -20(%ebp)
.LVL39:
	.loc 3 89 0
	movl	-16(%ebp), %eax
.LVL40:
	subl	$4, %eax
	movl	-20(%ebp), %edx
	addl	$4096, %edx
	movl	%edx, (%eax)
	.loc 3 90 0
	movl	-16(%ebp), %eax
	subl	$8, %eax
	movl	$mpenter, (%eax)
	.loc 3 91 0
	movl	-16(%ebp), %eax
	leal	-12(%eax), %ebx
	movl	$entrypgdir, (%esp)
	call	v2p
.LVL41:
	movl	%eax, (%ebx)
	.loc 3 93 0
	movl	-16(%ebp), %eax
	movl	%eax, (%esp)
	call	v2p
.LVL42:
	movl	-12(%ebp), %edx
	movzbl	(%edx), %edx
	movzbl	%dl, %edx
	movl	%eax, 4(%esp)
	movl	%edx, (%esp)
	call	lapicstartap
.LVL43:
	.loc 3 96 0
	nop
.L15:
	.loc 3 96 0 is_stmt 0 discriminator 1
	movl	-12(%ebp), %eax
	movl	168(%eax), %eax
	testl	%eax, %eax
	je	.L15
.LVL44:
.L14:
	.loc 3 81 0 is_stmt 1
	addl	$188, -12(%ebp)
.L12:
	.loc 3 81 0 is_stmt 0 discriminator 1
	movl	ncpu, %eax
	imull	$188, %eax, %eax
	addl	$cpus, %eax
	cmpl	-12(%ebp), %eax
	ja	.L16
	.loc 3 99 0 is_stmt 1
	addl	$36, %esp
	popl	%ebx
	.cfi_restore 3
	popl	%ebp
.LCFI17:
	.cfi_restore 5
	.cfi_def_cfa 4, 4
.LVL45:
	ret
	.cfi_endproc
.LFE23:
	.size	startothers, .-startothers
.Letext0:
	.file 4 "types.h"
	.file 5 "mmu.h"
	.file 6 "proc.h"
	.file 7 "defs.h"
	.section	.note.GNU-stack,"",@progbits
