	.file	"mp.c"
	.text
.Ltext0:
	.type	p2v, @function
p2v:
.LFB1:
	.file 1 "memlayout.h"
	.loc 1 14 0
	.cfi_startproc
.LVL0:
	pushl	%ebp
.LCFI0:
	.cfi_def_cfa_offset 8
	.cfi_offset 5, -8
	movl	%esp, %ebp
.LCFI1:
	.cfi_def_cfa_register 5
	.loc 1 14 0
	movl	8(%ebp), %eax
	addl	$-2147483648, %eax
	popl	%ebp
.LCFI2:
	.cfi_restore 5
	.cfi_def_cfa 4, 4
	ret
	.cfi_endproc
.LFE1:
	.size	p2v, .-p2v
	.type	inb, @function
inb:
.LFB2:
	.file 2 "x86.h"
	.loc 2 5 0
	.cfi_startproc
.LVL1:
	pushl	%ebp
.LCFI3:
	.cfi_def_cfa_offset 8
	.cfi_offset 5, -8
	movl	%esp, %ebp
.LCFI4:
	.cfi_def_cfa_register 5
	subl	$20, %esp
	movl	8(%ebp), %eax
	movw	%ax, -20(%ebp)
	.loc 2 8 0
	movzwl	-20(%ebp), %eax
	movl	%eax, %edx
#APP
# 8 "x86.h" 1
	in %dx,%al
# 0 "" 2
#NO_APP
	movb	%al, -1(%ebp)
.LVL2:
	.loc 2 9 0
	movzbl	-1(%ebp), %eax
	.loc 2 10 0
	leave
.LCFI5:
	.cfi_restore 5
	.cfi_def_cfa 4, 4
	ret
	.cfi_endproc
.LFE2:
	.size	inb, .-inb
	.type	outb, @function
outb:
.LFB4:
	.loc 2 23 0
	.cfi_startproc
.LVL3:
	pushl	%ebp
.LCFI6:
	.cfi_def_cfa_offset 8
	.cfi_offset 5, -8
	movl	%esp, %ebp
.LCFI7:
	.cfi_def_cfa_register 5
	subl	$8, %esp
	movl	8(%ebp), %edx
	movl	12(%ebp), %eax
	movw	%dx, -4(%ebp)
	movb	%al, -8(%ebp)
	.loc 2 24 0
	movzbl	-8(%ebp), %eax
	movzwl	-4(%ebp), %edx
#APP
# 24 "x86.h" 1
	out %al,%dx
# 0 "" 2
	.loc 2 25 0
#NO_APP
	leave
.LCFI8:
	.cfi_restore 5
	.cfi_def_cfa 4, 4
	ret
	.cfi_endproc
.LFE4:
	.size	outb, .-outb
	.comm	cpus,1504,32
	.local	bcpu
	.comm	bcpu,4,4
	.comm	ismp,4,4
	.comm	ncpu,4,4
	.comm	ioapicid,1,1
	.globl	mpbcpu
	.type	mpbcpu, @function
mpbcpu:
.LFB20:
	.file 3 "mp.c"
	.loc 3 22 0
	.cfi_startproc
	pushl	%ebp
.LCFI9:
	.cfi_def_cfa_offset 8
	.cfi_offset 5, -8
	movl	%esp, %ebp
.LCFI10:
	.cfi_def_cfa_register 5
	.loc 3 23 0
	movl	bcpu, %eax
	movl	%eax, %edx
	movl	$cpus, %eax
	subl	%eax, %edx
	movl	%edx, %eax
	sarl	$2, %eax
	imull	$1736263375, %eax, %eax
	.loc 3 24 0
	popl	%ebp
.LCFI11:
	.cfi_restore 5
	.cfi_def_cfa 4, 4
	ret
	.cfi_endproc
.LFE20:
	.size	mpbcpu, .-mpbcpu
	.type	sum, @function
sum:
.LFB21:
	.loc 3 28 0
	.cfi_startproc
.LVL4:
	pushl	%ebp
.LCFI12:
	.cfi_def_cfa_offset 8
	.cfi_offset 5, -8
	movl	%esp, %ebp
.LCFI13:
	.cfi_def_cfa_register 5
	subl	$16, %esp
	.loc 3 31 0
	movl	$0, -8(%ebp)
.LVL5:
	.loc 3 32 0
	movl	$0, -4(%ebp)
.LVL6:
	jmp	.L9
.LVL7:
.L10:
	.loc 3 33 0 discriminator 2
	movl	-4(%ebp), %edx
	movl	8(%ebp), %eax
.LVL8:
	addl	%edx, %eax
	movzbl	(%eax), %eax
	movzbl	%al, %eax
	addl	%eax, -8(%ebp)
.LVL9:
	.loc 3 32 0 discriminator 2
	addl	$1, -4(%ebp)
.LVL10:
.L9:
	.loc 3 32 0 is_stmt 0 discriminator 1
	movl	-4(%ebp), %eax
	cmpl	12(%ebp), %eax
	jl	.L10
	.loc 3 34 0 is_stmt 1
	movl	-8(%ebp), %eax
	.loc 3 35 0
	leave
.LCFI14:
	.cfi_restore 5
	.cfi_def_cfa 4, 4
	ret
	.cfi_endproc
.LFE21:
	.size	sum, .-sum
	.section	.rodata
.LC0:
	.string	"_MP_"
	.text
	.type	mpsearch1, @function
mpsearch1:
.LFB22:
	.loc 3 40 0
	.cfi_startproc
.LVL11:
	pushl	%ebp
.LCFI15:
	.cfi_def_cfa_offset 8
	.cfi_offset 5, -8
	movl	%esp, %ebp
.LCFI16:
	.cfi_def_cfa_register 5
	subl	$40, %esp
	.loc 3 43 0
	movl	8(%ebp), %eax
	movl	%eax, (%esp)
	call	p2v
.LVL12:
	movl	%eax, -16(%ebp)
.LVL13:
	.loc 3 44 0
	movl	12(%ebp), %edx
	movl	-16(%ebp), %eax
	addl	%edx, %eax
.LVL14:
	movl	%eax, -20(%ebp)
.LVL15:
	.loc 3 45 0
	movl	-16(%ebp), %eax
.LVL16:
	movl	%eax, -12(%ebp)
.LVL17:
	jmp	.L13
.LVL18:
.L16:
	.loc 3 46 0
	movl	$4, 8(%esp)
	movl	$.LC0, 4(%esp)
	movl	-12(%ebp), %eax
.LVL19:
	movl	%eax, (%esp)
	call	memcmp
.LVL20:
	testl	%eax, %eax
	jne	.L14
	.loc 3 46 0 is_stmt 0 discriminator 1
	movl	$16, 4(%esp)
	movl	-12(%ebp), %eax
	movl	%eax, (%esp)
	call	sum
.LVL21:
	testb	%al, %al
	jne	.L14
	.loc 3 47 0 is_stmt 1
	movl	-12(%ebp), %eax
	jmp	.L15
.L14:
	.loc 3 45 0
	addl	$16, -12(%ebp)
.L13:
	.loc 3 45 0 is_stmt 0 discriminator 1
	movl	-12(%ebp), %eax
	cmpl	-20(%ebp), %eax
	jb	.L16
	.loc 3 48 0 is_stmt 1
	movl	$0, %eax
.L15:
	.loc 3 49 0
	leave
.LCFI17:
	.cfi_restore 5
	.cfi_def_cfa 4, 4
	ret
	.cfi_endproc
.LFE22:
	.size	mpsearch1, .-mpsearch1
	.type	mpsearch, @function
mpsearch:
.LFB23:
	.loc 3 58 0
	.cfi_startproc
	pushl	%ebp
.LCFI18:
	.cfi_def_cfa_offset 8
	.cfi_offset 5, -8
	movl	%esp, %ebp
.LCFI19:
	.cfi_def_cfa_register 5
	subl	$40, %esp
	.loc 3 63 0
	movl	$-2147482624, -12(%ebp)
.LVL22:
	.loc 3 64 0
	movl	-12(%ebp), %eax
	addl	$15, %eax
	movzbl	(%eax), %eax
	movzbl	%al, %eax
	sall	$8, %eax
	movl	%eax, %edx
	movl	-12(%ebp), %eax
	addl	$14, %eax
	movzbl	(%eax), %eax
	movzbl	%al, %eax
	orl	%edx, %eax
	sall	$4, %eax
	movl	%eax, -16(%ebp)
.LVL23:
	cmpl	$0, -16(%ebp)
	je	.L18
	.loc 3 65 0
	movl	$1024, 4(%esp)
	movl	-16(%ebp), %eax
	movl	%eax, (%esp)
	call	mpsearch1
.LVL24:
	movl	%eax, -20(%ebp)
.LVL25:
	cmpl	$0, -20(%ebp)
	je	.L19
	.loc 3 66 0
	movl	-20(%ebp), %eax
	jmp	.L20
.LVL26:
.L18:
	.loc 3 68 0
	movl	-12(%ebp), %eax
.LVL27:
	addl	$20, %eax
	movzbl	(%eax), %eax
	movzbl	%al, %eax
	sall	$8, %eax
	movl	%eax, %edx
	movl	-12(%ebp), %eax
	addl	$19, %eax
	movzbl	(%eax), %eax
	movzbl	%al, %eax
	orl	%edx, %eax
	sall	$10, %eax
	movl	%eax, -16(%ebp)
.LVL28:
	.loc 3 69 0
	movl	-16(%ebp), %eax
	subl	$1024, %eax
.LVL29:
	movl	$1024, 4(%esp)
	movl	%eax, (%esp)
	call	mpsearch1
.LVL30:
	movl	%eax, -20(%ebp)
.LVL31:
	cmpl	$0, -20(%ebp)
	je	.L19
	.loc 3 70 0
	movl	-20(%ebp), %eax
	jmp	.L20
.L19:
	.loc 3 72 0
	movl	$65536, 4(%esp)
	movl	$983040, (%esp)
	call	mpsearch1
.LVL32:
.L20:
	.loc 3 73 0
	leave
.LCFI20:
	.cfi_restore 5
	.cfi_def_cfa 4, 4
.LVL33:
	ret
	.cfi_endproc
.LFE23:
	.size	mpsearch, .-mpsearch
	.section	.rodata
.LC1:
	.string	"PCMP"
	.text
	.type	mpconfig, @function
mpconfig:
.LFB24:
	.loc 3 82 0
	.cfi_startproc
.LVL34:
	pushl	%ebp
.LCFI21:
	.cfi_def_cfa_offset 8
	.cfi_offset 5, -8
	movl	%esp, %ebp
.LCFI22:
	.cfi_def_cfa_register 5
	subl	$40, %esp
	.loc 3 86 0
	call	mpsearch
.LVL35:
	movl	%eax, -12(%ebp)
.LVL36:
	cmpl	$0, -12(%ebp)
	je	.L22
	.loc 3 86 0 is_stmt 0 discriminator 1
	movl	-12(%ebp), %eax
	movl	4(%eax), %eax
.LVL37:
	testl	%eax, %eax
	jne	.L23
.L22:
	.loc 3 87 0 is_stmt 1
	movl	$0, %eax
	jmp	.L24
.L23:
	.loc 3 88 0
	movl	-12(%ebp), %eax
	movl	4(%eax), %eax
	movl	%eax, (%esp)
	call	p2v
.LVL38:
	movl	%eax, -16(%ebp)
.LVL39:
	.loc 3 89 0
	movl	$4, 8(%esp)
	movl	$.LC1, 4(%esp)
	movl	-16(%ebp), %eax
	movl	%eax, (%esp)
	call	memcmp
.LVL40:
	testl	%eax, %eax
	je	.L25
	.loc 3 90 0
	movl	$0, %eax
	jmp	.L24
.L25:
	.loc 3 91 0
	movl	-16(%ebp), %eax
	movzbl	6(%eax), %eax
	cmpb	$1, %al
	je	.L26
	.loc 3 91 0 is_stmt 0 discriminator 1
	movl	-16(%ebp), %eax
	movzbl	6(%eax), %eax
	cmpb	$4, %al
	je	.L26
	.loc 3 92 0 is_stmt 1
	movl	$0, %eax
	jmp	.L24
.L26:
	.loc 3 93 0
	movl	-16(%ebp), %eax
	movzwl	4(%eax), %eax
	movzwl	%ax, %eax
	movl	%eax, 4(%esp)
	movl	-16(%ebp), %eax
	movl	%eax, (%esp)
	call	sum
.LVL41:
	testb	%al, %al
	je	.L27
	.loc 3 94 0
	movl	$0, %eax
	jmp	.L24
.L27:
	.loc 3 95 0
	movl	8(%ebp), %eax
	movl	-12(%ebp), %edx
	movl	%edx, (%eax)
	.loc 3 96 0
	movl	-16(%ebp), %eax
.LVL42:
.L24:
	.loc 3 97 0
	leave
.LCFI23:
	.cfi_restore 5
	.cfi_def_cfa 4, 4
	ret
	.cfi_endproc
.LFE24:
	.size	mpconfig, .-mpconfig
	.section	.rodata
.LC2:
	.string	"mpinit: ncpu=%d apicid=%d\n"
	.align 4
.LC3:
	.string	"mpinit: unknown config type %x\n"
	.text
	.globl	mpinit
	.type	mpinit, @function
mpinit:
.LFB25:
	.loc 3 101 0
	.cfi_startproc
	pushl	%ebp
.LCFI24:
	.cfi_def_cfa_offset 8
	.cfi_offset 5, -8
	movl	%esp, %ebp
.LCFI25:
	.cfi_def_cfa_register 5
	subl	$56, %esp
	.loc 3 108 0
	movl	$cpus, bcpu
	.loc 3 109 0
	leal	-32(%ebp), %eax
	movl	%eax, (%esp)
	call	mpconfig
.LVL43:
	movl	%eax, -16(%ebp)
.LVL44:
	cmpl	$0, -16(%ebp)
	jne	.L29
	.loc 3 110 0
	jmp	.L28
.L29:
	.loc 3 111 0
	movl	$1, ismp
	.loc 3 112 0
	movl	-16(%ebp), %eax
.LVL45:
	movl	36(%eax), %eax
	movl	%eax, lapic
	.loc 3 113 0
	movl	-16(%ebp), %eax
	addl	$44, %eax
	movl	%eax, -12(%ebp)
.LVL46:
	movl	-16(%ebp), %eax
.LVL47:
	movzwl	4(%eax), %eax
	movzwl	%ax, %edx
	movl	-16(%ebp), %eax
	addl	%edx, %eax
	movl	%eax, -20(%ebp)
.LVL48:
	jmp	.L31
.LVL49:
.L39:
	.loc 3 114 0
	movl	-12(%ebp), %eax
.LVL50:
	movzbl	(%eax), %eax
	movzbl	%al, %eax
	cmpl	$4, %eax
	ja	.L32
	movl	.L34(,%eax,4), %eax
	jmp	*%eax
	.section	.rodata
	.align 4
	.align 4
.L34:
	.long	.L33
	.long	.L35
	.long	.L36
	.long	.L35
	.long	.L35
	.text
.L33:
	.loc 3 116 0
	movl	-12(%ebp), %eax
	movl	%eax, -24(%ebp)
.LVL51:
	.loc 3 117 0
	movl	-24(%ebp), %eax
	movzbl	1(%eax), %eax
.LVL52:
	movzbl	%al, %edx
	movl	ncpu, %eax
	cmpl	%eax, %edx
	je	.L37
	.loc 3 118 0
	movl	-24(%ebp), %eax
	movzbl	1(%eax), %eax
	movzbl	%al, %edx
	movl	ncpu, %eax
	movl	%edx, 8(%esp)
	movl	%eax, 4(%esp)
	movl	$.LC2, (%esp)
	call	cprintf
.LVL53:
	.loc 3 119 0
	movl	$0, ismp
.L37:
	.loc 3 121 0
	movl	-24(%ebp), %eax
	movzbl	3(%eax), %eax
	movzbl	%al, %eax
	andl	$2, %eax
	testl	%eax, %eax
	je	.L38
	.loc 3 122 0
	movl	ncpu, %eax
	imull	$188, %eax, %eax
	addl	$cpus, %eax
	movl	%eax, bcpu
.L38:
	.loc 3 123 0
	movl	ncpu, %edx
	movl	ncpu, %eax
	imull	$188, %edx, %edx
	addl	$cpus, %edx
	movb	%al, (%edx)
	.loc 3 124 0
	movl	ncpu, %eax
	addl	$1, %eax
	movl	%eax, ncpu
	.loc 3 125 0
	addl	$20, -12(%ebp)
.LVL54:
	.loc 3 126 0
	jmp	.L31
.LVL55:
.L36:
	.loc 3 128 0
	movl	-12(%ebp), %eax
	movl	%eax, -28(%ebp)
.LVL56:
	.loc 3 129 0
	movl	-28(%ebp), %eax
	movzbl	1(%eax), %eax
.LVL57:
	movb	%al, ioapicid
	.loc 3 130 0
	addl	$8, -12(%ebp)
.LVL58:
	.loc 3 131 0
	jmp	.L31
.LVL59:
.L35:
	.loc 3 135 0
	addl	$8, -12(%ebp)
.LVL60:
	.loc 3 136 0
	jmp	.L31
.L32:
	.loc 3 138 0
	movl	-12(%ebp), %eax
	movzbl	(%eax), %eax
	movzbl	%al, %eax
	movl	%eax, 4(%esp)
	movl	$.LC3, (%esp)
	call	cprintf
.LVL61:
	.loc 3 139 0
	movl	$0, ismp
.L31:
	.loc 3 113 0 discriminator 1
	movl	-12(%ebp), %eax
	cmpl	-20(%ebp), %eax
	jb	.L39
	.loc 3 142 0
	movl	ismp, %eax
	testl	%eax, %eax
	jne	.L40
	.loc 3 144 0
	movl	$1, ncpu
	.loc 3 145 0
	movl	$0, lapic
	.loc 3 146 0
	movb	$0, ioapicid
	.loc 3 147 0
	jmp	.L28
.L40:
	.loc 3 150 0
	movl	-32(%ebp), %eax
	movzbl	12(%eax), %eax
	testb	%al, %al
	je	.L28
	.loc 3 153 0
	movl	$112, 4(%esp)
	movl	$34, (%esp)
	call	outb
.LVL62:
	.loc 3 154 0
	movl	$35, (%esp)
	call	inb
.LVL63:
	orl	$1, %eax
	movzbl	%al, %eax
	movl	%eax, 4(%esp)
	movl	$35, (%esp)
	call	outb
.LVL64:
.L28:
	.loc 3 156 0
	leave
.LCFI26:
	.cfi_restore 5
	.cfi_def_cfa 4, 4
.LVL65:
	ret
	.cfi_endproc
.LFE25:
	.size	mpinit, .-mpinit
.Letext0:
	.file 4 "types.h"
	.file 5 "mp.h"
	.file 6 "mmu.h"
	.file 7 "proc.h"
	.file 8 "defs.h"
	.section	.note.GNU-stack,"",@progbits
