	.file	"picirq.c"
	.text
.Ltext0:
	.type	outb, @function
outb:
.LFB2:
	.file 1 "x86.h"
	.loc 1 23 0
	.cfi_startproc
.LVL0:
	pushl	%ebp
.LCFI0:
	.cfi_def_cfa_offset 8
	.cfi_offset 5, -8
	movl	%esp, %ebp
.LCFI1:
	.cfi_def_cfa_register 5
	subl	$8, %esp
	movl	8(%ebp), %edx
	movl	12(%ebp), %eax
	movw	%dx, -4(%ebp)
	movb	%al, -8(%ebp)
	.loc 1 24 0
	movzbl	-8(%ebp), %eax
	movzwl	-4(%ebp), %edx
#APP
# 24 "x86.h" 1
	out %al,%dx
# 0 "" 2
	.loc 1 25 0
#NO_APP
	leave
.LCFI2:
	.cfi_restore 5
	.cfi_def_cfa 4, 4
	ret
	.cfi_endproc
.LFE2:
	.size	outb, .-outb
	.data
	.align 2
	.type	irqmask, @object
	.size	irqmask, 2
irqmask:
	.value	-5
	.text
	.type	picsetmask, @function
picsetmask:
.LFB18:
	.file 2 "picirq.c"
	.loc 2 19 0
	.cfi_startproc
.LVL1:
	pushl	%ebp
.LCFI3:
	.cfi_def_cfa_offset 8
	.cfi_offset 5, -8
	movl	%esp, %ebp
.LCFI4:
	.cfi_def_cfa_register 5
	subl	$12, %esp
	movl	8(%ebp), %eax
	movw	%ax, -4(%ebp)
	.loc 2 20 0
	movzwl	-4(%ebp), %eax
	movw	%ax, irqmask
	.loc 2 21 0
	movzwl	-4(%ebp), %eax
	movzbl	%al, %eax
	movl	%eax, 4(%esp)
	movl	$33, (%esp)
	call	outb
.LVL2:
	.loc 2 22 0
	movzwl	-4(%ebp), %eax
	shrw	$8, %ax
	movzbl	%al, %eax
	movl	%eax, 4(%esp)
	movl	$161, (%esp)
	call	outb
.LVL3:
	.loc 2 23 0
	leave
.LCFI5:
	.cfi_restore 5
	.cfi_def_cfa 4, 4
	ret
	.cfi_endproc
.LFE18:
	.size	picsetmask, .-picsetmask
	.globl	picenable
	.type	picenable, @function
picenable:
.LFB19:
	.loc 2 27 0
	.cfi_startproc
.LVL4:
	pushl	%ebp
.LCFI6:
	.cfi_def_cfa_offset 8
	.cfi_offset 5, -8
	movl	%esp, %ebp
.LCFI7:
	.cfi_def_cfa_register 5
	subl	$4, %esp
	.loc 2 28 0
	movl	8(%ebp), %eax
	movl	$1, %edx
	movl	%eax, %ecx
	sall	%cl, %edx
	movl	%edx, %eax
	notl	%eax
	movl	%eax, %edx
	movzwl	irqmask, %eax
	andl	%edx, %eax
	movzwl	%ax, %eax
	movl	%eax, (%esp)
	call	picsetmask
.LVL5:
	.loc 2 29 0
	leave
.LCFI8:
	.cfi_restore 5
	.cfi_def_cfa 4, 4
	ret
	.cfi_endproc
.LFE19:
	.size	picenable, .-picenable
	.globl	picinit
	.type	picinit, @function
picinit:
.LFB20:
	.loc 2 34 0
	.cfi_startproc
	pushl	%ebp
.LCFI9:
	.cfi_def_cfa_offset 8
	.cfi_offset 5, -8
	movl	%esp, %ebp
.LCFI10:
	.cfi_def_cfa_register 5
	subl	$8, %esp
	.loc 2 36 0
	movl	$255, 4(%esp)
	movl	$33, (%esp)
	call	outb
.LVL6:
	.loc 2 37 0
	movl	$255, 4(%esp)
	movl	$161, (%esp)
	call	outb
.LVL7:
	.loc 2 45 0
	movl	$17, 4(%esp)
	movl	$32, (%esp)
	call	outb
.LVL8:
	.loc 2 48 0
	movl	$32, 4(%esp)
	movl	$33, (%esp)
	call	outb
.LVL9:
	.loc 2 52 0
	movl	$4, 4(%esp)
	movl	$33, (%esp)
	call	outb
.LVL10:
	.loc 2 62 0
	movl	$3, 4(%esp)
	movl	$33, (%esp)
	call	outb
.LVL11:
	.loc 2 65 0
	movl	$17, 4(%esp)
	movl	$160, (%esp)
	call	outb
.LVL12:
	.loc 2 66 0
	movl	$40, 4(%esp)
	movl	$161, (%esp)
	call	outb
.LVL13:
	.loc 2 67 0
	movl	$2, 4(%esp)
	movl	$161, (%esp)
	call	outb
.LVL14:
	.loc 2 70 0
	movl	$3, 4(%esp)
	movl	$161, (%esp)
	call	outb
.LVL15:
	.loc 2 76 0
	movl	$104, 4(%esp)
	movl	$32, (%esp)
	call	outb
.LVL16:
	.loc 2 77 0
	movl	$10, 4(%esp)
	movl	$32, (%esp)
	call	outb
.LVL17:
	.loc 2 79 0
	movl	$104, 4(%esp)
	movl	$160, (%esp)
	call	outb
.LVL18:
	.loc 2 80 0
	movl	$10, 4(%esp)
	movl	$160, (%esp)
	call	outb
.LVL19:
	.loc 2 82 0
	movzwl	irqmask, %eax
	cmpw	$-1, %ax
	je	.L4
	.loc 2 83 0
	movzwl	irqmask, %eax
	movzwl	%ax, %eax
	movl	%eax, (%esp)
	call	picsetmask
.LVL20:
.L4:
	.loc 2 84 0
	leave
.LCFI11:
	.cfi_restore 5
	.cfi_def_cfa 4, 4
	ret
	.cfi_endproc
.LFE20:
	.size	picinit, .-picinit
.Letext0:
	.file 3 "types.h"
	.section	.note.GNU-stack,"",@progbits
