	.file	"pipe.c"
	.text
.Ltext0:
	.section	.rodata
.LC0:
	.string	"pipe"
	.text
	.globl	pipealloc
	.type	pipealloc, @function
pipealloc:
.LFB0:
	.file 1 "pipe.c"
	.loc 1 23 0
	.cfi_startproc
.LVL0:
	pushl	%ebp
.LCFI0:
	.cfi_def_cfa_offset 8
	.cfi_offset 5, -8
	movl	%esp, %ebp
.LCFI1:
	.cfi_def_cfa_register 5
	subl	$40, %esp
	.loc 1 26 0
	movl	$0, -12(%ebp)
.LVL1:
	.loc 1 27 0
	movl	12(%ebp), %eax
	movl	$0, (%eax)
	movl	12(%ebp), %eax
	movl	(%eax), %edx
	movl	8(%ebp), %eax
	movl	%edx, (%eax)
	.loc 1 28 0
	call	filealloc
.LVL2:
	movl	8(%ebp), %edx
	movl	%eax, (%edx)
	movl	8(%ebp), %eax
	movl	(%eax), %eax
	testl	%eax, %eax
	je	.L2
	.loc 1 28 0 is_stmt 0 discriminator 1
	call	filealloc
.LVL3:
	movl	12(%ebp), %edx
	movl	%eax, (%edx)
	movl	12(%ebp), %eax
	movl	(%eax), %eax
	testl	%eax, %eax
	je	.L2
	.loc 1 30 0 is_stmt 1
	call	kalloc
.LVL4:
	movl	%eax, -12(%ebp)
.LVL5:
	cmpl	$0, -12(%ebp)
	jne	.L3
	.loc 1 31 0
	jmp	.L2
.L3:
	.loc 1 32 0
	movl	-12(%ebp), %eax
.LVL6:
	movl	$1, 572(%eax)
	.loc 1 33 0
	movl	-12(%ebp), %eax
	movl	$1, 576(%eax)
	.loc 1 34 0
	movl	-12(%ebp), %eax
	movl	$0, 568(%eax)
	.loc 1 35 0
	movl	-12(%ebp), %eax
	movl	$0, 564(%eax)
	.loc 1 36 0
	movl	-12(%ebp), %eax
	movl	$.LC0, 4(%esp)
	movl	%eax, (%esp)
	call	initlock
.LVL7:
	.loc 1 37 0
	movl	8(%ebp), %eax
	movl	(%eax), %eax
	movl	$1, (%eax)
	.loc 1 38 0
	movl	8(%ebp), %eax
	movl	(%eax), %eax
	movb	$1, 8(%eax)
	.loc 1 39 0
	movl	8(%ebp), %eax
	movl	(%eax), %eax
	movb	$0, 9(%eax)
	.loc 1 40 0
	movl	8(%ebp), %eax
	movl	(%eax), %eax
	movl	-12(%ebp), %edx
	movl	%edx, 12(%eax)
	.loc 1 41 0
	movl	12(%ebp), %eax
	movl	(%eax), %eax
	movl	$1, (%eax)
	.loc 1 42 0
	movl	12(%ebp), %eax
	movl	(%eax), %eax
	movb	$0, 8(%eax)
	.loc 1 43 0
	movl	12(%ebp), %eax
	movl	(%eax), %eax
	movb	$1, 9(%eax)
	.loc 1 44 0
	movl	12(%ebp), %eax
	movl	(%eax), %eax
	movl	-12(%ebp), %edx
	movl	%edx, 12(%eax)
	.loc 1 45 0
	movl	$0, %eax
	jmp	.L4
.L2:
	.loc 1 49 0
	cmpl	$0, -12(%ebp)
	je	.L5
	.loc 1 50 0
	movl	-12(%ebp), %eax
	movl	%eax, (%esp)
	call	kfree
.LVL8:
.L5:
	.loc 1 51 0
	movl	8(%ebp), %eax
	movl	(%eax), %eax
	testl	%eax, %eax
	je	.L6
	.loc 1 52 0
	movl	8(%ebp), %eax
	movl	(%eax), %eax
	movl	%eax, (%esp)
	call	fileclose
.LVL9:
.L6:
	.loc 1 53 0
	movl	12(%ebp), %eax
	movl	(%eax), %eax
	testl	%eax, %eax
	je	.L7
	.loc 1 54 0
	movl	12(%ebp), %eax
	movl	(%eax), %eax
	movl	%eax, (%esp)
	call	fileclose
.LVL10:
.L7:
	.loc 1 55 0
	movl	$-1, %eax
.L4:
	.loc 1 56 0
	leave
.LCFI2:
	.cfi_restore 5
	.cfi_def_cfa 4, 4
	ret
	.cfi_endproc
.LFE0:
	.size	pipealloc, .-pipealloc
	.globl	pipeclose
	.type	pipeclose, @function
pipeclose:
.LFB1:
	.loc 1 60 0
	.cfi_startproc
.LVL11:
	pushl	%ebp
.LCFI3:
	.cfi_def_cfa_offset 8
	.cfi_offset 5, -8
	movl	%esp, %ebp
.LCFI4:
	.cfi_def_cfa_register 5
	subl	$24, %esp
	.loc 1 61 0
	movl	8(%ebp), %eax
	movl	%eax, (%esp)
	call	acquire
.LVL12:
	.loc 1 62 0
	cmpl	$0, 12(%ebp)
	je	.L9
	.loc 1 63 0
	movl	8(%ebp), %eax
	movl	$0, 576(%eax)
	.loc 1 64 0
	movl	8(%ebp), %eax
	addl	$564, %eax
	movl	%eax, (%esp)
	call	wakeup
.LVL13:
	jmp	.L10
.L9:
	.loc 1 66 0
	movl	8(%ebp), %eax
	movl	$0, 572(%eax)
	.loc 1 67 0
	movl	8(%ebp), %eax
	addl	$568, %eax
	movl	%eax, (%esp)
	call	wakeup
.LVL14:
.L10:
	.loc 1 69 0
	movl	8(%ebp), %eax
	movl	572(%eax), %eax
	testl	%eax, %eax
	jne	.L11
	.loc 1 69 0 is_stmt 0 discriminator 1
	movl	8(%ebp), %eax
	movl	576(%eax), %eax
	testl	%eax, %eax
	jne	.L11
	.loc 1 70 0 is_stmt 1
	movl	8(%ebp), %eax
	movl	%eax, (%esp)
	call	release
.LVL15:
	.loc 1 71 0
	movl	8(%ebp), %eax
	movl	%eax, (%esp)
	call	kfree
.LVL16:
	jmp	.L8
.L11:
	.loc 1 73 0
	movl	8(%ebp), %eax
	movl	%eax, (%esp)
	call	release
.LVL17:
.L8:
	.loc 1 74 0
	leave
.LCFI5:
	.cfi_restore 5
	.cfi_def_cfa 4, 4
	ret
	.cfi_endproc
.LFE1:
	.size	pipeclose, .-pipeclose
	.globl	pipewrite
	.type	pipewrite, @function
pipewrite:
.LFB2:
	.loc 1 79 0
	.cfi_startproc
.LVL18:
	pushl	%ebp
.LCFI6:
	.cfi_def_cfa_offset 8
	.cfi_offset 5, -8
	movl	%esp, %ebp
.LCFI7:
	.cfi_def_cfa_register 5
	subl	$40, %esp
	.loc 1 82 0
	movl	8(%ebp), %eax
	movl	%eax, (%esp)
	call	acquire
.LVL19:
	.loc 1 83 0
	movl	$0, -12(%ebp)
.LVL20:
	jmp	.L14
.LVL21:
.L20:
	.loc 1 84 0
	jmp	.L15
.LVL22:
.L19:
	.loc 1 85 0
	movl	8(%ebp), %eax
	movl	572(%eax), %eax
	testl	%eax, %eax
	je	.L16
	.loc 1 85 0 is_stmt 0 discriminator 1
	movl	%gs:4, %eax
	movl	36(%eax), %eax
	testl	%eax, %eax
	je	.L17
.L16:
	.loc 1 86 0 is_stmt 1
	movl	8(%ebp), %eax
	movl	%eax, (%esp)
	call	release
.LVL23:
	.loc 1 87 0
	movl	$-1, %eax
	jmp	.L18
.L17:
	.loc 1 89 0
	movl	8(%ebp), %eax
	addl	$564, %eax
	movl	%eax, (%esp)
	call	wakeup
.LVL24:
	.loc 1 90 0
	movl	8(%ebp), %eax
	movl	8(%ebp), %edx
	addl	$568, %edx
	movl	%eax, 4(%esp)
	movl	%edx, (%esp)
	call	sleep
.LVL25:
.L15:
	.loc 1 84 0 discriminator 1
	movl	8(%ebp), %eax
	movl	568(%eax), %edx
	movl	8(%ebp), %eax
	movl	564(%eax), %eax
	addl	$512, %eax
	cmpl	%eax, %edx
	je	.L19
	.loc 1 92 0
	movl	8(%ebp), %eax
	movl	568(%eax), %eax
	leal	1(%eax), %ecx
	movl	8(%ebp), %edx
	movl	%ecx, 568(%edx)
	andl	$511, %eax
	movl	%eax, %ecx
	movl	-12(%ebp), %edx
	movl	12(%ebp), %eax
	addl	%edx, %eax
	movzbl	(%eax), %edx
	movl	8(%ebp), %eax
	movb	%dl, 52(%eax,%ecx)
	.loc 1 83 0
	addl	$1, -12(%ebp)
.L14:
	.loc 1 83 0 is_stmt 0 discriminator 1
	movl	-12(%ebp), %eax
	cmpl	16(%ebp), %eax
	jl	.L20
	.loc 1 94 0 is_stmt 1
	movl	8(%ebp), %eax
	addl	$564, %eax
	movl	%eax, (%esp)
	call	wakeup
.LVL26:
	.loc 1 95 0
	movl	8(%ebp), %eax
	movl	%eax, (%esp)
	call	release
.LVL27:
	.loc 1 96 0
	movl	16(%ebp), %eax
.L18:
	.loc 1 97 0
	leave
.LCFI8:
	.cfi_restore 5
	.cfi_def_cfa 4, 4
	ret
	.cfi_endproc
.LFE2:
	.size	pipewrite, .-pipewrite
	.globl	piperead
	.type	piperead, @function
piperead:
.LFB3:
	.loc 1 101 0
	.cfi_startproc
.LVL28:
	pushl	%ebp
.LCFI9:
	.cfi_def_cfa_offset 8
	.cfi_offset 5, -8
	movl	%esp, %ebp
.LCFI10:
	.cfi_def_cfa_register 5
	pushl	%ebx
	subl	$36, %esp
	.cfi_offset 3, -12
	.loc 1 104 0
	movl	8(%ebp), %eax
	movl	%eax, (%esp)
	call	acquire
.LVL29:
	.loc 1 105 0
	jmp	.L22
.L26:
	.loc 1 106 0
	movl	%gs:4, %eax
	movl	36(%eax), %eax
	testl	%eax, %eax
	je	.L23
	.loc 1 107 0
	movl	8(%ebp), %eax
	movl	%eax, (%esp)
	call	release
.LVL30:
	.loc 1 108 0
	movl	$-1, %eax
	jmp	.L24
.L23:
	.loc 1 110 0
	movl	8(%ebp), %eax
	movl	8(%ebp), %edx
	addl	$564, %edx
	movl	%eax, 4(%esp)
	movl	%edx, (%esp)
	call	sleep
.LVL31:
.L22:
	.loc 1 105 0 discriminator 1
	movl	8(%ebp), %eax
	movl	564(%eax), %edx
	movl	8(%ebp), %eax
	movl	568(%eax), %eax
	cmpl	%eax, %edx
	jne	.L25
	.loc 1 105 0 is_stmt 0 discriminator 2
	movl	8(%ebp), %eax
	movl	576(%eax), %eax
	testl	%eax, %eax
	jne	.L26
.L25:
	.loc 1 112 0 is_stmt 1
	movl	$0, -12(%ebp)
.LVL32:
	jmp	.L27
.LVL33:
.L30:
	.loc 1 113 0
	movl	8(%ebp), %eax
.LVL34:
	movl	564(%eax), %edx
	movl	8(%ebp), %eax
	movl	568(%eax), %eax
	cmpl	%eax, %edx
	jne	.L28
	.loc 1 114 0
	jmp	.L29
.L28:
	.loc 1 115 0
	movl	-12(%ebp), %edx
	movl	12(%ebp), %eax
	leal	(%edx,%eax), %ebx
	movl	8(%ebp), %eax
	movl	564(%eax), %eax
	leal	1(%eax), %ecx
	movl	8(%ebp), %edx
	movl	%ecx, 564(%edx)
	andl	$511, %eax
	movl	%eax, %edx
	movl	8(%ebp), %eax
	movzbl	52(%eax,%edx), %eax
	movb	%al, (%ebx)
	.loc 1 112 0
	addl	$1, -12(%ebp)
.LVL35:
.L27:
	.loc 1 112 0 is_stmt 0 discriminator 1
	movl	-12(%ebp), %eax
	cmpl	16(%ebp), %eax
	jl	.L30
.L29:
	.loc 1 117 0 is_stmt 1
	movl	8(%ebp), %eax
	addl	$568, %eax
	movl	%eax, (%esp)
	call	wakeup
.LVL36:
	.loc 1 118 0
	movl	8(%ebp), %eax
	movl	%eax, (%esp)
	call	release
.LVL37:
	.loc 1 119 0
	movl	-12(%ebp), %eax
.LVL38:
.L24:
	.loc 1 120 0
	addl	$36, %esp
	popl	%ebx
	.cfi_restore 3
	popl	%ebp
.LCFI11:
	.cfi_restore 5
	.cfi_def_cfa 4, 4
	ret
	.cfi_endproc
.LFE3:
	.size	piperead, .-piperead
.Letext0:
	.file 2 "types.h"
	.file 3 "mmu.h"
	.file 4 "proc.h"
	.file 5 "file.h"
	.file 6 "spinlock.h"
	.file 7 "defs.h"
	.section	.note.GNU-stack,"",@progbits
