	.file	"printf.c"
	.text
.Ltext0:
	.type	putc, @function
putc:
.LFB0:
	.file 1 "printf.c"
	.loc 1 7 0
	.cfi_startproc
.LVL0:
	pushl	%ebp
.LCFI0:
	.cfi_def_cfa_offset 8
	.cfi_offset 5, -8
	movl	%esp, %ebp
.LCFI1:
	.cfi_def_cfa_register 5
	subl	$24, %esp
	movl	12(%ebp), %eax
	movb	%al, -12(%ebp)
	.loc 1 8 0
	movl	$1, 8(%esp)
	leal	-12(%ebp), %eax
	movl	%eax, 4(%esp)
	movl	8(%ebp), %eax
	movl	%eax, (%esp)
	call	write
.LVL1:
	.loc 1 9 0
	leave
.LCFI2:
	.cfi_restore 5
	.cfi_def_cfa 4, 4
	ret
	.cfi_endproc
.LFE0:
	.size	putc, .-putc
	.type	printint, @function
printint:
.LFB1:
	.loc 1 13 0
	.cfi_startproc
.LVL2:
	pushl	%ebp
.LCFI3:
	.cfi_def_cfa_offset 8
	.cfi_offset 5, -8
	movl	%esp, %ebp
.LCFI4:
	.cfi_def_cfa_register 5
	pushl	%esi
	pushl	%ebx
	subl	$48, %esp
	.cfi_offset 6, -12
	.cfi_offset 3, -16
	.loc 1 19 0
	movl	$0, -16(%ebp)
.LVL3:
	.loc 1 20 0
	cmpl	$0, 20(%ebp)
	je	.L3
	.loc 1 20 0 is_stmt 0 discriminator 1
	cmpl	$0, 12(%ebp)
	jns	.L3
	.loc 1 21 0 is_stmt 1
	movl	$1, -16(%ebp)
.LVL4:
	.loc 1 22 0
	movl	12(%ebp), %eax
	negl	%eax
	movl	%eax, -20(%ebp)
.LVL5:
	jmp	.L4
.LVL6:
.L3:
	.loc 1 24 0
	movl	12(%ebp), %eax
	movl	%eax, -20(%ebp)
.LVL7:
.L4:
	.loc 1 27 0
	movl	$0, -12(%ebp)
.LVL8:
.L5:
	.loc 1 29 0 discriminator 1
	movl	-12(%ebp), %ecx
	leal	1(%ecx), %eax
	movl	%eax, -12(%ebp)
.LVL9:
	movl	16(%ebp), %ebx
	movl	-20(%ebp), %eax
.LVL10:
	movl	$0, %edx
	divl	%ebx
	movl	%edx, %eax
	movzbl	digits.1030(%eax), %eax
	movb	%al, -36(%ebp,%ecx)
	.loc 1 30 0 discriminator 1
	movl	16(%ebp), %esi
	movl	-20(%ebp), %eax
	movl	$0, %edx
	divl	%esi
	movl	%eax, -20(%ebp)
.LVL11:
	cmpl	$0, -20(%ebp)
	jne	.L5
	.loc 1 31 0
	cmpl	$0, -16(%ebp)
	je	.L6
	.loc 1 32 0
	movl	-12(%ebp), %eax
.LVL12:
	leal	1(%eax), %edx
	movl	%edx, -12(%ebp)
.LVL13:
	movb	$45, -36(%ebp,%eax)
	.loc 1 34 0
	jmp	.L7
.LVL14:
.L6:
	jmp	.L7
.LVL15:
.L8:
	.loc 1 35 0
	leal	-36(%ebp), %edx
	movl	-12(%ebp), %eax
	addl	%edx, %eax
	movzbl	(%eax), %eax
	movsbl	%al, %eax
	movl	%eax, 4(%esp)
	movl	8(%ebp), %eax
	movl	%eax, (%esp)
	call	putc
.LVL16:
.L7:
	.loc 1 34 0 discriminator 1
	subl	$1, -12(%ebp)
.LVL17:
	cmpl	$0, -12(%ebp)
	jns	.L8
	.loc 1 36 0
	addl	$48, %esp
	popl	%ebx
	.cfi_restore 3
	popl	%esi
	.cfi_restore 6
	popl	%ebp
.LCFI5:
	.cfi_restore 5
	.cfi_def_cfa 4, 4
	ret
	.cfi_endproc
.LFE1:
	.size	printint, .-printint
	.section	.rodata
.LC0:
	.string	"(null)"
	.text
	.globl	printf
	.type	printf, @function
printf:
.LFB2:
	.loc 1 41 0
	.cfi_startproc
.LVL18:
	pushl	%ebp
.LCFI6:
	.cfi_def_cfa_offset 8
	.cfi_offset 5, -8
	movl	%esp, %ebp
.LCFI7:
	.cfi_def_cfa_register 5
	subl	$56, %esp
	.loc 1 46 0
	movl	$0, -20(%ebp)
.LVL19:
	.loc 1 47 0
	leal	12(%ebp), %eax
.LVL20:
	addl	$4, %eax
.LVL21:
	movl	%eax, -24(%ebp)
.LVL22:
	.loc 1 48 0
	movl	$0, -16(%ebp)
.LVL23:
	jmp	.L10
.LVL24:
.L25:
	.loc 1 49 0
	movl	12(%ebp), %edx
	movl	-16(%ebp), %eax
	addl	%edx, %eax
	movzbl	(%eax), %eax
	movsbl	%al, %eax
	andl	$255, %eax
	movl	%eax, -28(%ebp)
.LVL25:
	.loc 1 50 0
	cmpl	$0, -20(%ebp)
	jne	.L11
	.loc 1 51 0
	cmpl	$37, -28(%ebp)
	jne	.L12
	.loc 1 52 0
	movl	$37, -20(%ebp)
.LVL26:
	jmp	.L14
.L12:
	.loc 1 54 0
	movl	-28(%ebp), %eax
.LVL27:
	movsbl	%al, %eax
	movl	%eax, 4(%esp)
	movl	8(%ebp), %eax
	movl	%eax, (%esp)
	call	putc
.LVL28:
	jmp	.L14
.LVL29:
.L11:
	.loc 1 56 0
	cmpl	$37, -20(%ebp)
	jne	.L14
	.loc 1 57 0
	cmpl	$100, -28(%ebp)
	jne	.L15
	.loc 1 58 0
	movl	-24(%ebp), %eax
.LVL30:
	movl	(%eax), %eax
	movl	$1, 12(%esp)
	movl	$10, 8(%esp)
	movl	%eax, 4(%esp)
	movl	8(%ebp), %eax
	movl	%eax, (%esp)
	call	printint
.LVL31:
	.loc 1 59 0
	addl	$4, -24(%ebp)
	jmp	.L16
.LVL32:
.L15:
	.loc 1 60 0
	cmpl	$120, -28(%ebp)
	je	.L17
	.loc 1 60 0 is_stmt 0 discriminator 1
	cmpl	$112, -28(%ebp)
	jne	.L18
.L17:
	.loc 1 61 0 is_stmt 1
	movl	-24(%ebp), %eax
.LVL33:
	movl	(%eax), %eax
	movl	$0, 12(%esp)
	movl	$16, 8(%esp)
	movl	%eax, 4(%esp)
	movl	8(%ebp), %eax
	movl	%eax, (%esp)
	call	printint
.LVL34:
	.loc 1 62 0
	addl	$4, -24(%ebp)
	jmp	.L16
.LVL35:
.L18:
	.loc 1 63 0
	cmpl	$115, -28(%ebp)
	jne	.L19
	.loc 1 64 0
	movl	-24(%ebp), %eax
.LVL36:
	movl	(%eax), %eax
	movl	%eax, -12(%ebp)
.LVL37:
	.loc 1 65 0
	addl	$4, -24(%ebp)
.LVL38:
	.loc 1 66 0
	cmpl	$0, -12(%ebp)
	jne	.L20
	.loc 1 67 0
	movl	$.LC0, -12(%ebp)
.LVL39:
	.loc 1 68 0
	jmp	.L21
.LVL40:
.L20:
	jmp	.L21
.L22:
	.loc 1 69 0
	movl	-12(%ebp), %eax
	movzbl	(%eax), %eax
	movsbl	%al, %eax
	movl	%eax, 4(%esp)
	movl	8(%ebp), %eax
	movl	%eax, (%esp)
	call	putc
.LVL41:
	.loc 1 70 0
	addl	$1, -12(%ebp)
.L21:
	.loc 1 68 0 discriminator 1
	movl	-12(%ebp), %eax
	movzbl	(%eax), %eax
	testb	%al, %al
	jne	.L22
	jmp	.L16
.LVL42:
.L19:
	.loc 1 72 0
	cmpl	$99, -28(%ebp)
	jne	.L23
	.loc 1 73 0
	movl	-24(%ebp), %eax
.LVL43:
	movl	(%eax), %eax
	movsbl	%al, %eax
	movl	%eax, 4(%esp)
	movl	8(%ebp), %eax
	movl	%eax, (%esp)
	call	putc
.LVL44:
	.loc 1 74 0
	addl	$4, -24(%ebp)
	jmp	.L16
.LVL45:
.L23:
	.loc 1 75 0
	cmpl	$37, -28(%ebp)
	jne	.L24
	.loc 1 76 0
	movl	-28(%ebp), %eax
.LVL46:
	movsbl	%al, %eax
	movl	%eax, 4(%esp)
	movl	8(%ebp), %eax
	movl	%eax, (%esp)
	call	putc
.LVL47:
	jmp	.L16
.LVL48:
.L24:
	.loc 1 79 0
	movl	$37, 4(%esp)
	movl	8(%ebp), %eax
.LVL49:
	movl	%eax, (%esp)
	call	putc
.LVL50:
	.loc 1 80 0
	movl	-28(%ebp), %eax
	movsbl	%al, %eax
	movl	%eax, 4(%esp)
	movl	8(%ebp), %eax
	movl	%eax, (%esp)
	call	putc
.LVL51:
.L16:
	.loc 1 82 0
	movl	$0, -20(%ebp)
.L14:
	.loc 1 48 0
	addl	$1, -16(%ebp)
.LVL52:
.L10:
	.loc 1 48 0 is_stmt 0 discriminator 1
	movl	12(%ebp), %edx
	movl	-16(%ebp), %eax
	addl	%edx, %eax
	movzbl	(%eax), %eax
	testb	%al, %al
	jne	.L25
	.loc 1 85 0 is_stmt 1
	leave
.LCFI8:
	.cfi_restore 5
	.cfi_def_cfa 4, 4
	ret
	.cfi_endproc
.LFE2:
	.size	printf, .-printf
	.data
	.type	digits.1030, @object
	.size	digits.1030, 17
digits.1030:
	.string	"0123456789ABCDEF"
	.text
.Letext0:
	.file 2 "types.h"
	.file 3 "user.h"
	.section	.note.GNU-stack,"",@progbits
