	.file	"proc.c"
	.text
.Ltext0:
	.type	readeflags, @function
readeflags:
.LFB12:
	.file 1 "x86.h"
	.loc 1 96 0
	.cfi_startproc
	pushl	%ebp
.LCFI0:
	.cfi_def_cfa_offset 8
	.cfi_offset 5, -8
	movl	%esp, %ebp
.LCFI1:
	.cfi_def_cfa_register 5
	subl	$16, %esp
	.loc 1 98 0
#APP
# 98 "x86.h" 1
	pushfl; popl %eax
# 0 "" 2
#NO_APP
	movl	%eax, -4(%ebp)
.LVL0:
	.loc 1 99 0
	movl	-4(%ebp), %eax
	.loc 1 100 0
	leave
.LCFI2:
	.cfi_restore 5
	.cfi_def_cfa 4, 4
	ret
	.cfi_endproc
.LFE12:
	.size	readeflags, .-readeflags
	.type	sti, @function
sti:
.LFB15:
	.loc 1 116 0
	.cfi_startproc
	pushl	%ebp
.LCFI3:
	.cfi_def_cfa_offset 8
	.cfi_offset 5, -8
	movl	%esp, %ebp
.LCFI4:
	.cfi_def_cfa_register 5
	.loc 1 117 0
#APP
# 117 "x86.h" 1
	sti
# 0 "" 2
	.loc 1 118 0
#NO_APP
	popl	%ebp
.LCFI5:
	.cfi_restore 5
	.cfi_def_cfa 4, 4
	ret
	.cfi_endproc
.LFE15:
	.size	sti, .-sti
	.type	halt, @function
halt:
.LFB19:
	.loc 1 149 0
	.cfi_startproc
	pushl	%ebp
.LCFI6:
	.cfi_def_cfa_offset 8
	.cfi_offset 5, -8
	movl	%esp, %ebp
.LCFI7:
	.cfi_def_cfa_register 5
	.loc 1 150 0
#APP
# 150 "x86.h" 1
	hlt
# 0 "" 2
	.loc 1 151 0
#NO_APP
	popl	%ebp
.LCFI8:
	.cfi_restore 5
	.cfi_def_cfa 4, 4
	ret
	.cfi_endproc
.LFE19:
	.size	halt, .-halt
	.comm	ptable,7988,32
	.local	initproc
	.comm	initproc,4,4
	.globl	nextpid
	.data
	.align 4
	.type	nextpid, @object
	.size	nextpid, 4
nextpid:
	.long	1
	.section	.rodata
.LC0:
	.string	"ptable"
	.text
	.globl	pinit
	.type	pinit, @function
pinit:
.LFB20:
	.file 2 "proc.c"
	.loc 2 25 0
	.cfi_startproc
	pushl	%ebp
.LCFI9:
	.cfi_def_cfa_offset 8
	.cfi_offset 5, -8
	movl	%esp, %ebp
.LCFI10:
	.cfi_def_cfa_register 5
	subl	$24, %esp
	.loc 2 26 0
	movl	$.LC0, 4(%esp)
	movl	$ptable, (%esp)
	call	initlock
.LVL1:
	.loc 2 27 0
	leave
.LCFI11:
	.cfi_restore 5
	.cfi_def_cfa 4, 4
	ret
	.cfi_endproc
.LFE20:
	.size	pinit, .-pinit
	.type	allocproc, @function
allocproc:
.LFB21:
	.loc 2 36 0
	.cfi_startproc
	pushl	%ebp
.LCFI12:
	.cfi_def_cfa_offset 8
	.cfi_offset 5, -8
	movl	%esp, %ebp
.LCFI13:
	.cfi_def_cfa_register 5
	subl	$40, %esp
	.loc 2 40 0
	movl	$ptable, (%esp)
	call	acquire
.LVL2:
	.loc 2 41 0
	movl	$ptable+52, -12(%ebp)
.LVL3:
	jmp	.L7
.L10:
	.loc 2 42 0
	movl	-12(%ebp), %eax
	movl	12(%eax), %eax
	testl	%eax, %eax
	jne	.L8
	.loc 2 43 0
	nop
.L9:
	.loc 2 48 0
	movl	-12(%ebp), %eax
	movl	$1, 12(%eax)
	.loc 2 49 0
	movl	nextpid, %eax
	leal	1(%eax), %edx
	movl	%edx, nextpid
	movl	-12(%ebp), %edx
	movl	%eax, 16(%edx)
	.loc 2 50 0
	movl	$ptable, (%esp)
	call	release
.LVL4:
	.loc 2 53 0
	call	kalloc
.LVL5:
	movl	-12(%ebp), %edx
	movl	%eax, 8(%edx)
	movl	-12(%ebp), %eax
	movl	8(%eax), %eax
	testl	%eax, %eax
	jne	.L12
	jmp	.L13
.L8:
	.loc 2 41 0
	addl	$124, -12(%ebp)
.LVL6:
.L7:
	.loc 2 41 0 is_stmt 0 discriminator 1
	cmpl	$ptable+7988, -12(%ebp)
	jb	.L10
	.loc 2 44 0 is_stmt 1
	movl	$ptable, (%esp)
	call	release
.LVL7:
	.loc 2 45 0
	movl	$0, %eax
	jmp	.L11
.L13:
	.loc 2 54 0
	movl	-12(%ebp), %eax
	movl	$0, 12(%eax)
	.loc 2 55 0
	movl	$0, %eax
	jmp	.L11
.L12:
	.loc 2 57 0
	movl	-12(%ebp), %eax
	movl	8(%eax), %eax
	addl	$4096, %eax
	movl	%eax, -16(%ebp)
.LVL8:
	.loc 2 60 0
	subl	$76, -16(%ebp)
.LVL9:
	.loc 2 61 0
	movl	-12(%ebp), %eax
	movl	-16(%ebp), %edx
	movl	%edx, 24(%eax)
	.loc 2 65 0
	subl	$4, -16(%ebp)
.LVL10:
	.loc 2 66 0
	movl	$trapret, %edx
	movl	-16(%ebp), %eax
	movl	%edx, (%eax)
	.loc 2 68 0
	subl	$20, -16(%ebp)
.LVL11:
	.loc 2 69 0
	movl	-12(%ebp), %eax
	movl	-16(%ebp), %edx
	movl	%edx, 28(%eax)
	.loc 2 70 0
	movl	-12(%ebp), %eax
	movl	28(%eax), %eax
	movl	$20, 8(%esp)
	movl	$0, 4(%esp)
	movl	%eax, (%esp)
	call	memset
.LVL12:
	.loc 2 71 0
	movl	-12(%ebp), %eax
	movl	28(%eax), %eax
	movl	$forkret, %edx
	movl	%edx, 16(%eax)
	.loc 2 73 0
	movl	-12(%ebp), %eax
.LVL13:
.L11:
	.loc 2 74 0
	leave
.LCFI14:
	.cfi_restore 5
	.cfi_def_cfa 4, 4
.LVL14:
	ret
	.cfi_endproc
.LFE21:
	.size	allocproc, .-allocproc
	.section	.rodata
.LC1:
	.string	"userinit: out of memory?"
.LC2:
	.string	"initcode"
.LC3:
	.string	"/"
	.text
	.globl	userinit
	.type	userinit, @function
userinit:
.LFB22:
	.loc 2 80 0
	.cfi_startproc
	pushl	%ebp
.LCFI15:
	.cfi_def_cfa_offset 8
	.cfi_offset 5, -8
	movl	%esp, %ebp
.LCFI16:
	.cfi_def_cfa_register 5
	subl	$40, %esp
	.loc 2 84 0
	call	allocproc
.LVL15:
	movl	%eax, -12(%ebp)
.LVL16:
	.loc 2 85 0
	movl	-12(%ebp), %eax
	movl	%eax, initproc
	.loc 2 86 0
	call	setupkvm
.LVL17:
	movl	-12(%ebp), %edx
	movl	%eax, 4(%edx)
	movl	-12(%ebp), %eax
	movl	4(%eax), %eax
	testl	%eax, %eax
	jne	.L15
	.loc 2 87 0
	movl	$.LC1, (%esp)
	call	panic
.LVL18:
.L15:
	.loc 2 88 0
	movl	$_binary_initcode_size, %edx
	movl	-12(%ebp), %eax
	movl	4(%eax), %eax
	movl	%edx, 8(%esp)
	movl	$_binary_initcode_start, 4(%esp)
	movl	%eax, (%esp)
	call	inituvm
.LVL19:
	.loc 2 89 0
	movl	-12(%ebp), %eax
	movl	$4096, (%eax)
	.loc 2 90 0
	movl	-12(%ebp), %eax
	movl	24(%eax), %eax
	movl	$76, 8(%esp)
	movl	$0, 4(%esp)
	movl	%eax, (%esp)
	call	memset
.LVL20:
	.loc 2 91 0
	movl	-12(%ebp), %eax
	movl	24(%eax), %eax
	movw	$35, 60(%eax)
	.loc 2 92 0
	movl	-12(%ebp), %eax
	movl	24(%eax), %eax
	movw	$43, 44(%eax)
	.loc 2 93 0
	movl	-12(%ebp), %eax
	movl	24(%eax), %eax
	movl	-12(%ebp), %edx
	movl	24(%edx), %edx
	movzwl	44(%edx), %edx
	movw	%dx, 40(%eax)
	.loc 2 94 0
	movl	-12(%ebp), %eax
	movl	24(%eax), %eax
	movl	-12(%ebp), %edx
	movl	24(%edx), %edx
	movzwl	44(%edx), %edx
	movw	%dx, 72(%eax)
	.loc 2 95 0
	movl	-12(%ebp), %eax
	movl	24(%eax), %eax
	movl	$512, 64(%eax)
	.loc 2 96 0
	movl	-12(%ebp), %eax
	movl	24(%eax), %eax
	movl	$4096, 68(%eax)
	.loc 2 97 0
	movl	-12(%ebp), %eax
	movl	24(%eax), %eax
	movl	$0, 56(%eax)
	.loc 2 99 0
	movl	-12(%ebp), %eax
	addl	$108, %eax
	movl	$16, 8(%esp)
	movl	$.LC2, 4(%esp)
	movl	%eax, (%esp)
	call	safestrcpy
.LVL21:
	.loc 2 100 0
	movl	$.LC3, (%esp)
	call	namei
.LVL22:
	movl	-12(%ebp), %edx
	movl	%eax, 104(%edx)
	.loc 2 102 0
	movl	-12(%ebp), %eax
	movl	$3, 12(%eax)
	.loc 2 103 0
	leave
.LCFI17:
	.cfi_restore 5
	.cfi_def_cfa 4, 4
.LVL23:
	ret
	.cfi_endproc
.LFE22:
	.size	userinit, .-userinit
	.globl	growproc
	.type	growproc, @function
growproc:
.LFB23:
	.loc 2 109 0
	.cfi_startproc
.LVL24:
	pushl	%ebp
.LCFI18:
	.cfi_def_cfa_offset 8
	.cfi_offset 5, -8
	movl	%esp, %ebp
.LCFI19:
	.cfi_def_cfa_register 5
	subl	$40, %esp
	.loc 2 112 0
	movl	%gs:4, %eax
	movl	(%eax), %eax
	movl	%eax, -12(%ebp)
.LVL25:
	.loc 2 113 0
	cmpl	$0, 8(%ebp)
	jle	.L17
	.loc 2 114 0
	movl	8(%ebp), %edx
	movl	-12(%ebp), %eax
	addl	%eax, %edx
	movl	%gs:4, %eax
.LVL26:
	movl	4(%eax), %eax
.LVL27:
	movl	%edx, 8(%esp)
.LVL28:
	movl	-12(%ebp), %edx
	movl	%edx, 4(%esp)
	movl	%eax, (%esp)
	call	allocuvm
.LVL29:
	movl	%eax, -12(%ebp)
.LVL30:
	cmpl	$0, -12(%ebp)
	jne	.L18
	.loc 2 115 0
	movl	$-1, %eax
.LVL31:
	jmp	.L19
.LVL32:
.L17:
	.loc 2 116 0
	cmpl	$0, 8(%ebp)
	jns	.L18
	.loc 2 117 0
	movl	8(%ebp), %edx
	movl	-12(%ebp), %eax
.LVL33:
	addl	%eax, %edx
	movl	%gs:4, %eax
	movl	4(%eax), %eax
	movl	%edx, 8(%esp)
.LVL34:
	movl	-12(%ebp), %edx
	movl	%edx, 4(%esp)
	movl	%eax, (%esp)
	call	deallocuvm
.LVL35:
	movl	%eax, -12(%ebp)
.LVL36:
	cmpl	$0, -12(%ebp)
	jne	.L18
	.loc 2 118 0
	movl	$-1, %eax
.LVL37:
	jmp	.L19
.LVL38:
.L18:
	.loc 2 120 0
	movl	%gs:4, %eax
	movl	-12(%ebp), %edx
	movl	%edx, (%eax)
	.loc 2 121 0
	movl	%gs:4, %eax
	movl	%eax, (%esp)
	call	switchuvm
.LVL39:
	.loc 2 122 0
	movl	$0, %eax
.L19:
	.loc 2 123 0
	leave
.LCFI20:
	.cfi_restore 5
	.cfi_def_cfa 4, 4
	ret
	.cfi_endproc
.LFE23:
	.size	growproc, .-growproc
	.globl	fork
	.type	fork, @function
fork:
.LFB24:
	.loc 2 130 0
	.cfi_startproc
	pushl	%ebp
.LCFI21:
	.cfi_def_cfa_offset 8
	.cfi_offset 5, -8
	movl	%esp, %ebp
.LCFI22:
	.cfi_def_cfa_register 5
	pushl	%edi
	pushl	%esi
	pushl	%ebx
	subl	$44, %esp
	.cfi_offset 7, -12
	.cfi_offset 6, -16
	.cfi_offset 3, -20
	.loc 2 135 0
	call	allocproc
.LVL40:
	movl	%eax, -32(%ebp)
.LVL41:
	cmpl	$0, -32(%ebp)
	jne	.L21
	.loc 2 136 0
	movl	$-1, %eax
.LVL42:
	jmp	.L22
.LVL43:
.L21:
	.loc 2 139 0
	movl	%gs:4, %eax
.LVL44:
	movl	(%eax), %edx
	movl	%gs:4, %eax
	movl	4(%eax), %eax
	movl	%edx, 4(%esp)
	movl	%eax, (%esp)
	call	copyuvm
.LVL45:
	movl	-32(%ebp), %edx
	movl	%eax, 4(%edx)
	movl	-32(%ebp), %eax
	movl	4(%eax), %eax
	testl	%eax, %eax
	jne	.L23
	.loc 2 140 0
	movl	-32(%ebp), %eax
	movl	8(%eax), %eax
	movl	%eax, (%esp)
	call	kfree
.LVL46:
	.loc 2 141 0
	movl	-32(%ebp), %eax
	movl	$0, 8(%eax)
	.loc 2 142 0
	movl	-32(%ebp), %eax
	movl	$0, 12(%eax)
	.loc 2 143 0
	movl	$-1, %eax
	jmp	.L22
.L23:
	.loc 2 145 0
	movl	%gs:4, %eax
	movl	(%eax), %edx
	movl	-32(%ebp), %eax
	movl	%edx, (%eax)
	.loc 2 146 0
	movl	%gs:4, %edx
	movl	-32(%ebp), %eax
	movl	%edx, 20(%eax)
	.loc 2 147 0
	movl	-32(%ebp), %eax
	movl	24(%eax), %edx
	movl	%gs:4, %eax
	movl	24(%eax), %eax
	movl	%eax, %ebx
	movl	$19, %eax
	movl	%edx, %edi
	movl	%ebx, %esi
	movl	%eax, %ecx
	rep movsl
	.loc 2 150 0
	movl	-32(%ebp), %eax
	movl	24(%eax), %eax
	movl	$0, 28(%eax)
	.loc 2 152 0
	movl	$0, -28(%ebp)
.LVL47:
	jmp	.L24
.LVL48:
.L26:
	.loc 2 153 0
	movl	%gs:4, %eax
	movl	-28(%ebp), %edx
	addl	$8, %edx
	movl	8(%eax,%edx,4), %eax
	testl	%eax, %eax
	je	.L25
	.loc 2 154 0
	movl	%gs:4, %eax
	movl	-28(%ebp), %edx
	addl	$8, %edx
	movl	8(%eax,%edx,4), %eax
	movl	%eax, (%esp)
	call	filedup
.LVL49:
	movl	-32(%ebp), %edx
	movl	-28(%ebp), %ecx
	addl	$8, %ecx
	movl	%eax, 8(%edx,%ecx,4)
.L25:
	.loc 2 152 0
	addl	$1, -28(%ebp)
.L24:
	.loc 2 152 0 is_stmt 0 discriminator 1
	cmpl	$15, -28(%ebp)
	jle	.L26
	.loc 2 155 0 is_stmt 1
	movl	%gs:4, %eax
	movl	104(%eax), %eax
	movl	%eax, (%esp)
	call	idup
.LVL50:
	movl	-32(%ebp), %edx
	movl	%eax, 104(%edx)
	.loc 2 157 0
	movl	%gs:4, %eax
	leal	108(%eax), %edx
	movl	-32(%ebp), %eax
	addl	$108, %eax
	movl	$16, 8(%esp)
	movl	%edx, 4(%esp)
	movl	%eax, (%esp)
	call	safestrcpy
.LVL51:
	.loc 2 159 0
	movl	-32(%ebp), %eax
	movl	16(%eax), %eax
	movl	%eax, -36(%ebp)
.LVL52:
	.loc 2 162 0
	movl	$ptable, (%esp)
	call	acquire
.LVL53:
	.loc 2 163 0
	movl	-32(%ebp), %eax
	movl	$3, 12(%eax)
	.loc 2 164 0
	movl	$ptable, (%esp)
	call	release
.LVL54:
	.loc 2 166 0
	movl	-36(%ebp), %eax
.LVL55:
.L22:
	.loc 2 167 0
	addl	$44, %esp
	popl	%ebx
	.cfi_restore 3
	popl	%esi
	.cfi_restore 6
	popl	%edi
	.cfi_restore 7
	popl	%ebp
.LCFI23:
	.cfi_restore 5
	.cfi_def_cfa 4, 4
.LVL56:
	ret
	.cfi_endproc
.LFE24:
	.size	fork, .-fork
	.section	.rodata
.LC4:
	.string	"init exiting"
.LC5:
	.string	"zombie exit"
	.text
	.globl	exit
	.type	exit, @function
exit:
.LFB25:
	.loc 2 174 0
	.cfi_startproc
	pushl	%ebp
.LCFI24:
	.cfi_def_cfa_offset 8
	.cfi_offset 5, -8
	movl	%esp, %ebp
.LCFI25:
	.cfi_def_cfa_register 5
	subl	$40, %esp
	.loc 2 178 0
	movl	%gs:4, %edx
	movl	initproc, %eax
	cmpl	%eax, %edx
	jne	.L28
	.loc 2 179 0
	movl	$.LC4, (%esp)
	call	panic
.LVL57:
.L28:
	.loc 2 182 0
	movl	$0, -16(%ebp)
.LVL58:
	jmp	.L29
.L31:
	.loc 2 183 0
	movl	%gs:4, %eax
	movl	-16(%ebp), %edx
	addl	$8, %edx
	movl	8(%eax,%edx,4), %eax
	testl	%eax, %eax
	je	.L30
	.loc 2 184 0
	movl	%gs:4, %eax
	movl	-16(%ebp), %edx
	addl	$8, %edx
	movl	8(%eax,%edx,4), %eax
	movl	%eax, (%esp)
	call	fileclose
.LVL59:
	.loc 2 185 0
	movl	%gs:4, %eax
	movl	-16(%ebp), %edx
	addl	$8, %edx
	movl	$0, 8(%eax,%edx,4)
.L30:
	.loc 2 182 0
	addl	$1, -16(%ebp)
.L29:
	.loc 2 182 0 is_stmt 0 discriminator 1
	cmpl	$15, -16(%ebp)
	jle	.L31
	.loc 2 189 0 is_stmt 1
	call	begin_op
.LVL60:
	.loc 2 190 0
	movl	%gs:4, %eax
	movl	104(%eax), %eax
	movl	%eax, (%esp)
	call	iput
.LVL61:
	.loc 2 191 0
	call	end_op
.LVL62:
	.loc 2 192 0
	movl	%gs:4, %eax
	movl	$0, 104(%eax)
	.loc 2 194 0
	movl	$ptable, (%esp)
	call	acquire
.LVL63:
	.loc 2 197 0
	movl	%gs:4, %eax
	movl	20(%eax), %eax
	movl	%eax, (%esp)
	call	wakeup1
.LVL64:
	.loc 2 200 0
	movl	$ptable+52, -12(%ebp)
.LVL65:
	jmp	.L32
.L34:
	.loc 2 201 0
	movl	-12(%ebp), %eax
	movl	20(%eax), %edx
	movl	%gs:4, %eax
	cmpl	%eax, %edx
	jne	.L33
	.loc 2 202 0
	movl	initproc, %edx
	movl	-12(%ebp), %eax
	movl	%edx, 20(%eax)
	.loc 2 203 0
	movl	-12(%ebp), %eax
	movl	12(%eax), %eax
	cmpl	$5, %eax
	jne	.L33
	.loc 2 204 0
	movl	initproc, %eax
	movl	%eax, (%esp)
	call	wakeup1
.LVL66:
.L33:
	.loc 2 200 0
	addl	$124, -12(%ebp)
.L32:
	.loc 2 200 0 is_stmt 0 discriminator 1
	cmpl	$ptable+7988, -12(%ebp)
	jb	.L34
	.loc 2 209 0 is_stmt 1
	movl	%gs:4, %eax
	movl	$5, 12(%eax)
	.loc 2 210 0
	call	sched
.LVL67:
	.loc 2 211 0
	movl	$.LC5, (%esp)
	call	panic
.LVL68:
	.cfi_endproc
.LFE25:
	.size	exit, .-exit
	.globl	wait
	.type	wait, @function
wait:
.LFB26:
	.loc 2 218 0
	.cfi_startproc
	pushl	%ebp
.LCFI26:
	.cfi_def_cfa_offset 8
	.cfi_offset 5, -8
	movl	%esp, %ebp
.LCFI27:
	.cfi_def_cfa_register 5
	subl	$40, %esp
	.loc 2 222 0
	movl	$ptable, (%esp)
	call	acquire
.LVL69:
.L43:
	.loc 2 225 0
	movl	$0, -16(%ebp)
.LVL70:
	.loc 2 226 0
	movl	$ptable+52, -12(%ebp)
.LVL71:
	jmp	.L36
.L40:
	.loc 2 227 0
	movl	-12(%ebp), %eax
	movl	20(%eax), %edx
	movl	%gs:4, %eax
	cmpl	%eax, %edx
	je	.L37
	.loc 2 228 0
	jmp	.L38
.L37:
	.loc 2 229 0
	movl	$1, -16(%ebp)
.LVL72:
	.loc 2 230 0
	movl	-12(%ebp), %eax
	movl	12(%eax), %eax
	cmpl	$5, %eax
	jne	.L38
	.loc 2 232 0
	movl	-12(%ebp), %eax
	movl	16(%eax), %eax
	movl	%eax, -20(%ebp)
.LVL73:
	.loc 2 233 0
	movl	-12(%ebp), %eax
.LVL74:
	movl	8(%eax), %eax
.LVL75:
	movl	%eax, (%esp)
.LVL76:
	call	kfree
.LVL77:
	.loc 2 234 0
	movl	-12(%ebp), %eax
	movl	$0, 8(%eax)
	.loc 2 235 0
	movl	-12(%ebp), %eax
	movl	4(%eax), %eax
	movl	%eax, (%esp)
	call	freevm
.LVL78:
	.loc 2 236 0
	movl	-12(%ebp), %eax
	movl	$0, 12(%eax)
	.loc 2 237 0
	movl	-12(%ebp), %eax
	movl	$0, 16(%eax)
	.loc 2 238 0
	movl	-12(%ebp), %eax
	movl	$0, 20(%eax)
	.loc 2 239 0
	movl	-12(%ebp), %eax
	movb	$0, 108(%eax)
	.loc 2 240 0
	movl	-12(%ebp), %eax
	movl	$0, 36(%eax)
	.loc 2 241 0
	movl	$ptable, (%esp)
	call	release
.LVL79:
	.loc 2 242 0
	movl	-20(%ebp), %eax
	jmp	.L39
.LVL80:
.L38:
	.loc 2 226 0
	addl	$124, -12(%ebp)
.LVL81:
.L36:
	.loc 2 226 0 is_stmt 0 discriminator 1
	cmpl	$ptable+7988, -12(%ebp)
	jb	.L40
	.loc 2 247 0 is_stmt 1
	cmpl	$0, -16(%ebp)
	je	.L41
	.loc 2 247 0 is_stmt 0 discriminator 1
	movl	%gs:4, %eax
	movl	36(%eax), %eax
	testl	%eax, %eax
	je	.L42
.L41:
	.loc 2 248 0 is_stmt 1
	movl	$ptable, (%esp)
	call	release
.LVL82:
	.loc 2 249 0
	movl	$-1, %eax
	jmp	.L39
.L42:
	.loc 2 253 0
	movl	%gs:4, %eax
	movl	$ptable, 4(%esp)
	movl	%eax, (%esp)
	call	sleep
.LVL83:
	.loc 2 254 0
	jmp	.L43
.L39:
	.loc 2 255 0
	leave
.LCFI28:
	.cfi_restore 5
	.cfi_def_cfa 4, 4
.LVL84:
	ret
	.cfi_endproc
.LFE26:
	.size	wait, .-wait
	.globl	scheduler
	.type	scheduler, @function
scheduler:
.LFB27:
	.loc 2 267 0
	.cfi_startproc
	pushl	%ebp
.LCFI29:
	.cfi_def_cfa_offset 8
	.cfi_offset 5, -8
	movl	%esp, %ebp
.LCFI30:
	.cfi_def_cfa_register 5
	subl	$40, %esp
.L50:
	.loc 2 273 0
	call	sti
.LVL85:
	.loc 2 276 0
	movl	$ptable, (%esp)
	call	acquire
.LVL86:
	.loc 2 277 0
	movl	$0, -16(%ebp)
.LVL87:
	movl	$ptable+52, -12(%ebp)
.LVL88:
	jmp	.L45
.L48:
	.loc 2 278 0
	movl	-12(%ebp), %eax
	movl	12(%eax), %eax
	cmpl	$3, %eax
	je	.L46
	.loc 2 279 0
	jmp	.L47
.L46:
	.loc 2 284 0
	movl	$1, -16(%ebp)
.LVL89:
	.loc 2 285 0
	movl	-12(%ebp), %eax
	movl	%eax, %gs:4
	.loc 2 286 0
	movl	-12(%ebp), %eax
	movl	%eax, (%esp)
	call	switchuvm
.LVL90:
	.loc 2 287 0
	movl	-12(%ebp), %eax
	movl	$4, 12(%eax)
	.loc 2 288 0
	movl	%gs:4, %eax
	movl	28(%eax), %eax
	movl	%gs:0, %edx
	addl	$4, %edx
	movl	%eax, 4(%esp)
	movl	%edx, (%esp)
	call	swtch
.LVL91:
	.loc 2 289 0
	call	switchkvm
.LVL92:
	.loc 2 293 0
	movl	$0, %gs:4
.L47:
	.loc 2 277 0
	addl	$124, -12(%ebp)
.L45:
	.loc 2 277 0 is_stmt 0 discriminator 1
	cmpl	$ptable+7988, -12(%ebp)
	jb	.L48
	.loc 2 295 0 is_stmt 1
	movl	$ptable, (%esp)
	call	release
.LVL93:
	.loc 2 297 0
	cmpl	$0, -16(%ebp)
	jne	.L49
	.loc 2 298 0
	call	halt
.LVL94:
	.loc 2 300 0
	jmp	.L50
.L49:
	jmp	.L50
	.cfi_endproc
.LFE27:
	.size	scheduler, .-scheduler
	.section	.rodata
.LC6:
	.string	"sched ptable.lock"
.LC7:
	.string	"sched locks"
.LC8:
	.string	"sched running"
.LC9:
	.string	"sched interruptible"
	.text
	.globl	sched
	.type	sched, @function
sched:
.LFB28:
	.loc 2 307 0
	.cfi_startproc
	pushl	%ebp
.LCFI31:
	.cfi_def_cfa_offset 8
	.cfi_offset 5, -8
	movl	%esp, %ebp
.LCFI32:
	.cfi_def_cfa_register 5
	subl	$40, %esp
	.loc 2 310 0
	movl	$ptable, (%esp)
	call	holding
.LVL95:
	testl	%eax, %eax
	jne	.L52
	.loc 2 311 0
	movl	$.LC6, (%esp)
	call	panic
.LVL96:
.L52:
	.loc 2 312 0
	movl	%gs:0, %eax
	movl	172(%eax), %eax
	cmpl	$1, %eax
	je	.L53
	.loc 2 313 0
	movl	$.LC7, (%esp)
	call	panic
.LVL97:
.L53:
	.loc 2 314 0
	movl	%gs:4, %eax
	movl	12(%eax), %eax
	cmpl	$4, %eax
	jne	.L54
	.loc 2 315 0
	movl	$.LC8, (%esp)
	call	panic
.LVL98:
.L54:
	.loc 2 316 0
	call	readeflags
.LVL99:
	andl	$512, %eax
	testl	%eax, %eax
	je	.L55
	.loc 2 317 0
	movl	$.LC9, (%esp)
	call	panic
.LVL100:
.L55:
	.loc 2 318 0
	movl	%gs:0, %eax
	movl	176(%eax), %eax
	movl	%eax, -12(%ebp)
.LVL101:
	.loc 2 319 0
	movl	%gs:0, %eax
.LVL102:
	movl	4(%eax), %eax
.LVL103:
	movl	%gs:4, %edx
	addl	$28, %edx
	movl	%eax, 4(%esp)
.LVL104:
	movl	%edx, (%esp)
	call	swtch
.LVL105:
	.loc 2 320 0
	movl	%gs:0, %eax
	movl	-12(%ebp), %edx
	movl	%edx, 176(%eax)
	.loc 2 321 0
	leave
.LCFI33:
	.cfi_restore 5
	.cfi_def_cfa 4, 4
.LVL106:
	ret
	.cfi_endproc
.LFE28:
	.size	sched, .-sched
	.globl	yield
	.type	yield, @function
yield:
.LFB29:
	.loc 2 326 0
	.cfi_startproc
	pushl	%ebp
.LCFI34:
	.cfi_def_cfa_offset 8
	.cfi_offset 5, -8
	movl	%esp, %ebp
.LCFI35:
	.cfi_def_cfa_register 5
	subl	$24, %esp
	.loc 2 327 0
	movl	$ptable, (%esp)
	call	acquire
.LVL107:
	.loc 2 328 0
	movl	%gs:4, %eax
	movl	$3, 12(%eax)
	.loc 2 329 0
	call	sched
.LVL108:
	.loc 2 330 0
	movl	$ptable, (%esp)
	call	release
.LVL109:
	.loc 2 331 0
	leave
.LCFI36:
	.cfi_restore 5
	.cfi_def_cfa 4, 4
	ret
	.cfi_endproc
.LFE29:
	.size	yield, .-yield
	.globl	forkret
	.type	forkret, @function
forkret:
.LFB30:
	.loc 2 337 0
	.cfi_startproc
	pushl	%ebp
.LCFI37:
	.cfi_def_cfa_offset 8
	.cfi_offset 5, -8
	movl	%esp, %ebp
.LCFI38:
	.cfi_def_cfa_register 5
	subl	$24, %esp
	.loc 2 340 0
	movl	$ptable, (%esp)
	call	release
.LVL110:
	.loc 2 342 0
	movl	first.1546, %eax
	testl	%eax, %eax
	je	.L57
	.loc 2 346 0
	movl	$0, first.1546
	.loc 2 347 0
	movl	$1, (%esp)
	call	iinit
.LVL111:
	.loc 2 348 0
	movl	$1, (%esp)
	call	initlog
.LVL112:
.L57:
	.loc 2 352 0
	leave
.LCFI39:
	.cfi_restore 5
	.cfi_def_cfa 4, 4
	ret
	.cfi_endproc
.LFE30:
	.size	forkret, .-forkret
	.section	.rodata
.LC10:
	.string	"sleep"
.LC11:
	.string	"sleep without lk"
	.text
	.globl	sleep
	.type	sleep, @function
sleep:
.LFB31:
	.loc 2 358 0
	.cfi_startproc
.LVL113:
	pushl	%ebp
.LCFI40:
	.cfi_def_cfa_offset 8
	.cfi_offset 5, -8
	movl	%esp, %ebp
.LCFI41:
	.cfi_def_cfa_register 5
	subl	$24, %esp
	.loc 2 359 0
	movl	%gs:4, %eax
	testl	%eax, %eax
	jne	.L60
	.loc 2 360 0
	movl	$.LC10, (%esp)
	call	panic
.LVL114:
.L60:
	.loc 2 362 0
	cmpl	$0, 12(%ebp)
	jne	.L61
	.loc 2 363 0
	movl	$.LC11, (%esp)
	call	panic
.LVL115:
.L61:
	.loc 2 371 0
	cmpl	$ptable, 12(%ebp)
	je	.L62
	.loc 2 372 0
	movl	$ptable, (%esp)
	call	acquire
.LVL116:
	.loc 2 373 0
	movl	12(%ebp), %eax
	movl	%eax, (%esp)
	call	release
.LVL117:
.L62:
	.loc 2 377 0
	movl	%gs:4, %eax
	movl	8(%ebp), %edx
	movl	%edx, 32(%eax)
	.loc 2 378 0
	movl	%gs:4, %eax
	movl	$2, 12(%eax)
	.loc 2 379 0
	call	sched
.LVL118:
	.loc 2 382 0
	movl	%gs:4, %eax
	movl	$0, 32(%eax)
	.loc 2 385 0
	cmpl	$ptable, 12(%ebp)
	je	.L59
	.loc 2 386 0
	movl	$ptable, (%esp)
	call	release
.LVL119:
	.loc 2 387 0
	movl	12(%ebp), %eax
	movl	%eax, (%esp)
	call	acquire
.LVL120:
.L59:
	.loc 2 389 0
	leave
.LCFI42:
	.cfi_restore 5
	.cfi_def_cfa 4, 4
	ret
	.cfi_endproc
.LFE31:
	.size	sleep, .-sleep
	.type	wakeup1, @function
wakeup1:
.LFB32:
	.loc 2 396 0
	.cfi_startproc
.LVL121:
	pushl	%ebp
.LCFI43:
	.cfi_def_cfa_offset 8
	.cfi_offset 5, -8
	movl	%esp, %ebp
.LCFI44:
	.cfi_def_cfa_register 5
	subl	$16, %esp
	.loc 2 399 0
	movl	$ptable+52, -4(%ebp)
.LVL122:
	jmp	.L65
.L67:
	.loc 2 400 0
	movl	-4(%ebp), %eax
	movl	12(%eax), %eax
	cmpl	$2, %eax
	jne	.L66
	.loc 2 400 0 is_stmt 0 discriminator 1
	movl	-4(%ebp), %eax
	movl	32(%eax), %eax
	cmpl	8(%ebp), %eax
	jne	.L66
	.loc 2 401 0 is_stmt 1
	movl	-4(%ebp), %eax
	movl	$3, 12(%eax)
.L66:
	.loc 2 399 0
	addl	$124, -4(%ebp)
.LVL123:
.L65:
	.loc 2 399 0 is_stmt 0 discriminator 1
	cmpl	$ptable+7988, -4(%ebp)
	jb	.L67
	.loc 2 402 0 is_stmt 1
	leave
.LCFI45:
	.cfi_restore 5
	.cfi_def_cfa 4, 4
	ret
	.cfi_endproc
.LFE32:
	.size	wakeup1, .-wakeup1
	.globl	wakeup
	.type	wakeup, @function
wakeup:
.LFB33:
	.loc 2 407 0
	.cfi_startproc
.LVL124:
	pushl	%ebp
.LCFI46:
	.cfi_def_cfa_offset 8
	.cfi_offset 5, -8
	movl	%esp, %ebp
.LCFI47:
	.cfi_def_cfa_register 5
	subl	$24, %esp
	.loc 2 408 0
	movl	$ptable, (%esp)
	call	acquire
.LVL125:
	.loc 2 409 0
	movl	8(%ebp), %eax
	movl	%eax, (%esp)
	call	wakeup1
.LVL126:
	.loc 2 410 0
	movl	$ptable, (%esp)
	call	release
.LVL127:
	.loc 2 411 0
	leave
.LCFI48:
	.cfi_restore 5
	.cfi_def_cfa 4, 4
	ret
	.cfi_endproc
.LFE33:
	.size	wakeup, .-wakeup
	.globl	kill
	.type	kill, @function
kill:
.LFB34:
	.loc 2 418 0
	.cfi_startproc
.LVL128:
	pushl	%ebp
.LCFI49:
	.cfi_def_cfa_offset 8
	.cfi_offset 5, -8
	movl	%esp, %ebp
.LCFI50:
	.cfi_def_cfa_register 5
	subl	$40, %esp
	.loc 2 421 0
	movl	$ptable, (%esp)
	call	acquire
.LVL129:
	.loc 2 422 0
	movl	$ptable+52, -12(%ebp)
.LVL130:
	jmp	.L70
.L74:
	.loc 2 423 0
	movl	-12(%ebp), %eax
	movl	16(%eax), %eax
	cmpl	8(%ebp), %eax
	jne	.L71
	.loc 2 424 0
	movl	-12(%ebp), %eax
	movl	$1, 36(%eax)
	.loc 2 426 0
	movl	-12(%ebp), %eax
	movl	12(%eax), %eax
	cmpl	$2, %eax
	jne	.L72
	.loc 2 427 0
	movl	-12(%ebp), %eax
	movl	$3, 12(%eax)
.L72:
	.loc 2 428 0
	movl	$ptable, (%esp)
	call	release
.LVL131:
	.loc 2 429 0
	movl	$0, %eax
	jmp	.L73
.L71:
	.loc 2 422 0
	addl	$124, -12(%ebp)
.LVL132:
.L70:
	.loc 2 422 0 is_stmt 0 discriminator 1
	cmpl	$ptable+7988, -12(%ebp)
	jb	.L74
	.loc 2 432 0 is_stmt 1
	movl	$ptable, (%esp)
	call	release
.LVL133:
	.loc 2 433 0
	movl	$-1, %eax
.L73:
	.loc 2 434 0
	leave
.LCFI51:
	.cfi_restore 5
	.cfi_def_cfa 4, 4
	ret
	.cfi_endproc
.LFE34:
	.size	kill, .-kill
	.section	.rodata
.LC12:
	.string	"???"
.LC13:
	.string	"%d %s %s"
.LC14:
	.string	" %p"
.LC15:
	.string	"\n"
	.text
	.globl	procdump
	.type	procdump, @function
procdump:
.LFB35:
	.loc 2 442 0
	.cfi_startproc
	pushl	%ebp
.LCFI52:
	.cfi_def_cfa_offset 8
	.cfi_offset 5, -8
	movl	%esp, %ebp
.LCFI53:
	.cfi_def_cfa_register 5
	subl	$88, %esp
	.loc 2 456 0
	movl	$ptable+52, -16(%ebp)
.LVL134:
	jmp	.L76
.L84:
	.loc 2 457 0
	movl	-16(%ebp), %eax
	movl	12(%eax), %eax
	testl	%eax, %eax
	jne	.L77
	.loc 2 458 0
	jmp	.L78
.L77:
	.loc 2 459 0
	movl	-16(%ebp), %eax
	movl	12(%eax), %eax
	cmpl	$5, %eax
	ja	.L79
	.loc 2 459 0 is_stmt 0 discriminator 1
	movl	-16(%ebp), %eax
	movl	12(%eax), %eax
	movl	states.1571(,%eax,4), %eax
	testl	%eax, %eax
	je	.L79
	.loc 2 460 0 is_stmt 1
	movl	-16(%ebp), %eax
	movl	12(%eax), %eax
	movl	states.1571(,%eax,4), %eax
	movl	%eax, -20(%ebp)
.LVL135:
	jmp	.L80
.LVL136:
.L79:
	.loc 2 462 0
	movl	$.LC12, -20(%ebp)
.LVL137:
.L80:
	.loc 2 463 0
	movl	-16(%ebp), %eax
	leal	108(%eax), %edx
	movl	-16(%ebp), %eax
	movl	16(%eax), %eax
	movl	%edx, 12(%esp)
	movl	-20(%ebp), %edx
	movl	%edx, 8(%esp)
	movl	%eax, 4(%esp)
	movl	$.LC13, (%esp)
	call	cprintf
.LVL138:
	.loc 2 464 0
	movl	-16(%ebp), %eax
	movl	12(%eax), %eax
	cmpl	$2, %eax
	jne	.L81
	.loc 2 465 0
	movl	-16(%ebp), %eax
	movl	28(%eax), %eax
	movl	12(%eax), %eax
	addl	$8, %eax
	leal	-60(%ebp), %edx
	movl	%edx, 4(%esp)
	movl	%eax, (%esp)
	call	getcallerpcs
.LVL139:
	.loc 2 466 0
	movl	$0, -12(%ebp)
.LVL140:
	jmp	.L82
.L83:
	.loc 2 467 0 discriminator 1
	movl	-12(%ebp), %eax
	movl	-60(%ebp,%eax,4), %eax
	movl	%eax, 4(%esp)
	movl	$.LC14, (%esp)
	call	cprintf
.LVL141:
	.loc 2 466 0 discriminator 1
	addl	$1, -12(%ebp)
.L82:
	cmpl	$9, -12(%ebp)
	jg	.L81
	.loc 2 466 0 is_stmt 0 discriminator 2
	movl	-12(%ebp), %eax
	movl	-60(%ebp,%eax,4), %eax
	testl	%eax, %eax
	jne	.L83
.LVL142:
.L81:
	.loc 2 469 0 is_stmt 1
	movl	$.LC15, (%esp)
	call	cprintf
.LVL143:
.L78:
	.loc 2 456 0
	addl	$124, -16(%ebp)
.L76:
	.loc 2 456 0 is_stmt 0 discriminator 1
	cmpl	$ptable+7988, -16(%ebp)
	jb	.L84
	.loc 2 471 0 is_stmt 1
	leave
.LCFI54:
	.cfi_restore 5
	.cfi_def_cfa 4, 4
.LVL144:
	ret
	.cfi_endproc
.LFE35:
	.size	procdump, .-procdump
	.data
	.align 4
	.type	first.1546, @object
	.size	first.1546, 4
first.1546:
	.long	1
	.section	.rodata
.LC16:
	.string	"unused"
.LC17:
	.string	"embryo"
.LC18:
	.string	"sleep "
.LC19:
	.string	"runble"
.LC20:
	.string	"run   "
.LC21:
	.string	"zombie"
	.data
	.align 4
	.type	states.1571, @object
	.size	states.1571, 24
states.1571:
	.long	.LC16
	.long	.LC17
	.long	.LC18
	.long	.LC19
	.long	.LC20
	.long	.LC21
	.text
.Letext0:
	.file 3 "types.h"
	.file 4 "mmu.h"
	.file 5 "proc.h"
	.file 6 "spinlock.h"
	.file 7 "defs.h"
	.section	.note.GNU-stack,"",@progbits
