	.file	"sh.c"
	.text
.Ltext0:
	.section	.rodata
.LC0:
	.string	"runcmd"
.LC1:
	.string	"exec %s failed\n"
.LC2:
	.string	"open %s failed\n"
.LC3:
	.string	"pipe"
	.text
	.globl	runcmd
	.type	runcmd, @function
runcmd:
.LFB0:
	.file 1 "sh.c"
	.loc 1 59 0
	.cfi_startproc
.LVL0:
	pushl	%ebp
.LCFI0:
	.cfi_def_cfa_offset 8
	.cfi_offset 5, -8
	movl	%esp, %ebp
.LCFI1:
	.cfi_def_cfa_register 5
	subl	$56, %esp
	.loc 1 67 0
	cmpl	$0, 8(%ebp)
	jne	.L2
	.loc 1 68 0
	call	exit
.LVL1:
.L2:
	.loc 1 70 0
	movl	8(%ebp), %eax
	movl	(%eax), %eax
	cmpl	$5, %eax
	ja	.L3
	movl	.L5(,%eax,4), %eax
	jmp	*%eax
	.section	.rodata
	.align 4
	.align 4
.L5:
	.long	.L3
	.long	.L4
	.long	.L6
	.long	.L7
	.long	.L8
	.long	.L9
	.text
.L3:
	.loc 1 72 0
	movl	$.LC0, (%esp)
	call	panic
.LVL2:
.L4:
	.loc 1 75 0
	movl	8(%ebp), %eax
	movl	%eax, -12(%ebp)
.LVL3:
	.loc 1 76 0
	movl	-12(%ebp), %eax
	movl	4(%eax), %eax
.LVL4:
	testl	%eax, %eax
	jne	.L10
	.loc 1 77 0
	call	exit
.LVL5:
.L10:
	.loc 1 78 0
	movl	-12(%ebp), %eax
	leal	4(%eax), %edx
	movl	-12(%ebp), %eax
	movl	4(%eax), %eax
	movl	%edx, 4(%esp)
	movl	%eax, (%esp)
	call	exec
.LVL6:
	.loc 1 79 0
	movl	-12(%ebp), %eax
	movl	4(%eax), %eax
	movl	%eax, 8(%esp)
	movl	$.LC1, 4(%esp)
	movl	$2, (%esp)
	call	printf
.LVL7:
	.loc 1 80 0
	jmp	.L11
.LVL8:
.L6:
	.loc 1 83 0
	movl	8(%ebp), %eax
	movl	%eax, -16(%ebp)
.LVL9:
	.loc 1 84 0
	movl	-16(%ebp), %eax
	movl	20(%eax), %eax
.LVL10:
	movl	%eax, (%esp)
	call	close
.LVL11:
	.loc 1 85 0
	movl	-16(%ebp), %eax
	movl	16(%eax), %edx
	movl	-16(%ebp), %eax
	movl	8(%eax), %eax
	movl	%edx, 4(%esp)
	movl	%eax, (%esp)
	call	open
.LVL12:
	testl	%eax, %eax
	jns	.L12
	.loc 1 86 0
	movl	-16(%ebp), %eax
	movl	8(%eax), %eax
	movl	%eax, 8(%esp)
	movl	$.LC2, 4(%esp)
	movl	$2, (%esp)
	call	printf
.LVL13:
	.loc 1 87 0
	call	exit
.LVL14:
.L12:
	.loc 1 89 0
	movl	-16(%ebp), %eax
	movl	4(%eax), %eax
	movl	%eax, (%esp)
	call	runcmd
.LVL15:
	.loc 1 90 0
	jmp	.L11
.LVL16:
.L8:
	.loc 1 93 0
	movl	8(%ebp), %eax
	movl	%eax, -20(%ebp)
.LVL17:
	.loc 1 94 0
	call	fork1
.LVL18:
	testl	%eax, %eax
	jne	.L13
	.loc 1 95 0
	movl	-20(%ebp), %eax
	movl	4(%eax), %eax
	movl	%eax, (%esp)
	call	runcmd
.LVL19:
.L13:
	.loc 1 96 0
	call	wait
.LVL20:
	.loc 1 97 0
	movl	-20(%ebp), %eax
	movl	8(%eax), %eax
	movl	%eax, (%esp)
	call	runcmd
.LVL21:
	.loc 1 98 0
	jmp	.L11
.LVL22:
.L7:
	.loc 1 101 0
	movl	8(%ebp), %eax
	movl	%eax, -24(%ebp)
.LVL23:
	.loc 1 102 0
	leal	-36(%ebp), %eax
.LVL24:
	movl	%eax, (%esp)
	call	pipe
.LVL25:
	testl	%eax, %eax
	jns	.L14
	.loc 1 103 0
	movl	$.LC3, (%esp)
	call	panic
.LVL26:
.L14:
	.loc 1 104 0
	call	fork1
.LVL27:
	testl	%eax, %eax
	jne	.L15
	.loc 1 105 0
	movl	$1, (%esp)
	call	close
.LVL28:
	.loc 1 106 0
	movl	-32(%ebp), %eax
	movl	%eax, (%esp)
	call	dup
.LVL29:
	.loc 1 107 0
	movl	-36(%ebp), %eax
	movl	%eax, (%esp)
	call	close
.LVL30:
	.loc 1 108 0
	movl	-32(%ebp), %eax
	movl	%eax, (%esp)
	call	close
.LVL31:
	.loc 1 109 0
	movl	-24(%ebp), %eax
	movl	4(%eax), %eax
	movl	%eax, (%esp)
	call	runcmd
.LVL32:
.L15:
	.loc 1 111 0
	call	fork1
.LVL33:
	testl	%eax, %eax
	jne	.L16
	.loc 1 112 0
	movl	$0, (%esp)
	call	close
.LVL34:
	.loc 1 113 0
	movl	-36(%ebp), %eax
	movl	%eax, (%esp)
	call	dup
.LVL35:
	.loc 1 114 0
	movl	-36(%ebp), %eax
	movl	%eax, (%esp)
	call	close
.LVL36:
	.loc 1 115 0
	movl	-32(%ebp), %eax
	movl	%eax, (%esp)
	call	close
.LVL37:
	.loc 1 116 0
	movl	-24(%ebp), %eax
	movl	8(%eax), %eax
	movl	%eax, (%esp)
	call	runcmd
.LVL38:
.L16:
	.loc 1 118 0
	movl	-36(%ebp), %eax
	movl	%eax, (%esp)
	call	close
.LVL39:
	.loc 1 119 0
	movl	-32(%ebp), %eax
	movl	%eax, (%esp)
	call	close
.LVL40:
	.loc 1 120 0
	call	wait
.LVL41:
	.loc 1 121 0
	call	wait
.LVL42:
	.loc 1 122 0
	jmp	.L11
.LVL43:
.L9:
	.loc 1 125 0
	movl	8(%ebp), %eax
	movl	%eax, -28(%ebp)
.LVL44:
	.loc 1 126 0
	call	fork1
.LVL45:
	testl	%eax, %eax
	jne	.L17
	.loc 1 127 0
	movl	-28(%ebp), %eax
	movl	4(%eax), %eax
	movl	%eax, (%esp)
	call	runcmd
.LVL46:
	.loc 1 128 0
	jmp	.L18
.L17:
.L18:
	nop
.LVL47:
.L11:
	.loc 1 130 0
	call	exit
.LVL48:
	.cfi_endproc
.LFE0:
	.size	runcmd, .-runcmd
	.section	.rodata
.LC4:
	.string	"$ "
	.text
	.globl	getcmd
	.type	getcmd, @function
getcmd:
.LFB1:
	.loc 1 135 0
	.cfi_startproc
.LVL49:
	pushl	%ebp
.LCFI2:
	.cfi_def_cfa_offset 8
	.cfi_offset 5, -8
	movl	%esp, %ebp
.LCFI3:
	.cfi_def_cfa_register 5
	subl	$24, %esp
	.loc 1 136 0
	movl	$.LC4, 4(%esp)
	movl	$2, (%esp)
	call	printf
.LVL50:
	.loc 1 137 0
	movl	12(%ebp), %eax
	movl	%eax, 8(%esp)
	movl	$0, 4(%esp)
	movl	8(%ebp), %eax
	movl	%eax, (%esp)
	call	memset
.LVL51:
	.loc 1 138 0
	movl	12(%ebp), %eax
	movl	%eax, 4(%esp)
	movl	8(%ebp), %eax
	movl	%eax, (%esp)
	call	gets
.LVL52:
	.loc 1 139 0
	movl	8(%ebp), %eax
	movzbl	(%eax), %eax
	testb	%al, %al
	jne	.L20
	.loc 1 140 0
	movl	$-1, %eax
	jmp	.L21
.L20:
	.loc 1 141 0
	movl	$0, %eax
.L21:
	.loc 1 142 0
	leave
.LCFI4:
	.cfi_restore 5
	.cfi_def_cfa 4, 4
	ret
	.cfi_endproc
.LFE1:
	.size	getcmd, .-getcmd
	.section	.rodata
.LC5:
	.string	"console"
.LC6:
	.string	"cannot cd %s\n"
	.text
	.globl	main
	.type	main, @function
main:
.LFB2:
	.loc 1 146 0
	.cfi_startproc
	pushl	%ebp
.LCFI5:
	.cfi_def_cfa_offset 8
	.cfi_offset 5, -8
	movl	%esp, %ebp
.LCFI6:
	.cfi_def_cfa_register 5
	andl	$-16, %esp
	subl	$32, %esp
	.loc 1 151 0
	jmp	.L23
.LVL53:
.L25:
	.loc 1 152 0
	cmpl	$2, 28(%esp)
	jle	.L23
	.loc 1 153 0
	movl	28(%esp), %eax
.LVL54:
	movl	%eax, (%esp)
	call	close
.LVL55:
	.loc 1 154 0
	jmp	.L24
.LVL56:
.L23:
	.loc 1 151 0 discriminator 1
	movl	$2, 4(%esp)
	movl	$.LC5, (%esp)
	call	open
.LVL57:
	movl	%eax, 28(%esp)
.LVL58:
	cmpl	$0, 28(%esp)
	jns	.L25
.LVL59:
.L24:
	.loc 1 159 0
	jmp	.L26
.L30:
	.loc 1 160 0
	movzbl	buf.1068, %eax
	cmpb	$99, %al
	jne	.L27
	.loc 1 160 0 is_stmt 0 discriminator 1
	movzbl	buf.1068+1, %eax
	cmpb	$100, %al
	jne	.L27
	movzbl	buf.1068+2, %eax
	cmpb	$32, %al
	jne	.L27
	.loc 1 163 0 is_stmt 1
	movl	$buf.1068, (%esp)
	call	strlen
.LVL60:
	subl	$1, %eax
	movb	$0, buf.1068(%eax)
	.loc 1 164 0
	movl	$buf.1068+3, (%esp)
	call	chdir
.LVL61:
	testl	%eax, %eax
	jns	.L28
	.loc 1 165 0
	movl	$buf.1068+3, 8(%esp)
	movl	$.LC6, 4(%esp)
	movl	$2, (%esp)
	call	printf
.LVL62:
	.loc 1 166 0
	jmp	.L26
.L28:
	jmp	.L26
.L27:
	.loc 1 168 0
	call	fork1
.LVL63:
	testl	%eax, %eax
	jne	.L29
	.loc 1 169 0
	movl	$buf.1068, (%esp)
	call	parsecmd
.LVL64:
	movl	%eax, (%esp)
	call	runcmd
.LVL65:
.L29:
	.loc 1 170 0
	call	wait
.LVL66:
.L26:
	.loc 1 159 0 discriminator 1
	movl	$100, 4(%esp)
	movl	$buf.1068, (%esp)
	call	getcmd
.LVL67:
	testl	%eax, %eax
	jns	.L30
	.loc 1 172 0
	call	exit
.LVL68:
	.cfi_endproc
.LFE2:
	.size	main, .-main
	.section	.rodata
.LC7:
	.string	"%s\n"
	.text
	.globl	panic
	.type	panic, @function
panic:
.LFB3:
	.loc 1 177 0
	.cfi_startproc
.LVL69:
	pushl	%ebp
.LCFI7:
	.cfi_def_cfa_offset 8
	.cfi_offset 5, -8
	movl	%esp, %ebp
.LCFI8:
	.cfi_def_cfa_register 5
	subl	$24, %esp
	.loc 1 178 0
	movl	8(%ebp), %eax
	movl	%eax, 8(%esp)
	movl	$.LC7, 4(%esp)
	movl	$2, (%esp)
	call	printf
.LVL70:
	.loc 1 179 0
	call	exit
.LVL71:
	.cfi_endproc
.LFE3:
	.size	panic, .-panic
	.section	.rodata
.LC8:
	.string	"fork"
	.text
	.globl	fork1
	.type	fork1, @function
fork1:
.LFB4:
	.loc 1 184 0
	.cfi_startproc
	pushl	%ebp
.LCFI9:
	.cfi_def_cfa_offset 8
	.cfi_offset 5, -8
	movl	%esp, %ebp
.LCFI10:
	.cfi_def_cfa_register 5
	subl	$40, %esp
	.loc 1 187 0
	call	fork
.LVL72:
	movl	%eax, -12(%ebp)
.LVL73:
	.loc 1 188 0
	cmpl	$-1, -12(%ebp)
	jne	.L33
	.loc 1 189 0
	movl	$.LC8, (%esp)
	call	panic
.LVL74:
.L33:
	.loc 1 190 0
	movl	-12(%ebp), %eax
	.loc 1 191 0
	leave
.LCFI11:
	.cfi_restore 5
	.cfi_def_cfa 4, 4
.LVL75:
	ret
	.cfi_endproc
.LFE4:
	.size	fork1, .-fork1
	.globl	execcmd
	.type	execcmd, @function
execcmd:
.LFB5:
	.loc 1 198 0
	.cfi_startproc
	pushl	%ebp
.LCFI12:
	.cfi_def_cfa_offset 8
	.cfi_offset 5, -8
	movl	%esp, %ebp
.LCFI13:
	.cfi_def_cfa_register 5
	subl	$40, %esp
	.loc 1 201 0
	movl	$84, (%esp)
	call	malloc
.LVL76:
	movl	%eax, -12(%ebp)
.LVL77:
	.loc 1 202 0
	movl	$84, 8(%esp)
	movl	$0, 4(%esp)
	movl	-12(%ebp), %eax
	movl	%eax, (%esp)
	call	memset
.LVL78:
	.loc 1 203 0
	movl	-12(%ebp), %eax
	movl	$1, (%eax)
	.loc 1 204 0
	movl	-12(%ebp), %eax
	.loc 1 205 0
	leave
.LCFI14:
	.cfi_restore 5
	.cfi_def_cfa 4, 4
.LVL79:
	ret
	.cfi_endproc
.LFE5:
	.size	execcmd, .-execcmd
	.globl	redircmd
	.type	redircmd, @function
redircmd:
.LFB6:
	.loc 1 209 0
	.cfi_startproc
.LVL80:
	pushl	%ebp
.LCFI15:
	.cfi_def_cfa_offset 8
	.cfi_offset 5, -8
	movl	%esp, %ebp
.LCFI16:
	.cfi_def_cfa_register 5
	subl	$40, %esp
	.loc 1 212 0
	movl	$24, (%esp)
	call	malloc
.LVL81:
	movl	%eax, -12(%ebp)
.LVL82:
	.loc 1 213 0
	movl	$24, 8(%esp)
	movl	$0, 4(%esp)
	movl	-12(%ebp), %eax
	movl	%eax, (%esp)
	call	memset
.LVL83:
	.loc 1 214 0
	movl	-12(%ebp), %eax
	movl	$2, (%eax)
	.loc 1 215 0
	movl	-12(%ebp), %eax
	movl	8(%ebp), %edx
	movl	%edx, 4(%eax)
	.loc 1 216 0
	movl	-12(%ebp), %eax
	movl	12(%ebp), %edx
	movl	%edx, 8(%eax)
	.loc 1 217 0
	movl	-12(%ebp), %eax
	movl	16(%ebp), %edx
	movl	%edx, 12(%eax)
	.loc 1 218 0
	movl	-12(%ebp), %eax
	movl	20(%ebp), %edx
	movl	%edx, 16(%eax)
	.loc 1 219 0
	movl	-12(%ebp), %eax
	movl	24(%ebp), %edx
	movl	%edx, 20(%eax)
	.loc 1 220 0
	movl	-12(%ebp), %eax
	.loc 1 221 0
	leave
.LCFI17:
	.cfi_restore 5
	.cfi_def_cfa 4, 4
	ret
	.cfi_endproc
.LFE6:
	.size	redircmd, .-redircmd
	.globl	pipecmd
	.type	pipecmd, @function
pipecmd:
.LFB7:
	.loc 1 225 0
	.cfi_startproc
.LVL84:
	pushl	%ebp
.LCFI18:
	.cfi_def_cfa_offset 8
	.cfi_offset 5, -8
	movl	%esp, %ebp
.LCFI19:
	.cfi_def_cfa_register 5
	subl	$40, %esp
	.loc 1 228 0
	movl	$12, (%esp)
	call	malloc
.LVL85:
	movl	%eax, -12(%ebp)
.LVL86:
	.loc 1 229 0
	movl	$12, 8(%esp)
	movl	$0, 4(%esp)
	movl	-12(%ebp), %eax
	movl	%eax, (%esp)
	call	memset
.LVL87:
	.loc 1 230 0
	movl	-12(%ebp), %eax
	movl	$3, (%eax)
	.loc 1 231 0
	movl	-12(%ebp), %eax
	movl	8(%ebp), %edx
	movl	%edx, 4(%eax)
	.loc 1 232 0
	movl	-12(%ebp), %eax
	movl	12(%ebp), %edx
	movl	%edx, 8(%eax)
	.loc 1 233 0
	movl	-12(%ebp), %eax
	.loc 1 234 0
	leave
.LCFI20:
	.cfi_restore 5
	.cfi_def_cfa 4, 4
	ret
	.cfi_endproc
.LFE7:
	.size	pipecmd, .-pipecmd
	.globl	listcmd
	.type	listcmd, @function
listcmd:
.LFB8:
	.loc 1 238 0
	.cfi_startproc
.LVL88:
	pushl	%ebp
.LCFI21:
	.cfi_def_cfa_offset 8
	.cfi_offset 5, -8
	movl	%esp, %ebp
.LCFI22:
	.cfi_def_cfa_register 5
	subl	$40, %esp
	.loc 1 241 0
	movl	$12, (%esp)
	call	malloc
.LVL89:
	movl	%eax, -12(%ebp)
.LVL90:
	.loc 1 242 0
	movl	$12, 8(%esp)
	movl	$0, 4(%esp)
	movl	-12(%ebp), %eax
	movl	%eax, (%esp)
	call	memset
.LVL91:
	.loc 1 243 0
	movl	-12(%ebp), %eax
	movl	$4, (%eax)
	.loc 1 244 0
	movl	-12(%ebp), %eax
	movl	8(%ebp), %edx
	movl	%edx, 4(%eax)
	.loc 1 245 0
	movl	-12(%ebp), %eax
	movl	12(%ebp), %edx
	movl	%edx, 8(%eax)
	.loc 1 246 0
	movl	-12(%ebp), %eax
	.loc 1 247 0
	leave
.LCFI23:
	.cfi_restore 5
	.cfi_def_cfa 4, 4
	ret
	.cfi_endproc
.LFE8:
	.size	listcmd, .-listcmd
	.globl	backcmd
	.type	backcmd, @function
backcmd:
.LFB9:
	.loc 1 251 0
	.cfi_startproc
.LVL92:
	pushl	%ebp
.LCFI24:
	.cfi_def_cfa_offset 8
	.cfi_offset 5, -8
	movl	%esp, %ebp
.LCFI25:
	.cfi_def_cfa_register 5
	subl	$40, %esp
	.loc 1 254 0
	movl	$8, (%esp)
	call	malloc
.LVL93:
	movl	%eax, -12(%ebp)
.LVL94:
	.loc 1 255 0
	movl	$8, 8(%esp)
	movl	$0, 4(%esp)
	movl	-12(%ebp), %eax
	movl	%eax, (%esp)
	call	memset
.LVL95:
	.loc 1 256 0
	movl	-12(%ebp), %eax
	movl	$5, (%eax)
	.loc 1 257 0
	movl	-12(%ebp), %eax
	movl	8(%ebp), %edx
	movl	%edx, 4(%eax)
	.loc 1 258 0
	movl	-12(%ebp), %eax
	.loc 1 259 0
	leave
.LCFI26:
	.cfi_restore 5
	.cfi_def_cfa 4, 4
	ret
	.cfi_endproc
.LFE9:
	.size	backcmd, .-backcmd
	.globl	whitespace
	.data
	.type	whitespace, @object
	.size	whitespace, 6
whitespace:
	.string	" \t\r\n\013"
	.globl	symbols
	.type	symbols, @object
	.size	symbols, 8
symbols:
	.string	"<|>&;()"
	.text
	.globl	gettoken
	.type	gettoken, @function
gettoken:
.LFB10:
	.loc 1 268 0
	.cfi_startproc
.LVL96:
	pushl	%ebp
.LCFI27:
	.cfi_def_cfa_offset 8
	.cfi_offset 5, -8
	movl	%esp, %ebp
.LCFI28:
	.cfi_def_cfa_register 5
	subl	$40, %esp
	.loc 1 272 0
	movl	8(%ebp), %eax
	movl	(%eax), %eax
	movl	%eax, -12(%ebp)
.LVL97:
	.loc 1 273 0
	jmp	.L46
.LVL98:
.L48:
	.loc 1 274 0
	addl	$1, -12(%ebp)
.L46:
	.loc 1 273 0 discriminator 1
	movl	-12(%ebp), %eax
	cmpl	12(%ebp), %eax
	jnb	.L47
	.loc 1 273 0 is_stmt 0 discriminator 2
	movl	-12(%ebp), %eax
	movzbl	(%eax), %eax
	movsbl	%al, %eax
	movl	%eax, 4(%esp)
	movl	$whitespace, (%esp)
	call	strchr
.LVL99:
	testl	%eax, %eax
	jne	.L48
.L47:
	.loc 1 275 0 is_stmt 1
	cmpl	$0, 16(%ebp)
	je	.L49
	.loc 1 276 0
	movl	16(%ebp), %eax
	movl	-12(%ebp), %edx
	movl	%edx, (%eax)
.L49:
	.loc 1 277 0
	movl	-12(%ebp), %eax
	movzbl	(%eax), %eax
	movsbl	%al, %eax
	movl	%eax, -16(%ebp)
.LVL100:
	.loc 1 278 0
	movl	-12(%ebp), %eax
.LVL101:
	movzbl	(%eax), %eax
	movsbl	%al, %eax
	cmpl	$41, %eax
	jg	.L51
	cmpl	$40, %eax
	jge	.L52
	testl	%eax, %eax
	je	.L66
	cmpl	$38, %eax
	je	.L52
	jmp	.L50
.L51:
	cmpl	$62, %eax
	je	.L54
	cmpl	$62, %eax
	jg	.L55
	subl	$59, %eax
	cmpl	$1, %eax
	ja	.L50
	jmp	.L52
.LVL102:
.L55:
	cmpl	$124, %eax
	jne	.L50
.LVL103:
.L52:
	.loc 1 287 0
	addl	$1, -12(%ebp)
	.loc 1 288 0
	jmp	.L56
.LVL104:
.L54:
	.loc 1 290 0
	addl	$1, -12(%ebp)
	.loc 1 291 0
	movl	-12(%ebp), %eax
.LVL105:
	movzbl	(%eax), %eax
	cmpb	$62, %al
	jne	.L57
	.loc 1 292 0
	movl	$43, -16(%ebp)
.LVL106:
	.loc 1 293 0
	addl	$1, -12(%ebp)
.LVL107:
	.loc 1 295 0
	jmp	.L56
.L57:
	jmp	.L56
.L50:
	.loc 1 297 0
	movl	$97, -16(%ebp)
.LVL108:
	.loc 1 298 0
	jmp	.L58
.L60:
	.loc 1 299 0
	addl	$1, -12(%ebp)
.L58:
	.loc 1 298 0 discriminator 1
	movl	-12(%ebp), %eax
	cmpl	12(%ebp), %eax
	jnb	.L59
	.loc 1 298 0 is_stmt 0 discriminator 2
	movl	-12(%ebp), %eax
	movzbl	(%eax), %eax
	movsbl	%al, %eax
	movl	%eax, 4(%esp)
	movl	$whitespace, (%esp)
	call	strchr
.LVL109:
	testl	%eax, %eax
	jne	.L59
	.loc 1 298 0 discriminator 1
	movl	-12(%ebp), %eax
	movzbl	(%eax), %eax
	movsbl	%al, %eax
	movl	%eax, 4(%esp)
	movl	$symbols, (%esp)
	call	strchr
.LVL110:
	testl	%eax, %eax
	je	.L60
.L59:
	.loc 1 300 0 is_stmt 1
	jmp	.L56
.LVL111:
.L66:
	.loc 1 280 0
	nop
.LVL112:
.L56:
	.loc 1 302 0
	cmpl	$0, 20(%ebp)
	je	.L61
	.loc 1 303 0
	movl	20(%ebp), %eax
	movl	-12(%ebp), %edx
	movl	%edx, (%eax)
	.loc 1 305 0
	jmp	.L62
.L61:
	jmp	.L62
.L64:
	.loc 1 306 0
	addl	$1, -12(%ebp)
.L62:
	.loc 1 305 0 discriminator 1
	movl	-12(%ebp), %eax
	cmpl	12(%ebp), %eax
	jnb	.L63
	.loc 1 305 0 is_stmt 0 discriminator 2
	movl	-12(%ebp), %eax
	movzbl	(%eax), %eax
	movsbl	%al, %eax
	movl	%eax, 4(%esp)
	movl	$whitespace, (%esp)
	call	strchr
.LVL113:
	testl	%eax, %eax
	jne	.L64
.L63:
	.loc 1 307 0 is_stmt 1
	movl	8(%ebp), %eax
	movl	-12(%ebp), %edx
	movl	%edx, (%eax)
	.loc 1 308 0
	movl	-16(%ebp), %eax
	.loc 1 309 0
	leave
.LCFI29:
	.cfi_restore 5
	.cfi_def_cfa 4, 4
	ret
	.cfi_endproc
.LFE10:
	.size	gettoken, .-gettoken
	.globl	peek
	.type	peek, @function
peek:
.LFB11:
	.loc 1 313 0
	.cfi_startproc
.LVL114:
	pushl	%ebp
.LCFI30:
	.cfi_def_cfa_offset 8
	.cfi_offset 5, -8
	movl	%esp, %ebp
.LCFI31:
	.cfi_def_cfa_register 5
	subl	$40, %esp
	.loc 1 316 0
	movl	8(%ebp), %eax
	movl	(%eax), %eax
	movl	%eax, -12(%ebp)
.LVL115:
	.loc 1 317 0
	jmp	.L68
.LVL116:
.L70:
	.loc 1 318 0
	addl	$1, -12(%ebp)
.L68:
	.loc 1 317 0 discriminator 1
	movl	-12(%ebp), %eax
	cmpl	12(%ebp), %eax
	jnb	.L69
	.loc 1 317 0 is_stmt 0 discriminator 2
	movl	-12(%ebp), %eax
	movzbl	(%eax), %eax
	movsbl	%al, %eax
	movl	%eax, 4(%esp)
	movl	$whitespace, (%esp)
	call	strchr
.LVL117:
	testl	%eax, %eax
	jne	.L70
.L69:
	.loc 1 319 0 is_stmt 1
	movl	8(%ebp), %eax
	movl	-12(%ebp), %edx
	movl	%edx, (%eax)
	.loc 1 320 0
	movl	-12(%ebp), %eax
	movzbl	(%eax), %eax
	testb	%al, %al
	je	.L71
	.loc 1 320 0 is_stmt 0 discriminator 1
	movl	-12(%ebp), %eax
	movzbl	(%eax), %eax
	movsbl	%al, %eax
	movl	%eax, 4(%esp)
	movl	16(%ebp), %eax
	movl	%eax, (%esp)
	call	strchr
.LVL118:
	testl	%eax, %eax
	je	.L71
	.loc 1 320 0 discriminator 3
	movl	$1, %eax
	jmp	.L72
.L71:
	.loc 1 320 0 discriminator 2
	movl	$0, %eax
.L72:
	.loc 1 321 0 is_stmt 1 discriminator 4
	leave
.LCFI32:
	.cfi_restore 5
	.cfi_def_cfa 4, 4
	ret
	.cfi_endproc
.LFE11:
	.size	peek, .-peek
	.section	.rodata
.LC9:
	.string	""
.LC10:
	.string	"leftovers: %s\n"
.LC11:
	.string	"syntax"
	.text
	.globl	parsecmd
	.type	parsecmd, @function
parsecmd:
.LFB12:
	.loc 1 330 0
	.cfi_startproc
.LVL119:
	pushl	%ebp
.LCFI33:
	.cfi_def_cfa_offset 8
	.cfi_offset 5, -8
	movl	%esp, %ebp
.LCFI34:
	.cfi_def_cfa_register 5
	pushl	%ebx
	subl	$36, %esp
	.cfi_offset 3, -12
	.loc 1 334 0
	movl	8(%ebp), %ebx
	movl	8(%ebp), %eax
	movl	%eax, (%esp)
	call	strlen
.LVL120:
	addl	%ebx, %eax
	movl	%eax, -12(%ebp)
.LVL121:
	.loc 1 335 0
	movl	-12(%ebp), %eax
	movl	%eax, 4(%esp)
	leal	8(%ebp), %eax
.LVL122:
	movl	%eax, (%esp)
	call	parseline
.LVL123:
	movl	%eax, -16(%ebp)
.LVL124:
	.loc 1 336 0
	movl	$.LC9, 8(%esp)
	movl	-12(%ebp), %eax
.LVL125:
	movl	%eax, 4(%esp)
	leal	8(%ebp), %eax
.LVL126:
	movl	%eax, (%esp)
	call	peek
.LVL127:
	.loc 1 337 0
	movl	8(%ebp), %eax
	cmpl	-12(%ebp), %eax
	je	.L75
	.loc 1 338 0
	movl	8(%ebp), %eax
	movl	%eax, 8(%esp)
	movl	$.LC10, 4(%esp)
	movl	$2, (%esp)
	call	printf
.LVL128:
	.loc 1 339 0
	movl	$.LC11, (%esp)
	call	panic
.LVL129:
.L75:
	.loc 1 341 0
	movl	-16(%ebp), %eax
	movl	%eax, (%esp)
	call	nulterminate
.LVL130:
	.loc 1 342 0
	movl	-16(%ebp), %eax
	.loc 1 343 0
	addl	$36, %esp
	popl	%ebx
	.cfi_restore 3
	popl	%ebp
.LCFI35:
	.cfi_restore 5
	.cfi_def_cfa 4, 4
.LVL131:
	ret
	.cfi_endproc
.LFE12:
	.size	parsecmd, .-parsecmd
	.section	.rodata
.LC12:
	.string	"&"
.LC13:
	.string	";"
	.text
	.globl	parseline
	.type	parseline, @function
parseline:
.LFB13:
	.loc 1 347 0
	.cfi_startproc
.LVL132:
	pushl	%ebp
.LCFI36:
	.cfi_def_cfa_offset 8
	.cfi_offset 5, -8
	movl	%esp, %ebp
.LCFI37:
	.cfi_def_cfa_register 5
	subl	$40, %esp
	.loc 1 350 0
	movl	12(%ebp), %eax
	movl	%eax, 4(%esp)
	movl	8(%ebp), %eax
	movl	%eax, (%esp)
	call	parsepipe
.LVL133:
	movl	%eax, -12(%ebp)
.LVL134:
	.loc 1 351 0
	jmp	.L78
.LVL135:
.L79:
	.loc 1 352 0
	movl	$0, 12(%esp)
	movl	$0, 8(%esp)
	movl	12(%ebp), %eax
	movl	%eax, 4(%esp)
	movl	8(%ebp), %eax
	movl	%eax, (%esp)
	call	gettoken
.LVL136:
	.loc 1 353 0
	movl	-12(%ebp), %eax
	movl	%eax, (%esp)
	call	backcmd
.LVL137:
	movl	%eax, -12(%ebp)
.LVL138:
.L78:
	.loc 1 351 0 discriminator 1
	movl	$.LC12, 8(%esp)
	movl	12(%ebp), %eax
	movl	%eax, 4(%esp)
	movl	8(%ebp), %eax
	movl	%eax, (%esp)
	call	peek
.LVL139:
	testl	%eax, %eax
	jne	.L79
	.loc 1 355 0
	movl	$.LC13, 8(%esp)
	movl	12(%ebp), %eax
	movl	%eax, 4(%esp)
	movl	8(%ebp), %eax
	movl	%eax, (%esp)
	call	peek
.LVL140:
	testl	%eax, %eax
	je	.L80
	.loc 1 356 0
	movl	$0, 12(%esp)
	movl	$0, 8(%esp)
	movl	12(%ebp), %eax
	movl	%eax, 4(%esp)
	movl	8(%ebp), %eax
	movl	%eax, (%esp)
	call	gettoken
.LVL141:
	.loc 1 357 0
	movl	12(%ebp), %eax
	movl	%eax, 4(%esp)
	movl	8(%ebp), %eax
	movl	%eax, (%esp)
	call	parseline
.LVL142:
	movl	%eax, 4(%esp)
	movl	-12(%ebp), %eax
	movl	%eax, (%esp)
	call	listcmd
.LVL143:
	movl	%eax, -12(%ebp)
.LVL144:
.L80:
	.loc 1 359 0
	movl	-12(%ebp), %eax
	.loc 1 360 0
	leave
.LCFI38:
	.cfi_restore 5
	.cfi_def_cfa 4, 4
	ret
	.cfi_endproc
.LFE13:
	.size	parseline, .-parseline
	.section	.rodata
.LC14:
	.string	"|"
	.text
	.globl	parsepipe
	.type	parsepipe, @function
parsepipe:
.LFB14:
	.loc 1 364 0
	.cfi_startproc
.LVL145:
	pushl	%ebp
.LCFI39:
	.cfi_def_cfa_offset 8
	.cfi_offset 5, -8
	movl	%esp, %ebp
.LCFI40:
	.cfi_def_cfa_register 5
	subl	$40, %esp
	.loc 1 367 0
	movl	12(%ebp), %eax
	movl	%eax, 4(%esp)
	movl	8(%ebp), %eax
	movl	%eax, (%esp)
	call	parseexec
.LVL146:
	movl	%eax, -12(%ebp)
.LVL147:
	.loc 1 368 0
	movl	$.LC14, 8(%esp)
	movl	12(%ebp), %eax
.LVL148:
	movl	%eax, 4(%esp)
	movl	8(%ebp), %eax
	movl	%eax, (%esp)
	call	peek
.LVL149:
	testl	%eax, %eax
	je	.L83
	.loc 1 369 0
	movl	$0, 12(%esp)
	movl	$0, 8(%esp)
	movl	12(%ebp), %eax
	movl	%eax, 4(%esp)
	movl	8(%ebp), %eax
	movl	%eax, (%esp)
	call	gettoken
.LVL150:
	.loc 1 370 0
	movl	12(%ebp), %eax
	movl	%eax, 4(%esp)
	movl	8(%ebp), %eax
	movl	%eax, (%esp)
	call	parsepipe
.LVL151:
	movl	%eax, 4(%esp)
	movl	-12(%ebp), %eax
	movl	%eax, (%esp)
	call	pipecmd
.LVL152:
	movl	%eax, -12(%ebp)
.LVL153:
.L83:
	.loc 1 372 0
	movl	-12(%ebp), %eax
	.loc 1 373 0
	leave
.LCFI41:
	.cfi_restore 5
	.cfi_def_cfa 4, 4
	ret
	.cfi_endproc
.LFE14:
	.size	parsepipe, .-parsepipe
	.section	.rodata
.LC15:
	.string	"missing file for redirection"
.LC16:
	.string	"<>"
	.text
	.globl	parseredirs
	.type	parseredirs, @function
parseredirs:
.LFB15:
	.loc 1 377 0
	.cfi_startproc
.LVL154:
	pushl	%ebp
.LCFI42:
	.cfi_def_cfa_offset 8
	.cfi_offset 5, -8
	movl	%esp, %ebp
.LCFI43:
	.cfi_def_cfa_register 5
	subl	$56, %esp
	.loc 1 381 0
	jmp	.L86
.L91:
	.loc 1 382 0
	movl	$0, 12(%esp)
	movl	$0, 8(%esp)
	movl	16(%ebp), %eax
	movl	%eax, 4(%esp)
	movl	12(%ebp), %eax
	movl	%eax, (%esp)
	call	gettoken
.LVL155:
	movl	%eax, -12(%ebp)
.LVL156:
	.loc 1 383 0
	leal	-20(%ebp), %eax
.LVL157:
	movl	%eax, 12(%esp)
	leal	-16(%ebp), %eax
	movl	%eax, 8(%esp)
	movl	16(%ebp), %eax
	movl	%eax, 4(%esp)
	movl	12(%ebp), %eax
	movl	%eax, (%esp)
	call	gettoken
.LVL158:
	cmpl	$97, %eax
	je	.L87
	.loc 1 384 0
	movl	$.LC15, (%esp)
	call	panic
.LVL159:
.L87:
	.loc 1 385 0
	movl	-12(%ebp), %eax
	cmpl	$60, %eax
	je	.L88
	cmpl	$62, %eax
	je	.L89
	cmpl	$43, %eax
	je	.L90
	jmp	.L86
.L88:
	.loc 1 387 0
	movl	-20(%ebp), %edx
	movl	-16(%ebp), %eax
	movl	$0, 16(%esp)
	movl	$0, 12(%esp)
	movl	%edx, 8(%esp)
	movl	%eax, 4(%esp)
	movl	8(%ebp), %eax
	movl	%eax, (%esp)
	call	redircmd
.LVL160:
	movl	%eax, 8(%ebp)
.LVL161:
	.loc 1 388 0
	jmp	.L86
.LVL162:
.L89:
	.loc 1 390 0
	movl	-20(%ebp), %edx
	movl	-16(%ebp), %eax
	movl	$1, 16(%esp)
	movl	$513, 12(%esp)
	movl	%edx, 8(%esp)
	movl	%eax, 4(%esp)
	movl	8(%ebp), %eax
	movl	%eax, (%esp)
	call	redircmd
.LVL163:
	movl	%eax, 8(%ebp)
.LVL164:
	.loc 1 391 0
	jmp	.L86
.LVL165:
.L90:
	.loc 1 393 0
	movl	-20(%ebp), %edx
	movl	-16(%ebp), %eax
	movl	$1, 16(%esp)
	movl	$513, 12(%esp)
	movl	%edx, 8(%esp)
	movl	%eax, 4(%esp)
	movl	8(%ebp), %eax
	movl	%eax, (%esp)
	call	redircmd
.LVL166:
	movl	%eax, 8(%ebp)
.LVL167:
	.loc 1 394 0
	nop
.LVL168:
.L86:
	.loc 1 381 0 discriminator 1
	movl	$.LC16, 8(%esp)
	movl	16(%ebp), %eax
	movl	%eax, 4(%esp)
	movl	12(%ebp), %eax
	movl	%eax, (%esp)
	call	peek
.LVL169:
	testl	%eax, %eax
	jne	.L91
	.loc 1 397 0
	movl	8(%ebp), %eax
	.loc 1 398 0
	leave
.LCFI44:
	.cfi_restore 5
	.cfi_def_cfa 4, 4
	ret
	.cfi_endproc
.LFE15:
	.size	parseredirs, .-parseredirs
	.section	.rodata
.LC17:
	.string	"("
.LC18:
	.string	"parseblock"
.LC19:
	.string	")"
.LC20:
	.string	"syntax - missing )"
	.text
	.globl	parseblock
	.type	parseblock, @function
parseblock:
.LFB16:
	.loc 1 402 0
	.cfi_startproc
.LVL170:
	pushl	%ebp
.LCFI45:
	.cfi_def_cfa_offset 8
	.cfi_offset 5, -8
	movl	%esp, %ebp
.LCFI46:
	.cfi_def_cfa_register 5
	subl	$40, %esp
	.loc 1 405 0
	movl	$.LC17, 8(%esp)
	movl	12(%ebp), %eax
	movl	%eax, 4(%esp)
	movl	8(%ebp), %eax
	movl	%eax, (%esp)
	call	peek
.LVL171:
	testl	%eax, %eax
	jne	.L94
	.loc 1 406 0
	movl	$.LC18, (%esp)
	call	panic
.LVL172:
.L94:
	.loc 1 407 0
	movl	$0, 12(%esp)
	movl	$0, 8(%esp)
	movl	12(%ebp), %eax
	movl	%eax, 4(%esp)
	movl	8(%ebp), %eax
	movl	%eax, (%esp)
	call	gettoken
.LVL173:
	.loc 1 408 0
	movl	12(%ebp), %eax
	movl	%eax, 4(%esp)
	movl	8(%ebp), %eax
	movl	%eax, (%esp)
	call	parseline
.LVL174:
	movl	%eax, -12(%ebp)
.LVL175:
	.loc 1 409 0
	movl	$.LC19, 8(%esp)
	movl	12(%ebp), %eax
.LVL176:
	movl	%eax, 4(%esp)
	movl	8(%ebp), %eax
	movl	%eax, (%esp)
	call	peek
.LVL177:
	testl	%eax, %eax
	jne	.L95
	.loc 1 410 0
	movl	$.LC20, (%esp)
	call	panic
.LVL178:
.L95:
	.loc 1 411 0
	movl	$0, 12(%esp)
	movl	$0, 8(%esp)
	movl	12(%ebp), %eax
	movl	%eax, 4(%esp)
	movl	8(%ebp), %eax
	movl	%eax, (%esp)
	call	gettoken
.LVL179:
	.loc 1 412 0
	movl	12(%ebp), %eax
	movl	%eax, 8(%esp)
	movl	8(%ebp), %eax
	movl	%eax, 4(%esp)
	movl	-12(%ebp), %eax
	movl	%eax, (%esp)
	call	parseredirs
.LVL180:
	movl	%eax, -12(%ebp)
.LVL181:
	.loc 1 413 0
	movl	-12(%ebp), %eax
	.loc 1 414 0
	leave
.LCFI47:
	.cfi_restore 5
	.cfi_def_cfa 4, 4
	ret
	.cfi_endproc
.LFE16:
	.size	parseblock, .-parseblock
	.section	.rodata
.LC21:
	.string	"too many args"
.LC22:
	.string	"|)&;"
	.text
	.globl	parseexec
	.type	parseexec, @function
parseexec:
.LFB17:
	.loc 1 418 0
	.cfi_startproc
.LVL182:
	pushl	%ebp
.LCFI48:
	.cfi_def_cfa_offset 8
	.cfi_offset 5, -8
	movl	%esp, %ebp
.LCFI49:
	.cfi_def_cfa_register 5
	subl	$56, %esp
	.loc 1 424 0
	movl	$.LC17, 8(%esp)
	movl	12(%ebp), %eax
	movl	%eax, 4(%esp)
	movl	8(%ebp), %eax
	movl	%eax, (%esp)
	call	peek
.LVL183:
	testl	%eax, %eax
	je	.L98
	.loc 1 425 0
	movl	12(%ebp), %eax
	movl	%eax, 4(%esp)
	movl	8(%ebp), %eax
	movl	%eax, (%esp)
	call	parseblock
.LVL184:
	jmp	.L106
.L98:
	.loc 1 427 0
	call	execcmd
.LVL185:
	movl	%eax, -16(%ebp)
.LVL186:
	.loc 1 428 0
	movl	-16(%ebp), %eax
	movl	%eax, -20(%ebp)
.LVL187:
	.loc 1 430 0
	movl	$0, -12(%ebp)
.LVL188:
	.loc 1 431 0
	movl	12(%ebp), %eax
.LVL189:
	movl	%eax, 8(%esp)
	movl	8(%ebp), %eax
	movl	%eax, 4(%esp)
	movl	-16(%ebp), %eax
	movl	%eax, (%esp)
	call	parseredirs
.LVL190:
	movl	%eax, -16(%ebp)
.LVL191:
	.loc 1 432 0
	jmp	.L100
.LVL192:
.L105:
	.loc 1 433 0
	leal	-32(%ebp), %eax
	movl	%eax, 12(%esp)
	leal	-28(%ebp), %eax
	movl	%eax, 8(%esp)
	movl	12(%ebp), %eax
	movl	%eax, 4(%esp)
	movl	8(%ebp), %eax
	movl	%eax, (%esp)
	call	gettoken
.LVL193:
	movl	%eax, -24(%ebp)
.LVL194:
	cmpl	$0, -24(%ebp)
	jne	.L101
	.loc 1 434 0
	jmp	.L102
.L101:
	.loc 1 435 0
	cmpl	$97, -24(%ebp)
	je	.L103
	.loc 1 436 0
	movl	$.LC11, (%esp)
	call	panic
.LVL195:
.L103:
	.loc 1 437 0
	movl	-28(%ebp), %ecx
	movl	-20(%ebp), %eax
	movl	-12(%ebp), %edx
	movl	%ecx, 4(%eax,%edx,4)
	.loc 1 438 0
	movl	-32(%ebp), %edx
	movl	-20(%ebp), %eax
	movl	-12(%ebp), %ecx
	addl	$8, %ecx
	movl	%edx, 12(%eax,%ecx,4)
	.loc 1 439 0
	addl	$1, -12(%ebp)
	.loc 1 440 0
	cmpl	$9, -12(%ebp)
	jle	.L104
	.loc 1 441 0
	movl	$.LC21, (%esp)
	call	panic
.LVL196:
.L104:
	.loc 1 442 0
	movl	12(%ebp), %eax
	movl	%eax, 8(%esp)
	movl	8(%ebp), %eax
	movl	%eax, 4(%esp)
	movl	-16(%ebp), %eax
	movl	%eax, (%esp)
	call	parseredirs
.LVL197:
	movl	%eax, -16(%ebp)
.LVL198:
.L100:
	.loc 1 432 0 discriminator 1
	movl	$.LC22, 8(%esp)
	movl	12(%ebp), %eax
	movl	%eax, 4(%esp)
	movl	8(%ebp), %eax
	movl	%eax, (%esp)
	call	peek
.LVL199:
	testl	%eax, %eax
	je	.L105
.L102:
	.loc 1 444 0
	movl	-20(%ebp), %eax
	movl	-12(%ebp), %edx
	movl	$0, 4(%eax,%edx,4)
	.loc 1 445 0
	movl	-20(%ebp), %eax
	movl	-12(%ebp), %edx
	addl	$8, %edx
	movl	$0, 12(%eax,%edx,4)
	.loc 1 446 0
	movl	-16(%ebp), %eax
.LVL200:
.L106:
	.loc 1 447 0
	leave
.LCFI50:
	.cfi_restore 5
	.cfi_def_cfa 4, 4
	ret
	.cfi_endproc
.LFE17:
	.size	parseexec, .-parseexec
	.globl	nulterminate
	.type	nulterminate, @function
nulterminate:
.LFB18:
	.loc 1 452 0
	.cfi_startproc
.LVL201:
	pushl	%ebp
.LCFI51:
	.cfi_def_cfa_offset 8
	.cfi_offset 5, -8
	movl	%esp, %ebp
.LCFI52:
	.cfi_def_cfa_register 5
	subl	$56, %esp
	.loc 1 460 0
	cmpl	$0, 8(%ebp)
	jne	.L108
	.loc 1 461 0
	movl	$0, %eax
	jmp	.L109
.L108:
	.loc 1 463 0
	movl	8(%ebp), %eax
	movl	(%eax), %eax
	cmpl	$5, %eax
	ja	.L110
	movl	.L112(,%eax,4), %eax
	jmp	*%eax
	.section	.rodata
	.align 4
	.align 4
.L112:
	.long	.L110
	.long	.L111
	.long	.L113
	.long	.L114
	.long	.L115
	.long	.L116
	.text
.L111:
	.loc 1 465 0
	movl	8(%ebp), %eax
	movl	%eax, -16(%ebp)
.LVL202:
	.loc 1 466 0
	movl	$0, -12(%ebp)
.LVL203:
	jmp	.L117
.LVL204:
.L118:
	.loc 1 467 0 discriminator 2
	movl	-16(%ebp), %eax
	movl	-12(%ebp), %edx
.LVL205:
	addl	$8, %edx
	movl	12(%eax,%edx,4), %eax
	movb	$0, (%eax)
	.loc 1 466 0 discriminator 2
	addl	$1, -12(%ebp)
.LVL206:
.L117:
	.loc 1 466 0 is_stmt 0 discriminator 1
	movl	-16(%ebp), %eax
	movl	-12(%ebp), %edx
	movl	4(%eax,%edx,4), %eax
	testl	%eax, %eax
	jne	.L118
	.loc 1 468 0 is_stmt 1
	jmp	.L110
.LVL207:
.L113:
	.loc 1 471 0
	movl	8(%ebp), %eax
	movl	%eax, -20(%ebp)
.LVL208:
	.loc 1 472 0
	movl	-20(%ebp), %eax
	movl	4(%eax), %eax
.LVL209:
	movl	%eax, (%esp)
	call	nulterminate
.LVL210:
	.loc 1 473 0
	movl	-20(%ebp), %eax
	movl	12(%eax), %eax
	movb	$0, (%eax)
	.loc 1 474 0
	jmp	.L110
.LVL211:
.L114:
	.loc 1 477 0
	movl	8(%ebp), %eax
	movl	%eax, -24(%ebp)
.LVL212:
	.loc 1 478 0
	movl	-24(%ebp), %eax
	movl	4(%eax), %eax
.LVL213:
	movl	%eax, (%esp)
	call	nulterminate
.LVL214:
	.loc 1 479 0
	movl	-24(%ebp), %eax
	movl	8(%eax), %eax
	movl	%eax, (%esp)
	call	nulterminate
.LVL215:
	.loc 1 480 0
	jmp	.L110
.LVL216:
.L115:
	.loc 1 483 0
	movl	8(%ebp), %eax
	movl	%eax, -28(%ebp)
.LVL217:
	.loc 1 484 0
	movl	-28(%ebp), %eax
	movl	4(%eax), %eax
.LVL218:
	movl	%eax, (%esp)
	call	nulterminate
.LVL219:
	.loc 1 485 0
	movl	-28(%ebp), %eax
	movl	8(%eax), %eax
	movl	%eax, (%esp)
	call	nulterminate
.LVL220:
	.loc 1 486 0
	jmp	.L110
.LVL221:
.L116:
	.loc 1 489 0
	movl	8(%ebp), %eax
	movl	%eax, -32(%ebp)
.LVL222:
	.loc 1 490 0
	movl	-32(%ebp), %eax
	movl	4(%eax), %eax
.LVL223:
	movl	%eax, (%esp)
	call	nulterminate
.LVL224:
	.loc 1 491 0
	nop
.LVL225:
.L110:
	.loc 1 493 0
	movl	8(%ebp), %eax
.L109:
	.loc 1 494 0
	leave
.LCFI53:
	.cfi_restore 5
	.cfi_def_cfa 4, 4
	ret
	.cfi_endproc
.LFE18:
	.size	nulterminate, .-nulterminate
	.local	buf.1068
	.comm	buf.1068,100,32
.Letext0:
	.file 2 "user.h"
	.file 3 "types.h"
	.section	.note.GNU-stack,"",@progbits
