	.file	"string.c"
	.text
.Ltext0:
	.type	stosb, @function
stosb:
.LFB5:
	.file 1 "x86.h"
	.loc 1 44 0
	.cfi_startproc
.LVL0:
	pushl	%ebp
.LCFI0:
	.cfi_def_cfa_offset 8
	.cfi_offset 5, -8
	movl	%esp, %ebp
.LCFI1:
	.cfi_def_cfa_register 5
	pushl	%edi
	pushl	%ebx
	.cfi_offset 7, -12
	.cfi_offset 3, -16
	.loc 1 45 0
	movl	8(%ebp), %ecx
	movl	16(%ebp), %edx
	movl	12(%ebp), %eax
	movl	%ecx, %ebx
	movl	%ebx, %edi
	movl	%edx, %ecx
#APP
# 45 "x86.h" 1
	cld; rep stosb
# 0 "" 2
.LVL1:
#NO_APP
	movl	%ecx, %edx
	movl	%edi, %ebx
	movl	%ebx, 8(%ebp)
	movl	%edx, 16(%ebp)
.LVL2:
	.loc 1 49 0
	popl	%ebx
	.cfi_restore 3
.LVL3:
	popl	%edi
	.cfi_restore 7
.LVL4:
	popl	%ebp
.LCFI2:
	.cfi_restore 5
	.cfi_def_cfa 4, 4
	ret
	.cfi_endproc
.LFE5:
	.size	stosb, .-stosb
	.type	stosl, @function
stosl:
.LFB6:
	.loc 1 53 0
	.cfi_startproc
.LVL5:
	pushl	%ebp
.LCFI3:
	.cfi_def_cfa_offset 8
	.cfi_offset 5, -8
	movl	%esp, %ebp
.LCFI4:
	.cfi_def_cfa_register 5
	pushl	%edi
	pushl	%ebx
	.cfi_offset 7, -12
	.cfi_offset 3, -16
	.loc 1 54 0
	movl	8(%ebp), %ecx
	movl	16(%ebp), %edx
	movl	12(%ebp), %eax
	movl	%ecx, %ebx
	movl	%ebx, %edi
	movl	%edx, %ecx
#APP
# 54 "x86.h" 1
	cld; rep stosl
# 0 "" 2
.LVL6:
#NO_APP
	movl	%ecx, %edx
	movl	%edi, %ebx
	movl	%ebx, 8(%ebp)
	movl	%edx, 16(%ebp)
.LVL7:
	.loc 1 58 0
	popl	%ebx
	.cfi_restore 3
.LVL8:
	popl	%edi
	.cfi_restore 7
.LVL9:
	popl	%ebp
.LCFI5:
	.cfi_restore 5
	.cfi_def_cfa 4, 4
	ret
	.cfi_endproc
.LFE6:
	.size	stosl, .-stosl
	.globl	memset
	.type	memset, @function
memset:
.LFB18:
	.file 2 "string.c"
	.loc 2 6 0
	.cfi_startproc
.LVL10:
	pushl	%ebp
.LCFI6:
	.cfi_def_cfa_offset 8
	.cfi_offset 5, -8
	movl	%esp, %ebp
.LCFI7:
	.cfi_def_cfa_register 5
	subl	$12, %esp
	.loc 2 7 0
	movl	8(%ebp), %eax
	andl	$3, %eax
	testl	%eax, %eax
	jne	.L4
	.loc 2 7 0 is_stmt 0 discriminator 1
	movl	16(%ebp), %eax
	andl	$3, %eax
	testl	%eax, %eax
	jne	.L4
	.loc 2 8 0 is_stmt 1
	andl	$255, 12(%ebp)
.LVL11:
	.loc 2 9 0
	movl	16(%ebp), %eax
	shrl	$2, %eax
	movl	%eax, %edx
	movl	12(%ebp), %eax
	sall	$24, %eax
	movl	%eax, %ecx
	movl	12(%ebp), %eax
	sall	$16, %eax
	orl	%eax, %ecx
	movl	12(%ebp), %eax
	sall	$8, %eax
	orl	%ecx, %eax
	orl	12(%ebp), %eax
	movl	%edx, 8(%esp)
	movl	%eax, 4(%esp)
	movl	8(%ebp), %eax
	movl	%eax, (%esp)
	call	stosl
.LVL12:
	jmp	.L5
.L4:
	.loc 2 11 0
	movl	16(%ebp), %eax
	movl	%eax, 8(%esp)
	movl	12(%ebp), %eax
	movl	%eax, 4(%esp)
	movl	8(%ebp), %eax
	movl	%eax, (%esp)
	call	stosb
.LVL13:
.L5:
	.loc 2 12 0
	movl	8(%ebp), %eax
	.loc 2 13 0
	leave
.LCFI8:
	.cfi_restore 5
	.cfi_def_cfa 4, 4
	ret
	.cfi_endproc
.LFE18:
	.size	memset, .-memset
	.globl	memcmp
	.type	memcmp, @function
memcmp:
.LFB19:
	.loc 2 17 0
	.cfi_startproc
.LVL14:
	pushl	%ebp
.LCFI9:
	.cfi_def_cfa_offset 8
	.cfi_offset 5, -8
	movl	%esp, %ebp
.LCFI10:
	.cfi_def_cfa_register 5
	subl	$16, %esp
	.loc 2 20 0
	movl	8(%ebp), %eax
	movl	%eax, -4(%ebp)
.LVL15:
	.loc 2 21 0
	movl	12(%ebp), %eax
.LVL16:
	movl	%eax, -8(%ebp)
.LVL17:
	.loc 2 22 0
	jmp	.L8
.LVL18:
.L11:
	.loc 2 23 0
	movl	-4(%ebp), %eax
	movzbl	(%eax), %edx
.LVL19:
	movl	-8(%ebp), %eax
	movzbl	(%eax), %eax
	cmpb	%al, %dl
	je	.L9
	.loc 2 24 0
	movl	-4(%ebp), %eax
	movzbl	(%eax), %eax
	movzbl	%al, %edx
	movl	-8(%ebp), %eax
	movzbl	(%eax), %eax
	movzbl	%al, %eax
	subl	%eax, %edx
	movl	%edx, %eax
	jmp	.L10
.L9:
	.loc 2 25 0
	addl	$1, -4(%ebp)
.LVL20:
	addl	$1, -8(%ebp)
.LVL21:
.L8:
	.loc 2 22 0 discriminator 1
	movl	16(%ebp), %eax
	leal	-1(%eax), %edx
	movl	%edx, 16(%ebp)
.LVL22:
	testl	%eax, %eax
	jne	.L11
	.loc 2 28 0
	movl	$0, %eax
.LVL23:
.L10:
	.loc 2 29 0
	leave
.LCFI11:
	.cfi_restore 5
	.cfi_def_cfa 4, 4
	ret
	.cfi_endproc
.LFE19:
	.size	memcmp, .-memcmp
	.globl	memmove
	.type	memmove, @function
memmove:
.LFB20:
	.loc 2 33 0
	.cfi_startproc
.LVL24:
	pushl	%ebp
.LCFI12:
	.cfi_def_cfa_offset 8
	.cfi_offset 5, -8
	movl	%esp, %ebp
.LCFI13:
	.cfi_def_cfa_register 5
	subl	$16, %esp
	.loc 2 37 0
	movl	12(%ebp), %eax
	movl	%eax, -4(%ebp)
.LVL25:
	.loc 2 38 0
	movl	8(%ebp), %eax
.LVL26:
	movl	%eax, -8(%ebp)
.LVL27:
	.loc 2 39 0
	movl	-4(%ebp), %eax
.LVL28:
	cmpl	-8(%ebp), %eax
	jnb	.L13
	.loc 2 39 0 is_stmt 0 discriminator 1
	movl	16(%ebp), %eax
	movl	-4(%ebp), %edx
	addl	%edx, %eax
	cmpl	-8(%ebp), %eax
	jbe	.L13
	.loc 2 40 0 is_stmt 1
	movl	16(%ebp), %eax
	addl	%eax, -4(%ebp)
.LVL29:
	.loc 2 41 0
	movl	16(%ebp), %eax
	addl	%eax, -8(%ebp)
.LVL30:
	.loc 2 42 0
	jmp	.L14
.LVL31:
.L15:
	.loc 2 43 0
	subl	$1, -8(%ebp)
.LVL32:
	subl	$1, -4(%ebp)
.LVL33:
	movl	-4(%ebp), %eax
	movzbl	(%eax), %edx
.LVL34:
	movl	-8(%ebp), %eax
	movb	%dl, (%eax)
.L14:
	.loc 2 42 0 discriminator 1
	movl	16(%ebp), %eax
	leal	-1(%eax), %edx
	movl	%edx, 16(%ebp)
.LVL35:
	testl	%eax, %eax
	jne	.L15
	.loc 2 39 0
	jmp	.L16
.LVL36:
.L13:
	.loc 2 45 0
	jmp	.L17
.LVL37:
.L18:
	.loc 2 46 0
	movl	-8(%ebp), %eax
	leal	1(%eax), %edx
.LVL38:
	movl	%edx, -8(%ebp)
.LVL39:
	movl	-4(%ebp), %edx
.LVL40:
	leal	1(%edx), %ecx
	movl	%ecx, -4(%ebp)
.LVL41:
	movzbl	(%edx), %edx
	movb	%dl, (%eax)
.LVL42:
.L17:
	.loc 2 45 0 discriminator 1
	movl	16(%ebp), %eax
	leal	-1(%eax), %edx
	movl	%edx, 16(%ebp)
.LVL43:
	testl	%eax, %eax
	jne	.L18
.L16:
	.loc 2 48 0
	movl	8(%ebp), %eax
	.loc 2 49 0
	leave
.LCFI14:
	.cfi_restore 5
	.cfi_def_cfa 4, 4
	ret
	.cfi_endproc
.LFE20:
	.size	memmove, .-memmove
	.globl	memcpy
	.type	memcpy, @function
memcpy:
.LFB21:
	.loc 2 54 0
	.cfi_startproc
.LVL44:
	pushl	%ebp
.LCFI15:
	.cfi_def_cfa_offset 8
	.cfi_offset 5, -8
	movl	%esp, %ebp
.LCFI16:
	.cfi_def_cfa_register 5
	subl	$12, %esp
	.loc 2 55 0
	movl	16(%ebp), %eax
	movl	%eax, 8(%esp)
	movl	12(%ebp), %eax
	movl	%eax, 4(%esp)
	movl	8(%ebp), %eax
	movl	%eax, (%esp)
	call	memmove
.LVL45:
	.loc 2 56 0
	leave
.LCFI17:
	.cfi_restore 5
	.cfi_def_cfa 4, 4
	ret
	.cfi_endproc
.LFE21:
	.size	memcpy, .-memcpy
	.globl	strncmp
	.type	strncmp, @function
strncmp:
.LFB22:
	.loc 2 60 0
	.cfi_startproc
.LVL46:
	pushl	%ebp
.LCFI18:
	.cfi_def_cfa_offset 8
	.cfi_offset 5, -8
	movl	%esp, %ebp
.LCFI19:
	.cfi_def_cfa_register 5
	.loc 2 61 0
	jmp	.L23
.L25:
	.loc 2 62 0
	subl	$1, 16(%ebp)
.LVL47:
	addl	$1, 8(%ebp)
.LVL48:
	addl	$1, 12(%ebp)
.LVL49:
.L23:
	.loc 2 61 0 discriminator 1
	cmpl	$0, 16(%ebp)
	je	.L24
	.loc 2 61 0 is_stmt 0 discriminator 2
	movl	8(%ebp), %eax
	movzbl	(%eax), %eax
	testb	%al, %al
	je	.L24
	.loc 2 61 0 discriminator 1
	movl	8(%ebp), %eax
	movzbl	(%eax), %edx
	movl	12(%ebp), %eax
	movzbl	(%eax), %eax
	cmpb	%al, %dl
	je	.L25
.L24:
	.loc 2 63 0 is_stmt 1
	cmpl	$0, 16(%ebp)
	jne	.L26
	.loc 2 64 0
	movl	$0, %eax
	jmp	.L27
.L26:
	.loc 2 65 0
	movl	8(%ebp), %eax
	movzbl	(%eax), %eax
	movzbl	%al, %edx
	movl	12(%ebp), %eax
	movzbl	(%eax), %eax
	movzbl	%al, %eax
	subl	%eax, %edx
	movl	%edx, %eax
.L27:
	.loc 2 66 0
	popl	%ebp
.LCFI20:
	.cfi_restore 5
	.cfi_def_cfa 4, 4
	ret
	.cfi_endproc
.LFE22:
	.size	strncmp, .-strncmp
	.globl	strncpy
	.type	strncpy, @function
strncpy:
.LFB23:
	.loc 2 70 0
	.cfi_startproc
.LVL50:
	pushl	%ebp
.LCFI21:
	.cfi_def_cfa_offset 8
	.cfi_offset 5, -8
	movl	%esp, %ebp
.LCFI22:
	.cfi_def_cfa_register 5
	subl	$16, %esp
	.loc 2 73 0
	movl	8(%ebp), %eax
	movl	%eax, -4(%ebp)
.LVL51:
	.loc 2 74 0
	nop
.LVL52:
.L30:
	.loc 2 74 0 is_stmt 0 discriminator 1
	movl	16(%ebp), %eax
	leal	-1(%eax), %edx
	movl	%edx, 16(%ebp)
.LVL53:
	testl	%eax, %eax
	jle	.L29
	.loc 2 74 0 discriminator 2
	movl	8(%ebp), %eax
	leal	1(%eax), %edx
.LVL54:
	movl	%edx, 8(%ebp)
.LVL55:
	movl	12(%ebp), %edx
.LVL56:
	leal	1(%edx), %ecx
	movl	%ecx, 12(%ebp)
.LVL57:
	movzbl	(%edx), %edx
	movb	%dl, (%eax)
	movzbl	(%eax), %eax
	testb	%al, %al
	jne	.L30
.LVL58:
.L29:
	.loc 2 76 0 is_stmt 1
	jmp	.L31
.LVL59:
.L32:
	.loc 2 77 0
	movl	8(%ebp), %eax
	leal	1(%eax), %edx
.LVL60:
	movl	%edx, 8(%ebp)
.LVL61:
	movb	$0, (%eax)
.LVL62:
.L31:
	.loc 2 76 0 discriminator 1
	movl	16(%ebp), %eax
	leal	-1(%eax), %edx
	movl	%edx, 16(%ebp)
.LVL63:
	testl	%eax, %eax
	jg	.L32
	.loc 2 78 0
	movl	-4(%ebp), %eax
	.loc 2 79 0
	leave
.LCFI23:
	.cfi_restore 5
	.cfi_def_cfa 4, 4
	ret
	.cfi_endproc
.LFE23:
	.size	strncpy, .-strncpy
	.globl	safestrcpy
	.type	safestrcpy, @function
safestrcpy:
.LFB24:
	.loc 2 84 0
	.cfi_startproc
.LVL64:
	pushl	%ebp
.LCFI24:
	.cfi_def_cfa_offset 8
	.cfi_offset 5, -8
	movl	%esp, %ebp
.LCFI25:
	.cfi_def_cfa_register 5
	subl	$16, %esp
	.loc 2 87 0
	movl	8(%ebp), %eax
	movl	%eax, -4(%ebp)
.LVL65:
	.loc 2 88 0
	cmpl	$0, 16(%ebp)
	jg	.L35
	.loc 2 89 0
	movl	-4(%ebp), %eax
	jmp	.L36
.L35:
.LVL66:
.L38:
	.loc 2 90 0 discriminator 1
	subl	$1, 16(%ebp)
.LVL67:
	cmpl	$0, 16(%ebp)
	jle	.L37
	.loc 2 90 0 is_stmt 0 discriminator 2
	movl	8(%ebp), %eax
	leal	1(%eax), %edx
	movl	%edx, 8(%ebp)
.LVL68:
	movl	12(%ebp), %edx
.LVL69:
	leal	1(%edx), %ecx
	movl	%ecx, 12(%ebp)
.LVL70:
	movzbl	(%edx), %edx
	movb	%dl, (%eax)
	movzbl	(%eax), %eax
	testb	%al, %al
	jne	.L38
.LVL71:
.L37:
	.loc 2 92 0 is_stmt 1
	movl	8(%ebp), %eax
	movb	$0, (%eax)
	.loc 2 93 0
	movl	-4(%ebp), %eax
.L36:
	.loc 2 94 0
	leave
.LCFI26:
	.cfi_restore 5
	.cfi_def_cfa 4, 4
	ret
	.cfi_endproc
.LFE24:
	.size	safestrcpy, .-safestrcpy
	.globl	strlen
	.type	strlen, @function
strlen:
.LFB25:
	.loc 2 98 0
	.cfi_startproc
.LVL72:
	pushl	%ebp
.LCFI27:
	.cfi_def_cfa_offset 8
	.cfi_offset 5, -8
	movl	%esp, %ebp
.LCFI28:
	.cfi_def_cfa_register 5
	subl	$16, %esp
	.loc 2 101 0
	movl	$0, -4(%ebp)
.LVL73:
	jmp	.L40
.LVL74:
.L41:
	.loc 2 101 0 is_stmt 0 discriminator 2
	addl	$1, -4(%ebp)
.LVL75:
.L40:
	.loc 2 101 0 discriminator 1
	movl	-4(%ebp), %edx
	movl	8(%ebp), %eax
	addl	%edx, %eax
	movzbl	(%eax), %eax
	testb	%al, %al
	jne	.L41
	.loc 2 103 0 is_stmt 1
	movl	-4(%ebp), %eax
	.loc 2 104 0
	leave
.LCFI29:
	.cfi_restore 5
	.cfi_def_cfa 4, 4
	ret
	.cfi_endproc
.LFE25:
	.size	strlen, .-strlen
.Letext0:
	.file 3 "types.h"
	.section	.note.GNU-stack,"",@progbits
