	.file	"sysfile.c"
	.text
.Ltext0:
	.type	argfd, @function
argfd:
.LFB0:
	.file 1 "sysfile.c"
	.loc 1 21 0
	.cfi_startproc
.LVL0:
	pushl	%ebp
.LCFI0:
	.cfi_def_cfa_offset 8
	.cfi_offset 5, -8
	movl	%esp, %ebp
.LCFI1:
	.cfi_def_cfa_register 5
	subl	$40, %esp
	.loc 1 25 0
	leal	-16(%ebp), %eax
	movl	%eax, 4(%esp)
	movl	8(%ebp), %eax
	movl	%eax, (%esp)
	call	argint
.LVL1:
	testl	%eax, %eax
	jns	.L2
	.loc 1 26 0
	movl	$-1, %eax
	jmp	.L8
.L2:
	.loc 1 27 0
	movl	-16(%ebp), %eax
	testl	%eax, %eax
	js	.L4
	.loc 1 27 0 is_stmt 0 discriminator 1
	movl	-16(%ebp), %eax
	cmpl	$15, %eax
	jg	.L4
	movl	%gs:4, %eax
	movl	-16(%ebp), %edx
	addl	$8, %edx
	movl	8(%eax,%edx,4), %eax
	movl	%eax, -12(%ebp)
.LVL2:
	cmpl	$0, -12(%ebp)
	jne	.L5
.LVL3:
.L4:
	.loc 1 28 0 is_stmt 1
	movl	$-1, %eax
	jmp	.L8
.LVL4:
.L5:
	.loc 1 29 0
	cmpl	$0, 12(%ebp)
	je	.L6
	.loc 1 30 0
	movl	-16(%ebp), %edx
	movl	12(%ebp), %eax
.LVL5:
	movl	%edx, (%eax)
.LVL6:
.L6:
	.loc 1 31 0
	cmpl	$0, 16(%ebp)
	je	.L7
	.loc 1 32 0
	movl	16(%ebp), %eax
	movl	-12(%ebp), %edx
	movl	%edx, (%eax)
.L7:
	.loc 1 33 0
	movl	$0, %eax
.LVL7:
.L8:
	.loc 1 34 0
	leave
.LCFI2:
	.cfi_restore 5
	.cfi_def_cfa 4, 4
	ret
	.cfi_endproc
.LFE0:
	.size	argfd, .-argfd
	.type	fdalloc, @function
fdalloc:
.LFB1:
	.loc 1 40 0
	.cfi_startproc
.LVL8:
	pushl	%ebp
.LCFI3:
	.cfi_def_cfa_offset 8
	.cfi_offset 5, -8
	movl	%esp, %ebp
.LCFI4:
	.cfi_def_cfa_register 5
	subl	$16, %esp
	.loc 1 43 0
	movl	$0, -4(%ebp)
.LVL9:
	jmp	.L10
.L13:
	.loc 1 44 0
	movl	%gs:4, %eax
	movl	-4(%ebp), %edx
	addl	$8, %edx
	movl	8(%eax,%edx,4), %eax
	testl	%eax, %eax
	jne	.L11
	.loc 1 45 0
	movl	%gs:4, %eax
	movl	-4(%ebp), %edx
	leal	8(%edx), %ecx
	movl	8(%ebp), %edx
	movl	%edx, 8(%eax,%ecx,4)
	.loc 1 46 0
	movl	-4(%ebp), %eax
	jmp	.L12
.L11:
	.loc 1 43 0
	addl	$1, -4(%ebp)
.LVL10:
.L10:
	.loc 1 43 0 is_stmt 0 discriminator 1
	cmpl	$15, -4(%ebp)
	jle	.L13
	.loc 1 49 0 is_stmt 1
	movl	$-1, %eax
.L12:
	.loc 1 50 0
	leave
.LCFI5:
	.cfi_restore 5
	.cfi_def_cfa 4, 4
	ret
	.cfi_endproc
.LFE1:
	.size	fdalloc, .-fdalloc
	.globl	sys_dup
	.type	sys_dup, @function
sys_dup:
.LFB2:
	.loc 1 54 0
	.cfi_startproc
	pushl	%ebp
.LCFI6:
	.cfi_def_cfa_offset 8
	.cfi_offset 5, -8
	movl	%esp, %ebp
.LCFI7:
	.cfi_def_cfa_register 5
	subl	$40, %esp
	.loc 1 58 0
	leal	-16(%ebp), %eax
	movl	%eax, 8(%esp)
	movl	$0, 4(%esp)
	movl	$0, (%esp)
	call	argfd
.LVL11:
	testl	%eax, %eax
	jns	.L15
	.loc 1 59 0
	movl	$-1, %eax
	jmp	.L18
.L15:
	.loc 1 60 0
	movl	-16(%ebp), %eax
	movl	%eax, (%esp)
	call	fdalloc
.LVL12:
	movl	%eax, -12(%ebp)
.LVL13:
	cmpl	$0, -12(%ebp)
	jns	.L17
	.loc 1 61 0
	movl	$-1, %eax
.LVL14:
	jmp	.L18
.LVL15:
.L17:
	.loc 1 62 0
	movl	-16(%ebp), %eax
.LVL16:
	movl	%eax, (%esp)
	call	filedup
.LVL17:
	.loc 1 63 0
	movl	-12(%ebp), %eax
.LVL18:
.L18:
	.loc 1 64 0
	leave
.LCFI8:
	.cfi_restore 5
	.cfi_def_cfa 4, 4
	ret
	.cfi_endproc
.LFE2:
	.size	sys_dup, .-sys_dup
	.globl	sys_read
	.type	sys_read, @function
sys_read:
.LFB3:
	.loc 1 68 0
	.cfi_startproc
	pushl	%ebp
.LCFI9:
	.cfi_def_cfa_offset 8
	.cfi_offset 5, -8
	movl	%esp, %ebp
.LCFI10:
	.cfi_def_cfa_register 5
	subl	$40, %esp
	.loc 1 73 0
	leal	-12(%ebp), %eax
	movl	%eax, 8(%esp)
	movl	$0, 4(%esp)
	movl	$0, (%esp)
	call	argfd
.LVL19:
	testl	%eax, %eax
	js	.L20
	.loc 1 73 0 is_stmt 0 discriminator 1
	leal	-16(%ebp), %eax
	movl	%eax, 4(%esp)
	movl	$2, (%esp)
	call	argint
.LVL20:
	testl	%eax, %eax
	js	.L20
	movl	-16(%ebp), %eax
	movl	%eax, 8(%esp)
	leal	-20(%ebp), %eax
	movl	%eax, 4(%esp)
	movl	$1, (%esp)
	call	argptr
.LVL21:
	testl	%eax, %eax
	jns	.L21
.L20:
	.loc 1 74 0 is_stmt 1
	movl	$-1, %eax
	jmp	.L23
.L21:
	.loc 1 75 0
	movl	-16(%ebp), %ecx
	movl	-20(%ebp), %edx
	movl	-12(%ebp), %eax
	movl	%ecx, 8(%esp)
	movl	%edx, 4(%esp)
	movl	%eax, (%esp)
	call	fileread
.LVL22:
.L23:
	.loc 1 76 0
	leave
.LCFI11:
	.cfi_restore 5
	.cfi_def_cfa 4, 4
	ret
	.cfi_endproc
.LFE3:
	.size	sys_read, .-sys_read
	.globl	sys_write
	.type	sys_write, @function
sys_write:
.LFB4:
	.loc 1 80 0
	.cfi_startproc
	pushl	%ebp
.LCFI12:
	.cfi_def_cfa_offset 8
	.cfi_offset 5, -8
	movl	%esp, %ebp
.LCFI13:
	.cfi_def_cfa_register 5
	subl	$40, %esp
	.loc 1 85 0
	leal	-12(%ebp), %eax
	movl	%eax, 8(%esp)
	movl	$0, 4(%esp)
	movl	$0, (%esp)
	call	argfd
.LVL23:
	testl	%eax, %eax
	js	.L25
	.loc 1 85 0 is_stmt 0 discriminator 1
	leal	-16(%ebp), %eax
	movl	%eax, 4(%esp)
	movl	$2, (%esp)
	call	argint
.LVL24:
	testl	%eax, %eax
	js	.L25
	movl	-16(%ebp), %eax
	movl	%eax, 8(%esp)
	leal	-20(%ebp), %eax
	movl	%eax, 4(%esp)
	movl	$1, (%esp)
	call	argptr
.LVL25:
	testl	%eax, %eax
	jns	.L26
.L25:
	.loc 1 86 0 is_stmt 1
	movl	$-1, %eax
	jmp	.L28
.L26:
	.loc 1 87 0
	movl	-16(%ebp), %ecx
	movl	-20(%ebp), %edx
	movl	-12(%ebp), %eax
	movl	%ecx, 8(%esp)
	movl	%edx, 4(%esp)
	movl	%eax, (%esp)
	call	filewrite
.LVL26:
.L28:
	.loc 1 88 0
	leave
.LCFI14:
	.cfi_restore 5
	.cfi_def_cfa 4, 4
	ret
	.cfi_endproc
.LFE4:
	.size	sys_write, .-sys_write
	.globl	sys_close
	.type	sys_close, @function
sys_close:
.LFB5:
	.loc 1 92 0
	.cfi_startproc
	pushl	%ebp
.LCFI15:
	.cfi_def_cfa_offset 8
	.cfi_offset 5, -8
	movl	%esp, %ebp
.LCFI16:
	.cfi_def_cfa_register 5
	subl	$40, %esp
	.loc 1 96 0
	leal	-16(%ebp), %eax
	movl	%eax, 8(%esp)
	leal	-12(%ebp), %eax
	movl	%eax, 4(%esp)
	movl	$0, (%esp)
	call	argfd
.LVL27:
	testl	%eax, %eax
	jns	.L30
	.loc 1 97 0
	movl	$-1, %eax
	jmp	.L32
.L30:
	.loc 1 98 0
	movl	%gs:4, %eax
	movl	-12(%ebp), %edx
	addl	$8, %edx
	movl	$0, 8(%eax,%edx,4)
	.loc 1 99 0
	movl	-16(%ebp), %eax
	movl	%eax, (%esp)
	call	fileclose
.LVL28:
	.loc 1 100 0
	movl	$0, %eax
.L32:
	.loc 1 101 0
	leave
.LCFI17:
	.cfi_restore 5
	.cfi_def_cfa 4, 4
	ret
	.cfi_endproc
.LFE5:
	.size	sys_close, .-sys_close
	.globl	sys_fstat
	.type	sys_fstat, @function
sys_fstat:
.LFB6:
	.loc 1 105 0
	.cfi_startproc
	pushl	%ebp
.LCFI18:
	.cfi_def_cfa_offset 8
	.cfi_offset 5, -8
	movl	%esp, %ebp
.LCFI19:
	.cfi_def_cfa_register 5
	subl	$40, %esp
	.loc 1 109 0
	leal	-12(%ebp), %eax
	movl	%eax, 8(%esp)
	movl	$0, 4(%esp)
	movl	$0, (%esp)
	call	argfd
.LVL29:
	testl	%eax, %eax
	js	.L34
	.loc 1 109 0 is_stmt 0 discriminator 1
	movl	$20, 8(%esp)
	leal	-16(%ebp), %eax
	movl	%eax, 4(%esp)
	movl	$1, (%esp)
	call	argptr
.LVL30:
	testl	%eax, %eax
	jns	.L35
.L34:
	.loc 1 110 0 is_stmt 1
	movl	$-1, %eax
	jmp	.L37
.L35:
	.loc 1 111 0
	movl	-16(%ebp), %edx
	movl	-12(%ebp), %eax
	movl	%edx, 4(%esp)
	movl	%eax, (%esp)
	call	filestat
.LVL31:
.L37:
	.loc 1 112 0
	leave
.LCFI20:
	.cfi_restore 5
	.cfi_def_cfa 4, 4
	ret
	.cfi_endproc
.LFE6:
	.size	sys_fstat, .-sys_fstat
	.globl	sys_link
	.type	sys_link, @function
sys_link:
.LFB7:
	.loc 1 117 0
	.cfi_startproc
	pushl	%ebp
.LCFI21:
	.cfi_def_cfa_offset 8
	.cfi_offset 5, -8
	movl	%esp, %ebp
.LCFI22:
	.cfi_def_cfa_register 5
	subl	$56, %esp
	.loc 1 121 0
	leal	-40(%ebp), %eax
	movl	%eax, 4(%esp)
	movl	$0, (%esp)
	call	argstr
.LVL32:
	testl	%eax, %eax
	js	.L39
	.loc 1 121 0 is_stmt 0 discriminator 1
	leal	-36(%ebp), %eax
	movl	%eax, 4(%esp)
	movl	$1, (%esp)
	call	argstr
.LVL33:
	testl	%eax, %eax
	jns	.L40
.L39:
	.loc 1 122 0 is_stmt 1
	movl	$-1, %eax
	jmp	.L48
.L40:
	.loc 1 124 0
	call	begin_op
.LVL34:
	.loc 1 125 0
	movl	-40(%ebp), %eax
	movl	%eax, (%esp)
	call	namei
.LVL35:
	movl	%eax, -12(%ebp)
.LVL36:
	cmpl	$0, -12(%ebp)
	jne	.L42
	.loc 1 126 0
	call	end_op
.LVL37:
	.loc 1 127 0
	movl	$-1, %eax
	jmp	.L48
.LVL38:
.L42:
	.loc 1 130 0
	movl	-12(%ebp), %eax
.LVL39:
	movl	%eax, (%esp)
	call	ilock
.LVL40:
	.loc 1 131 0
	movl	-12(%ebp), %eax
	movzwl	16(%eax), %eax
	cmpw	$1, %ax
	jne	.L43
	.loc 1 132 0
	movl	-12(%ebp), %eax
	movl	%eax, (%esp)
	call	iunlockput
.LVL41:
	.loc 1 133 0
	call	end_op
.LVL42:
	.loc 1 134 0
	movl	$-1, %eax
	jmp	.L48
.L43:
	.loc 1 137 0
	movl	-12(%ebp), %eax
	movzwl	22(%eax), %eax
	leal	1(%eax), %edx
	movl	-12(%ebp), %eax
	movw	%dx, 22(%eax)
	.loc 1 138 0
	movl	-12(%ebp), %eax
	movl	%eax, (%esp)
	call	iupdate
.LVL43:
	.loc 1 139 0
	movl	-12(%ebp), %eax
	movl	%eax, (%esp)
	call	iunlock
.LVL44:
	.loc 1 141 0
	movl	-36(%ebp), %eax
	leal	-30(%ebp), %edx
	movl	%edx, 4(%esp)
	movl	%eax, (%esp)
	call	nameiparent
.LVL45:
	movl	%eax, -16(%ebp)
.LVL46:
	cmpl	$0, -16(%ebp)
	jne	.L44
	.loc 1 142 0
	jmp	.L45
.L44:
	.loc 1 143 0
	movl	-16(%ebp), %eax
.LVL47:
	movl	%eax, (%esp)
	call	ilock
.LVL48:
	.loc 1 144 0
	movl	-16(%ebp), %eax
	movl	(%eax), %edx
	movl	-12(%ebp), %eax
	movl	(%eax), %eax
	cmpl	%eax, %edx
	jne	.L46
	.loc 1 144 0 is_stmt 0 discriminator 1
	movl	-12(%ebp), %eax
	movl	4(%eax), %eax
	movl	%eax, 8(%esp)
	leal	-30(%ebp), %eax
	movl	%eax, 4(%esp)
	movl	-16(%ebp), %eax
	movl	%eax, (%esp)
	call	dirlink
.LVL49:
	testl	%eax, %eax
	jns	.L47
.L46:
	.loc 1 145 0 is_stmt 1
	movl	-16(%ebp), %eax
	movl	%eax, (%esp)
	call	iunlockput
.LVL50:
	.loc 1 146 0
	jmp	.L45
.L47:
	.loc 1 148 0
	movl	-16(%ebp), %eax
	movl	%eax, (%esp)
	call	iunlockput
.LVL51:
	.loc 1 149 0
	movl	-12(%ebp), %eax
	movl	%eax, (%esp)
	call	iput
.LVL52:
	.loc 1 151 0
	call	end_op
.LVL53:
	.loc 1 153 0
	movl	$0, %eax
	jmp	.L48
.L45:
	.loc 1 156 0
	movl	-12(%ebp), %eax
	movl	%eax, (%esp)
	call	ilock
.LVL54:
	.loc 1 157 0
	movl	-12(%ebp), %eax
	movzwl	22(%eax), %eax
	leal	-1(%eax), %edx
	movl	-12(%ebp), %eax
	movw	%dx, 22(%eax)
	.loc 1 158 0
	movl	-12(%ebp), %eax
	movl	%eax, (%esp)
	call	iupdate
.LVL55:
	.loc 1 159 0
	movl	-12(%ebp), %eax
	movl	%eax, (%esp)
	call	iunlockput
.LVL56:
	.loc 1 160 0
	call	end_op
.LVL57:
	.loc 1 161 0
	movl	$-1, %eax
.LVL58:
.L48:
	.loc 1 162 0
	leave
.LCFI23:
	.cfi_restore 5
	.cfi_def_cfa 4, 4
	ret
	.cfi_endproc
.LFE7:
	.size	sys_link, .-sys_link
	.section	.rodata
.LC0:
	.string	"isdirempty: readi"
	.text
	.type	isdirempty, @function
isdirempty:
.LFB8:
	.loc 1 167 0
	.cfi_startproc
.LVL59:
	pushl	%ebp
.LCFI24:
	.cfi_def_cfa_offset 8
	.cfi_offset 5, -8
	movl	%esp, %ebp
.LCFI25:
	.cfi_def_cfa_register 5
	subl	$56, %esp
	.loc 1 171 0
	movl	$32, -12(%ebp)
.LVL60:
	jmp	.L50
.LVL61:
.L54:
	.loc 1 172 0
	movl	-12(%ebp), %eax
	movl	$16, 12(%esp)
	movl	%eax, 8(%esp)
	leal	-28(%ebp), %eax
	movl	%eax, 4(%esp)
	movl	8(%ebp), %eax
	movl	%eax, (%esp)
	call	readi
.LVL62:
	cmpl	$16, %eax
	je	.L51
	.loc 1 173 0
	movl	$.LC0, (%esp)
	call	panic
.LVL63:
.L51:
	.loc 1 174 0
	movzwl	-28(%ebp), %eax
	testw	%ax, %ax
	je	.L52
	.loc 1 175 0
	movl	$0, %eax
	jmp	.L55
.L52:
	.loc 1 171 0
	movl	-12(%ebp), %eax
	addl	$16, %eax
	movl	%eax, -12(%ebp)
.LVL64:
.L50:
	.loc 1 171 0 is_stmt 0 discriminator 1
	movl	-12(%ebp), %edx
	movl	8(%ebp), %eax
	movl	24(%eax), %eax
	cmpl	%eax, %edx
	jb	.L54
	.loc 1 177 0 is_stmt 1
	movl	$1, %eax
.L55:
	.loc 1 178 0
	leave
.LCFI26:
	.cfi_restore 5
	.cfi_def_cfa 4, 4
	ret
	.cfi_endproc
.LFE8:
	.size	isdirempty, .-isdirempty
	.section	.rodata
.LC1:
	.string	"."
.LC2:
	.string	".."
.LC3:
	.string	"unlink: nlink < 1"
.LC4:
	.string	"unlink: writei"
	.text
	.globl	sys_unlink
	.type	sys_unlink, @function
sys_unlink:
.LFB9:
	.loc 1 183 0
	.cfi_startproc
	pushl	%ebp
.LCFI27:
	.cfi_def_cfa_offset 8
	.cfi_offset 5, -8
	movl	%esp, %ebp
.LCFI28:
	.cfi_def_cfa_register 5
	subl	$72, %esp
	.loc 1 189 0
	leal	-52(%ebp), %eax
	movl	%eax, 4(%esp)
	movl	$0, (%esp)
	call	argstr
.LVL65:
	testl	%eax, %eax
	jns	.L57
	.loc 1 190 0
	movl	$-1, %eax
	jmp	.L66
.L57:
	.loc 1 192 0
	call	begin_op
.LVL66:
	.loc 1 193 0
	movl	-52(%ebp), %eax
	leal	-46(%ebp), %edx
	movl	%edx, 4(%esp)
	movl	%eax, (%esp)
	call	nameiparent
.LVL67:
	movl	%eax, -12(%ebp)
.LVL68:
	cmpl	$0, -12(%ebp)
	jne	.L59
	.loc 1 194 0
	call	end_op
.LVL69:
	.loc 1 195 0
	movl	$-1, %eax
	jmp	.L66
.LVL70:
.L59:
	.loc 1 198 0
	movl	-12(%ebp), %eax
.LVL71:
	movl	%eax, (%esp)
	call	ilock
.LVL72:
	.loc 1 201 0
	movl	$.LC1, 4(%esp)
	leal	-46(%ebp), %eax
	movl	%eax, (%esp)
	call	namecmp
.LVL73:
	testl	%eax, %eax
	je	.L60
	.loc 1 201 0 is_stmt 0 discriminator 1
	movl	$.LC2, 4(%esp)
	leal	-46(%ebp), %eax
	movl	%eax, (%esp)
	call	namecmp
.LVL74:
	testl	%eax, %eax
	je	.L60
	.loc 1 204 0 is_stmt 1
	leal	-56(%ebp), %eax
	movl	%eax, 8(%esp)
	leal	-46(%ebp), %eax
	movl	%eax, 4(%esp)
	movl	-12(%ebp), %eax
	movl	%eax, (%esp)
	call	dirlookup
.LVL75:
	movl	%eax, -16(%ebp)
.LVL76:
	cmpl	$0, -16(%ebp)
	jne	.L61
	.loc 1 205 0
	jmp	.L60
.L61:
	.loc 1 206 0
	movl	-16(%ebp), %eax
.LVL77:
	movl	%eax, (%esp)
	call	ilock
.LVL78:
	.loc 1 208 0
	movl	-16(%ebp), %eax
	movzwl	22(%eax), %eax
	testw	%ax, %ax
	jg	.L62
	.loc 1 209 0
	movl	$.LC3, (%esp)
	call	panic
.LVL79:
.L62:
	.loc 1 210 0
	movl	-16(%ebp), %eax
	movzwl	16(%eax), %eax
	cmpw	$1, %ax
	jne	.L63
	.loc 1 210 0 is_stmt 0 discriminator 1
	movl	-16(%ebp), %eax
	movl	%eax, (%esp)
	call	isdirempty
.LVL80:
	testl	%eax, %eax
	jne	.L63
	.loc 1 211 0 is_stmt 1
	movl	-16(%ebp), %eax
	movl	%eax, (%esp)
	call	iunlockput
.LVL81:
	.loc 1 212 0
	jmp	.L60
.L63:
	.loc 1 215 0
	movl	$16, 8(%esp)
	movl	$0, 4(%esp)
	leal	-32(%ebp), %eax
	movl	%eax, (%esp)
	call	memset
.LVL82:
	.loc 1 216 0
	movl	-56(%ebp), %eax
	movl	$16, 12(%esp)
	movl	%eax, 8(%esp)
	leal	-32(%ebp), %eax
	movl	%eax, 4(%esp)
	movl	-12(%ebp), %eax
	movl	%eax, (%esp)
	call	writei
.LVL83:
	cmpl	$16, %eax
	je	.L64
	.loc 1 217 0
	movl	$.LC4, (%esp)
	call	panic
.LVL84:
.L64:
	.loc 1 218 0
	movl	-16(%ebp), %eax
	movzwl	16(%eax), %eax
	cmpw	$1, %ax
	jne	.L65
	.loc 1 219 0
	movl	-12(%ebp), %eax
	movzwl	22(%eax), %eax
	leal	-1(%eax), %edx
	movl	-12(%ebp), %eax
	movw	%dx, 22(%eax)
	.loc 1 220 0
	movl	-12(%ebp), %eax
	movl	%eax, (%esp)
	call	iupdate
.LVL85:
.L65:
	.loc 1 222 0
	movl	-12(%ebp), %eax
	movl	%eax, (%esp)
	call	iunlockput
.LVL86:
	.loc 1 224 0
	movl	-16(%ebp), %eax
	movzwl	22(%eax), %eax
	leal	-1(%eax), %edx
	movl	-16(%ebp), %eax
	movw	%dx, 22(%eax)
	.loc 1 225 0
	movl	-16(%ebp), %eax
	movl	%eax, (%esp)
	call	iupdate
.LVL87:
	.loc 1 226 0
	movl	-16(%ebp), %eax
	movl	%eax, (%esp)
	call	iunlockput
.LVL88:
	.loc 1 228 0
	call	end_op
.LVL89:
	.loc 1 230 0
	movl	$0, %eax
	jmp	.L66
.LVL90:
.L60:
	.loc 1 233 0
	movl	-12(%ebp), %eax
	movl	%eax, (%esp)
	call	iunlockput
.LVL91:
	.loc 1 234 0
	call	end_op
.LVL92:
	.loc 1 235 0
	movl	$-1, %eax
.LVL93:
.L66:
	.loc 1 236 0
	leave
.LCFI29:
	.cfi_restore 5
	.cfi_def_cfa 4, 4
	ret
	.cfi_endproc
.LFE9:
	.size	sys_unlink, .-sys_unlink
	.section	.rodata
.LC5:
	.string	"create: ialloc"
.LC6:
	.string	"create dots"
.LC7:
	.string	"create: dirlink"
	.text
	.type	create, @function
create:
.LFB10:
	.loc 1 240 0
	.cfi_startproc
.LVL94:
	pushl	%ebp
.LCFI30:
	.cfi_def_cfa_offset 8
	.cfi_offset 5, -8
	movl	%esp, %ebp
.LCFI31:
	.cfi_def_cfa_register 5
	subl	$72, %esp
	movl	12(%ebp), %ecx
	movl	16(%ebp), %edx
	movl	20(%ebp), %eax
	movw	%cx, -44(%ebp)
	movw	%dx, -48(%ebp)
	movw	%ax, -52(%ebp)
	.loc 1 245 0
	leal	-34(%ebp), %eax
	movl	%eax, 4(%esp)
	movl	8(%ebp), %eax
	movl	%eax, (%esp)
	call	nameiparent
.LVL95:
	movl	%eax, -12(%ebp)
.LVL96:
	cmpl	$0, -12(%ebp)
	jne	.L68
	.loc 1 246 0
	movl	$0, %eax
.LVL97:
	jmp	.L76
.LVL98:
.L68:
	.loc 1 247 0
	movl	-12(%ebp), %eax
.LVL99:
	movl	%eax, (%esp)
	call	ilock
.LVL100:
	.loc 1 249 0
	leal	-20(%ebp), %eax
	movl	%eax, 8(%esp)
	leal	-34(%ebp), %eax
	movl	%eax, 4(%esp)
	movl	-12(%ebp), %eax
	movl	%eax, (%esp)
	call	dirlookup
.LVL101:
	movl	%eax, -16(%ebp)
.LVL102:
	cmpl	$0, -16(%ebp)
	je	.L70
	.loc 1 250 0
	movl	-12(%ebp), %eax
.LVL103:
	movl	%eax, (%esp)
	call	iunlockput
.LVL104:
	.loc 1 251 0
	movl	-16(%ebp), %eax
	movl	%eax, (%esp)
	call	ilock
.LVL105:
	.loc 1 252 0
	cmpw	$2, -44(%ebp)
	jne	.L71
	.loc 1 252 0 is_stmt 0 discriminator 1
	movl	-16(%ebp), %eax
	movzwl	16(%eax), %eax
	cmpw	$2, %ax
	jne	.L71
	.loc 1 253 0 is_stmt 1
	movl	-16(%ebp), %eax
	jmp	.L76
.L71:
	.loc 1 254 0
	movl	-16(%ebp), %eax
	movl	%eax, (%esp)
	call	iunlockput
.LVL106:
	.loc 1 255 0
	movl	$0, %eax
	jmp	.L76
.LVL107:
.L70:
	.loc 1 258 0
	movswl	-44(%ebp), %edx
	movl	-12(%ebp), %eax
.LVL108:
	movl	(%eax), %eax
	movl	%edx, 4(%esp)
	movl	%eax, (%esp)
	call	ialloc
.LVL109:
	movl	%eax, -16(%ebp)
.LVL110:
	cmpl	$0, -16(%ebp)
	jne	.L72
	.loc 1 259 0
	movl	$.LC5, (%esp)
	call	panic
.LVL111:
.L72:
	.loc 1 261 0
	movl	-16(%ebp), %eax
.LVL112:
	movl	%eax, (%esp)
	call	ilock
.LVL113:
	.loc 1 262 0
	movl	-16(%ebp), %eax
	movzwl	-48(%ebp), %edx
	movw	%dx, 18(%eax)
	.loc 1 263 0
	movl	-16(%ebp), %eax
	movzwl	-52(%ebp), %edx
	movw	%dx, 20(%eax)
	.loc 1 264 0
	movl	-16(%ebp), %eax
	movw	$1, 22(%eax)
	.loc 1 265 0
	movl	-16(%ebp), %eax
	movl	%eax, (%esp)
	call	iupdate
.LVL114:
	.loc 1 267 0
	cmpw	$1, -44(%ebp)
	jne	.L73
	.loc 1 268 0
	movl	-12(%ebp), %eax
	movzwl	22(%eax), %eax
	leal	1(%eax), %edx
	movl	-12(%ebp), %eax
	movw	%dx, 22(%eax)
	.loc 1 269 0
	movl	-12(%ebp), %eax
	movl	%eax, (%esp)
	call	iupdate
.LVL115:
	.loc 1 271 0
	movl	-16(%ebp), %eax
	movl	4(%eax), %eax
	movl	%eax, 8(%esp)
	movl	$.LC1, 4(%esp)
	movl	-16(%ebp), %eax
	movl	%eax, (%esp)
	call	dirlink
.LVL116:
	testl	%eax, %eax
	js	.L74
	.loc 1 271 0 is_stmt 0 discriminator 1
	movl	-12(%ebp), %eax
	movl	4(%eax), %eax
	movl	%eax, 8(%esp)
	movl	$.LC2, 4(%esp)
	movl	-16(%ebp), %eax
	movl	%eax, (%esp)
	call	dirlink
.LVL117:
	testl	%eax, %eax
	jns	.L73
.L74:
	.loc 1 272 0 is_stmt 1
	movl	$.LC6, (%esp)
	call	panic
.LVL118:
.L73:
	.loc 1 275 0
	movl	-16(%ebp), %eax
	movl	4(%eax), %eax
	movl	%eax, 8(%esp)
	leal	-34(%ebp), %eax
	movl	%eax, 4(%esp)
	movl	-12(%ebp), %eax
	movl	%eax, (%esp)
	call	dirlink
.LVL119:
	testl	%eax, %eax
	jns	.L75
	.loc 1 276 0
	movl	$.LC7, (%esp)
	call	panic
.LVL120:
.L75:
	.loc 1 278 0
	movl	-12(%ebp), %eax
	movl	%eax, (%esp)
	call	iunlockput
.LVL121:
	.loc 1 280 0
	movl	-16(%ebp), %eax
.LVL122:
.L76:
	.loc 1 281 0
	leave
.LCFI32:
	.cfi_restore 5
	.cfi_def_cfa 4, 4
	ret
	.cfi_endproc
.LFE10:
	.size	create, .-create
	.globl	sys_open
	.type	sys_open, @function
sys_open:
.LFB11:
	.loc 1 285 0
	.cfi_startproc
	pushl	%ebp
.LCFI33:
	.cfi_def_cfa_offset 8
	.cfi_offset 5, -8
	movl	%esp, %ebp
.LCFI34:
	.cfi_def_cfa_register 5
	subl	$56, %esp
	.loc 1 291 0
	leal	-24(%ebp), %eax
	movl	%eax, 4(%esp)
	movl	$0, (%esp)
	call	argstr
.LVL123:
	testl	%eax, %eax
	js	.L78
	.loc 1 291 0 is_stmt 0 discriminator 1
	leal	-28(%ebp), %eax
	movl	%eax, 4(%esp)
	movl	$1, (%esp)
	call	argint
.LVL124:
	testl	%eax, %eax
	jns	.L79
.L78:
	.loc 1 292 0 is_stmt 1
	movl	$-1, %eax
	jmp	.L90
.L79:
	.loc 1 294 0
	call	begin_op
.LVL125:
	.loc 1 296 0
	movl	-28(%ebp), %eax
	andl	$512, %eax
	testl	%eax, %eax
	je	.L81
	.loc 1 297 0
	movl	-24(%ebp), %eax
	movl	$0, 12(%esp)
	movl	$0, 8(%esp)
	movl	$2, 4(%esp)
	movl	%eax, (%esp)
	call	create
.LVL126:
	movl	%eax, -12(%ebp)
.LVL127:
	.loc 1 298 0
	cmpl	$0, -12(%ebp)
	jne	.L82
	.loc 1 299 0
	call	end_op
.LVL128:
	.loc 1 300 0
	movl	$-1, %eax
	jmp	.L90
.LVL129:
.L81:
	.loc 1 303 0
	movl	-24(%ebp), %eax
	movl	%eax, (%esp)
	call	namei
.LVL130:
	movl	%eax, -12(%ebp)
.LVL131:
	cmpl	$0, -12(%ebp)
	jne	.L83
	.loc 1 304 0
	call	end_op
.LVL132:
	.loc 1 305 0
	movl	$-1, %eax
	jmp	.L90
.LVL133:
.L83:
	.loc 1 307 0
	movl	-12(%ebp), %eax
.LVL134:
	movl	%eax, (%esp)
	call	ilock
.LVL135:
	.loc 1 308 0
	movl	-12(%ebp), %eax
	movzwl	16(%eax), %eax
	cmpw	$1, %ax
	jne	.L82
	.loc 1 308 0 is_stmt 0 discriminator 1
	movl	-28(%ebp), %eax
	testl	%eax, %eax
	je	.L82
	.loc 1 309 0 is_stmt 1
	movl	-12(%ebp), %eax
	movl	%eax, (%esp)
	call	iunlockput
.LVL136:
	.loc 1 310 0
	call	end_op
.LVL137:
	.loc 1 311 0
	movl	$-1, %eax
	jmp	.L90
.L82:
	.loc 1 315 0
	call	filealloc
.LVL138:
	movl	%eax, -16(%ebp)
.LVL139:
	cmpl	$0, -16(%ebp)
	je	.L84
	.loc 1 315 0 is_stmt 0 discriminator 1
	movl	-16(%ebp), %eax
	movl	%eax, (%esp)
	call	fdalloc
.LVL140:
	movl	%eax, -20(%ebp)
.LVL141:
	cmpl	$0, -20(%ebp)
	jns	.L85
.LVL142:
.L84:
	.loc 1 316 0 is_stmt 1
	cmpl	$0, -16(%ebp)
	je	.L86
	.loc 1 317 0
	movl	-16(%ebp), %eax
	movl	%eax, (%esp)
	call	fileclose
.LVL143:
.L86:
	.loc 1 318 0
	movl	-12(%ebp), %eax
	movl	%eax, (%esp)
	call	iunlockput
.LVL144:
	.loc 1 319 0
	call	end_op
.LVL145:
	.loc 1 320 0
	movl	$-1, %eax
	jmp	.L90
.LVL146:
.L85:
	.loc 1 322 0
	movl	-12(%ebp), %eax
.LVL147:
	movl	%eax, (%esp)
	call	iunlock
.LVL148:
	.loc 1 323 0
	call	end_op
.LVL149:
	.loc 1 325 0
	movl	-16(%ebp), %eax
	movl	$2, (%eax)
	.loc 1 326 0
	movl	-16(%ebp), %eax
	movl	-12(%ebp), %edx
	movl	%edx, 16(%eax)
	.loc 1 327 0
	movl	-16(%ebp), %eax
	movl	$0, 20(%eax)
	.loc 1 328 0
	movl	-28(%ebp), %eax
	andl	$1, %eax
	testl	%eax, %eax
	sete	%al
	movl	%eax, %edx
	movl	-16(%ebp), %eax
	movb	%dl, 8(%eax)
	.loc 1 329 0
	movl	-28(%ebp), %eax
	andl	$1, %eax
	testl	%eax, %eax
	jne	.L87
	.loc 1 329 0 is_stmt 0 discriminator 2
	movl	-28(%ebp), %eax
	andl	$2, %eax
	testl	%eax, %eax
	je	.L88
.L87:
	.loc 1 329 0 discriminator 1
	movl	$1, %eax
	jmp	.L89
.L88:
	.loc 1 329 0 discriminator 3
	movl	$0, %eax
.L89:
	.loc 1 329 0 discriminator 4
	movl	%eax, %edx
	movl	-16(%ebp), %eax
	movb	%dl, 9(%eax)
	.loc 1 330 0 is_stmt 1 discriminator 4
	movl	-20(%ebp), %eax
.LVL150:
.L90:
	.loc 1 331 0
	leave
.LCFI35:
	.cfi_restore 5
	.cfi_def_cfa 4, 4
	ret
	.cfi_endproc
.LFE11:
	.size	sys_open, .-sys_open
	.globl	sys_mkdir
	.type	sys_mkdir, @function
sys_mkdir:
.LFB12:
	.loc 1 335 0
	.cfi_startproc
	pushl	%ebp
.LCFI36:
	.cfi_def_cfa_offset 8
	.cfi_offset 5, -8
	movl	%esp, %ebp
.LCFI37:
	.cfi_def_cfa_register 5
	subl	$40, %esp
	.loc 1 339 0
	call	begin_op
.LVL151:
	.loc 1 340 0
	leal	-16(%ebp), %eax
	movl	%eax, 4(%esp)
	movl	$0, (%esp)
	call	argstr
.LVL152:
	testl	%eax, %eax
	js	.L92
	.loc 1 340 0 is_stmt 0 discriminator 1
	movl	-16(%ebp), %eax
	movl	$0, 12(%esp)
	movl	$0, 8(%esp)
	movl	$1, 4(%esp)
	movl	%eax, (%esp)
	call	create
.LVL153:
	movl	%eax, -12(%ebp)
.LVL154:
	cmpl	$0, -12(%ebp)
	jne	.L93
.LVL155:
.L92:
	.loc 1 341 0 is_stmt 1
	call	end_op
.LVL156:
	.loc 1 342 0
	movl	$-1, %eax
	jmp	.L95
.LVL157:
.L93:
	.loc 1 344 0
	movl	-12(%ebp), %eax
.LVL158:
	movl	%eax, (%esp)
	call	iunlockput
.LVL159:
	.loc 1 345 0
	call	end_op
.LVL160:
	.loc 1 346 0
	movl	$0, %eax
.LVL161:
.L95:
	.loc 1 347 0
	leave
.LCFI38:
	.cfi_restore 5
	.cfi_def_cfa 4, 4
	ret
	.cfi_endproc
.LFE12:
	.size	sys_mkdir, .-sys_mkdir
	.globl	sys_mknod
	.type	sys_mknod, @function
sys_mknod:
.LFB13:
	.loc 1 351 0
	.cfi_startproc
	pushl	%ebp
.LCFI39:
	.cfi_def_cfa_offset 8
	.cfi_offset 5, -8
	movl	%esp, %ebp
.LCFI40:
	.cfi_def_cfa_register 5
	subl	$56, %esp
	.loc 1 357 0
	call	begin_op
.LVL162:
	.loc 1 358 0
	leal	-20(%ebp), %eax
	movl	%eax, 4(%esp)
	movl	$0, (%esp)
	call	argstr
.LVL163:
	movl	%eax, -12(%ebp)
.LVL164:
	cmpl	$0, -12(%ebp)
	js	.L97
	.loc 1 359 0 discriminator 1
	leal	-24(%ebp), %eax
.LVL165:
	movl	%eax, 4(%esp)
	movl	$1, (%esp)
	call	argint
.LVL166:
	.loc 1 358 0 discriminator 1
	testl	%eax, %eax
	js	.L97
	.loc 1 360 0
	leal	-28(%ebp), %eax
	movl	%eax, 4(%esp)
	movl	$2, (%esp)
	call	argint
.LVL167:
	.loc 1 359 0
	testl	%eax, %eax
	js	.L97
	.loc 1 361 0
	movl	-28(%ebp), %eax
	movswl	%ax, %ecx
	movl	-24(%ebp), %eax
	movswl	%ax, %edx
	movl	-20(%ebp), %eax
	.loc 1 360 0
	movl	%ecx, 12(%esp)
	movl	%edx, 8(%esp)
	movl	$3, 4(%esp)
	movl	%eax, (%esp)
	call	create
.LVL168:
	movl	%eax, -16(%ebp)
.LVL169:
	cmpl	$0, -16(%ebp)
	jne	.L98
.LVL170:
.L97:
	.loc 1 362 0
	call	end_op
.LVL171:
	.loc 1 363 0
	movl	$-1, %eax
	jmp	.L100
.LVL172:
.L98:
	.loc 1 365 0
	movl	-16(%ebp), %eax
.LVL173:
	movl	%eax, (%esp)
	call	iunlockput
.LVL174:
	.loc 1 366 0
	call	end_op
.LVL175:
	.loc 1 367 0
	movl	$0, %eax
.LVL176:
.L100:
	.loc 1 368 0
	leave
.LCFI41:
	.cfi_restore 5
	.cfi_def_cfa 4, 4
.LVL177:
	ret
	.cfi_endproc
.LFE13:
	.size	sys_mknod, .-sys_mknod
	.globl	sys_chdir
	.type	sys_chdir, @function
sys_chdir:
.LFB14:
	.loc 1 372 0
	.cfi_startproc
	pushl	%ebp
.LCFI42:
	.cfi_def_cfa_offset 8
	.cfi_offset 5, -8
	movl	%esp, %ebp
.LCFI43:
	.cfi_def_cfa_register 5
	subl	$40, %esp
	.loc 1 376 0
	call	begin_op
.LVL178:
	.loc 1 377 0
	leal	-16(%ebp), %eax
	movl	%eax, 4(%esp)
	movl	$0, (%esp)
	call	argstr
.LVL179:
	testl	%eax, %eax
	js	.L102
	.loc 1 377 0 is_stmt 0 discriminator 1
	movl	-16(%ebp), %eax
	movl	%eax, (%esp)
	call	namei
.LVL180:
	movl	%eax, -12(%ebp)
.LVL181:
	cmpl	$0, -12(%ebp)
	jne	.L103
.LVL182:
.L102:
	.loc 1 378 0 is_stmt 1
	call	end_op
.LVL183:
	.loc 1 379 0
	movl	$-1, %eax
	jmp	.L106
.LVL184:
.L103:
	.loc 1 381 0
	movl	-12(%ebp), %eax
.LVL185:
	movl	%eax, (%esp)
	call	ilock
.LVL186:
	.loc 1 382 0
	movl	-12(%ebp), %eax
	movzwl	16(%eax), %eax
	cmpw	$1, %ax
	je	.L105
	.loc 1 383 0
	movl	-12(%ebp), %eax
	movl	%eax, (%esp)
	call	iunlockput
.LVL187:
	.loc 1 384 0
	call	end_op
.LVL188:
	.loc 1 385 0
	movl	$-1, %eax
	jmp	.L106
.L105:
	.loc 1 387 0
	movl	-12(%ebp), %eax
	movl	%eax, (%esp)
	call	iunlock
.LVL189:
	.loc 1 388 0
	movl	%gs:4, %eax
	movl	104(%eax), %eax
	movl	%eax, (%esp)
	call	iput
.LVL190:
	.loc 1 389 0
	call	end_op
.LVL191:
	.loc 1 390 0
	movl	%gs:4, %eax
	movl	-12(%ebp), %edx
	movl	%edx, 104(%eax)
	.loc 1 391 0
	movl	$0, %eax
.LVL192:
.L106:
	.loc 1 392 0
	leave
.LCFI44:
	.cfi_restore 5
	.cfi_def_cfa 4, 4
	ret
	.cfi_endproc
.LFE14:
	.size	sys_chdir, .-sys_chdir
	.globl	sys_exec
	.type	sys_exec, @function
sys_exec:
.LFB15:
	.loc 1 396 0
	.cfi_startproc
	pushl	%ebp
.LCFI45:
	.cfi_def_cfa_offset 8
	.cfi_offset 5, -8
	movl	%esp, %ebp
.LCFI46:
	.cfi_def_cfa_register 5
	subl	$168, %esp
	.loc 1 401 0
	leal	-16(%ebp), %eax
	movl	%eax, 4(%esp)
	movl	$0, (%esp)
	call	argstr
.LVL193:
	testl	%eax, %eax
	js	.L108
	.loc 1 401 0 is_stmt 0 discriminator 1
	leal	-148(%ebp), %eax
	movl	%eax, 4(%esp)
	movl	$1, (%esp)
	call	argint
.LVL194:
	testl	%eax, %eax
	jns	.L109
.L108:
	.loc 1 402 0 is_stmt 1
	movl	$-1, %eax
	jmp	.L117
.L109:
	.loc 1 404 0
	movl	$128, 8(%esp)
	movl	$0, 4(%esp)
	leal	-144(%ebp), %eax
	movl	%eax, (%esp)
	call	memset
.LVL195:
	.loc 1 405 0
	movl	$0, -12(%ebp)
.LVL196:
.L116:
	.loc 1 406 0
	movl	-12(%ebp), %eax
	cmpl	$31, %eax
	jbe	.L111
	.loc 1 407 0
	movl	$-1, %eax
	jmp	.L117
.LVL197:
.L111:
	.loc 1 408 0
	movl	-12(%ebp), %eax
.LVL198:
	sall	$2, %eax
	movl	%eax, %edx
	movl	-148(%ebp), %eax
	addl	%eax, %edx
	leal	-152(%ebp), %eax
	movl	%eax, 4(%esp)
	movl	%edx, (%esp)
	call	fetchint
.LVL199:
	testl	%eax, %eax
	jns	.L112
	.loc 1 409 0
	movl	$-1, %eax
	jmp	.L117
.L112:
	.loc 1 410 0
	movl	-152(%ebp), %eax
	testl	%eax, %eax
	jne	.L113
	.loc 1 411 0
	movl	-12(%ebp), %eax
	movl	$0, -144(%ebp,%eax,4)
	.loc 1 412 0
	nop
	.loc 1 417 0
	movl	-16(%ebp), %eax
	leal	-144(%ebp), %edx
	movl	%edx, 4(%esp)
	movl	%eax, (%esp)
	call	exec
.LVL200:
	jmp	.L117
.L113:
	.loc 1 414 0
	leal	-144(%ebp), %eax
	movl	-12(%ebp), %edx
	sall	$2, %edx
	addl	%eax, %edx
	movl	-152(%ebp), %eax
	movl	%edx, 4(%esp)
	movl	%eax, (%esp)
	call	fetchstr
.LVL201:
	testl	%eax, %eax
	jns	.L115
	.loc 1 415 0
	movl	$-1, %eax
	jmp	.L117
.L115:
	.loc 1 405 0
	addl	$1, -12(%ebp)
	.loc 1 416 0
	jmp	.L116
.LVL202:
.L117:
	.loc 1 418 0
	leave
.LCFI47:
	.cfi_restore 5
	.cfi_def_cfa 4, 4
	ret
	.cfi_endproc
.LFE15:
	.size	sys_exec, .-sys_exec
	.globl	sys_pipe
	.type	sys_pipe, @function
sys_pipe:
.LFB16:
	.loc 1 422 0
	.cfi_startproc
	pushl	%ebp
.LCFI48:
	.cfi_def_cfa_offset 8
	.cfi_offset 5, -8
	movl	%esp, %ebp
.LCFI49:
	.cfi_def_cfa_register 5
	subl	$56, %esp
	.loc 1 427 0
	movl	$8, 8(%esp)
	leal	-20(%ebp), %eax
	movl	%eax, 4(%esp)
	movl	$0, (%esp)
	call	argptr
.LVL203:
	testl	%eax, %eax
	jns	.L119
	.loc 1 428 0
	movl	$-1, %eax
	jmp	.L125
.L119:
	.loc 1 429 0
	leal	-28(%ebp), %eax
	movl	%eax, 4(%esp)
	leal	-24(%ebp), %eax
	movl	%eax, (%esp)
	call	pipealloc
.LVL204:
	testl	%eax, %eax
	jns	.L121
	.loc 1 430 0
	movl	$-1, %eax
	jmp	.L125
.L121:
	.loc 1 431 0
	movl	$-1, -12(%ebp)
.LVL205:
	.loc 1 432 0
	movl	-24(%ebp), %eax
	movl	%eax, (%esp)
	call	fdalloc
.LVL206:
	movl	%eax, -12(%ebp)
.LVL207:
	cmpl	$0, -12(%ebp)
	js	.L122
	.loc 1 432 0 is_stmt 0 discriminator 1
	movl	-28(%ebp), %eax
.LVL208:
	movl	%eax, (%esp)
	call	fdalloc
.LVL209:
	movl	%eax, -16(%ebp)
.LVL210:
	cmpl	$0, -16(%ebp)
	jns	.L123
.LVL211:
.L122:
	.loc 1 433 0 is_stmt 1
	cmpl	$0, -12(%ebp)
	js	.L124
	.loc 1 434 0
	movl	%gs:4, %eax
	movl	-12(%ebp), %edx
	addl	$8, %edx
	movl	$0, 8(%eax,%edx,4)
.L124:
	.loc 1 435 0
	movl	-24(%ebp), %eax
	movl	%eax, (%esp)
	call	fileclose
.LVL212:
	.loc 1 436 0
	movl	-28(%ebp), %eax
	movl	%eax, (%esp)
	call	fileclose
.LVL213:
	.loc 1 437 0
	movl	$-1, %eax
	jmp	.L125
.LVL214:
.L123:
	.loc 1 439 0
	movl	-20(%ebp), %eax
.LVL215:
	movl	-12(%ebp), %edx
	movl	%edx, (%eax)
	.loc 1 440 0
	movl	-20(%ebp), %eax
	leal	4(%eax), %edx
	movl	-16(%ebp), %eax
	movl	%eax, (%edx)
	.loc 1 441 0
	movl	$0, %eax
.LVL216:
.L125:
	.loc 1 442 0
	leave
.LCFI50:
	.cfi_restore 5
	.cfi_def_cfa 4, 4
	ret
	.cfi_endproc
.LFE16:
	.size	sys_pipe, .-sys_pipe
.Letext0:
	.file 2 "types.h"
	.file 3 "stat.h"
	.file 4 "proc.h"
	.file 5 "file.h"
	.file 6 "fs.h"
	.file 7 "defs.h"
	.section	.note.GNU-stack,"",@progbits
