	.file	"sysproc.c"
	.text
.Ltext0:
	.globl	sys_fork
	.type	sys_fork, @function
sys_fork:
.LFB20:
	.file 1 "sysproc.c"
	.loc 1 12 0
	.cfi_startproc
	pushl	%ebp
.LCFI0:
	.cfi_def_cfa_offset 8
	.cfi_offset 5, -8
	movl	%esp, %ebp
.LCFI1:
	.cfi_def_cfa_register 5
	subl	$8, %esp
	.loc 1 13 0
	call	fork
.LVL0:
	.loc 1 14 0
	leave
.LCFI2:
	.cfi_restore 5
	.cfi_def_cfa 4, 4
	ret
	.cfi_endproc
.LFE20:
	.size	sys_fork, .-sys_fork
	.globl	sys_exit
	.type	sys_exit, @function
sys_exit:
.LFB21:
	.loc 1 18 0
	.cfi_startproc
	pushl	%ebp
.LCFI3:
	.cfi_def_cfa_offset 8
	.cfi_offset 5, -8
	movl	%esp, %ebp
.LCFI4:
	.cfi_def_cfa_register 5
	subl	$8, %esp
	.loc 1 19 0
	call	exit
.LVL1:
	.loc 1 20 0
	movl	$0, %eax
	.loc 1 21 0
	leave
.LCFI5:
	.cfi_restore 5
	.cfi_def_cfa 4, 4
	ret
	.cfi_endproc
.LFE21:
	.size	sys_exit, .-sys_exit
	.globl	sys_wait
	.type	sys_wait, @function
sys_wait:
.LFB22:
	.loc 1 25 0
	.cfi_startproc
	pushl	%ebp
.LCFI6:
	.cfi_def_cfa_offset 8
	.cfi_offset 5, -8
	movl	%esp, %ebp
.LCFI7:
	.cfi_def_cfa_register 5
	subl	$8, %esp
	.loc 1 26 0
	call	wait
.LVL2:
	.loc 1 27 0
	leave
.LCFI8:
	.cfi_restore 5
	.cfi_def_cfa 4, 4
	ret
	.cfi_endproc
.LFE22:
	.size	sys_wait, .-sys_wait
	.globl	sys_kill
	.type	sys_kill, @function
sys_kill:
.LFB23:
	.loc 1 31 0
	.cfi_startproc
	pushl	%ebp
.LCFI9:
	.cfi_def_cfa_offset 8
	.cfi_offset 5, -8
	movl	%esp, %ebp
.LCFI10:
	.cfi_def_cfa_register 5
	subl	$40, %esp
	.loc 1 34 0
	leal	-12(%ebp), %eax
	movl	%eax, 4(%esp)
	movl	$0, (%esp)
	call	argint
.LVL3:
	testl	%eax, %eax
	jns	.L8
	.loc 1 35 0
	movl	$-1, %eax
	jmp	.L10
.L8:
	.loc 1 36 0
	movl	-12(%ebp), %eax
	movl	%eax, (%esp)
	call	kill
.LVL4:
.L10:
	.loc 1 37 0
	leave
.LCFI11:
	.cfi_restore 5
	.cfi_def_cfa 4, 4
	ret
	.cfi_endproc
.LFE23:
	.size	sys_kill, .-sys_kill
	.globl	sys_getpid
	.type	sys_getpid, @function
sys_getpid:
.LFB24:
	.loc 1 41 0
	.cfi_startproc
	pushl	%ebp
.LCFI12:
	.cfi_def_cfa_offset 8
	.cfi_offset 5, -8
	movl	%esp, %ebp
.LCFI13:
	.cfi_def_cfa_register 5
	.loc 1 42 0
	movl	%gs:4, %eax
	movl	16(%eax), %eax
	.loc 1 43 0
	popl	%ebp
.LCFI14:
	.cfi_restore 5
	.cfi_def_cfa 4, 4
	ret
	.cfi_endproc
.LFE24:
	.size	sys_getpid, .-sys_getpid
	.globl	sys_sbrk
	.type	sys_sbrk, @function
sys_sbrk:
.LFB25:
	.loc 1 47 0
	.cfi_startproc
	pushl	%ebp
.LCFI15:
	.cfi_def_cfa_offset 8
	.cfi_offset 5, -8
	movl	%esp, %ebp
.LCFI16:
	.cfi_def_cfa_register 5
	subl	$40, %esp
	.loc 1 51 0
	leal	-16(%ebp), %eax
	movl	%eax, 4(%esp)
	movl	$0, (%esp)
	call	argint
.LVL5:
	testl	%eax, %eax
	jns	.L14
	.loc 1 52 0
	movl	$-1, %eax
	jmp	.L17
.L14:
	.loc 1 53 0
	movl	%gs:4, %eax
	movl	(%eax), %eax
	movl	%eax, -12(%ebp)
.LVL6:
	.loc 1 54 0
	movl	-16(%ebp), %eax
.LVL7:
	movl	%eax, (%esp)
.LVL8:
	call	growproc
.LVL9:
	testl	%eax, %eax
	jns	.L16
	.loc 1 55 0
	movl	$-1, %eax
	jmp	.L17
.L16:
	.loc 1 56 0
	movl	-12(%ebp), %eax
.LVL10:
.L17:
	.loc 1 57 0
	leave
.LCFI17:
	.cfi_restore 5
	.cfi_def_cfa 4, 4
	ret
	.cfi_endproc
.LFE25:
	.size	sys_sbrk, .-sys_sbrk
	.globl	sys_sleep
	.type	sys_sleep, @function
sys_sleep:
.LFB26:
	.loc 1 61 0
	.cfi_startproc
	pushl	%ebp
.LCFI18:
	.cfi_def_cfa_offset 8
	.cfi_offset 5, -8
	movl	%esp, %ebp
.LCFI19:
	.cfi_def_cfa_register 5
	subl	$40, %esp
	.loc 1 65 0
	leal	-16(%ebp), %eax
	movl	%eax, 4(%esp)
	movl	$0, (%esp)
	call	argint
.LVL11:
	testl	%eax, %eax
	jns	.L19
	.loc 1 66 0
	movl	$-1, %eax
	jmp	.L24
.L19:
	.loc 1 67 0
	movl	$tickslock, (%esp)
	call	acquire
.LVL12:
	.loc 1 68 0
	movl	ticks, %eax
	movl	%eax, -12(%ebp)
.LVL13:
	.loc 1 69 0
	jmp	.L21
.LVL14:
.L23:
	.loc 1 70 0
	movl	%gs:4, %eax
	movl	36(%eax), %eax
	testl	%eax, %eax
	je	.L22
	.loc 1 71 0
	movl	$tickslock, (%esp)
	call	release
.LVL15:
	.loc 1 72 0
	movl	$-1, %eax
	jmp	.L24
.L22:
	.loc 1 74 0
	movl	$tickslock, 4(%esp)
	movl	$ticks, (%esp)
	call	sleep
.LVL16:
.L21:
	.loc 1 69 0 discriminator 1
	movl	ticks, %eax
	subl	-12(%ebp), %eax
	movl	%eax, %edx
	movl	-16(%ebp), %eax
	cmpl	%eax, %edx
	jb	.L23
	.loc 1 76 0
	movl	$tickslock, (%esp)
	call	release
.LVL17:
	.loc 1 77 0
	movl	$0, %eax
.LVL18:
.L24:
	.loc 1 78 0
	leave
.LCFI20:
	.cfi_restore 5
	.cfi_def_cfa 4, 4
	ret
	.cfi_endproc
.LFE26:
	.size	sys_sleep, .-sys_sleep
	.globl	sys_uptime
	.type	sys_uptime, @function
sys_uptime:
.LFB27:
	.loc 1 84 0
	.cfi_startproc
	pushl	%ebp
.LCFI21:
	.cfi_def_cfa_offset 8
	.cfi_offset 5, -8
	movl	%esp, %ebp
.LCFI22:
	.cfi_def_cfa_register 5
	subl	$40, %esp
	.loc 1 87 0
	movl	$tickslock, (%esp)
	call	acquire
.LVL19:
	.loc 1 88 0
	movl	ticks, %eax
	movl	%eax, -12(%ebp)
.LVL20:
	.loc 1 89 0
	movl	$tickslock, (%esp)
	call	release
.LVL21:
	.loc 1 90 0
	movl	-12(%ebp), %eax
	.loc 1 91 0
	leave
.LCFI23:
	.cfi_restore 5
	.cfi_def_cfa 4, 4
.LVL22:
	ret
	.cfi_endproc
.LFE27:
	.size	sys_uptime, .-sys_uptime
.Letext0:
	.file 2 "types.h"
	.file 3 "x86.h"
	.file 4 "proc.h"
	.file 5 "defs.h"
	.section	.note.GNU-stack,"",@progbits
