	.file	"timer.c"
	.text
.Ltext0:
	.type	outb, @function
outb:
.LFB2:
	.file 1 "x86.h"
	.loc 1 23 0
	.cfi_startproc
.LVL0:
	pushl	%ebp
.LCFI0:
	.cfi_def_cfa_offset 8
	.cfi_offset 5, -8
	movl	%esp, %ebp
.LCFI1:
	.cfi_def_cfa_register 5
	subl	$8, %esp
	movl	8(%ebp), %edx
	movl	12(%ebp), %eax
	movw	%dx, -4(%ebp)
	movb	%al, -8(%ebp)
	.loc 1 24 0
	movzbl	-8(%ebp), %eax
	movzwl	-4(%ebp), %edx
#APP
# 24 "x86.h" 1
	out %al,%dx
# 0 "" 2
	.loc 1 25 0
#NO_APP
	leave
.LCFI2:
	.cfi_restore 5
	.cfi_def_cfa 4, 4
	ret
	.cfi_endproc
.LFE2:
	.size	outb, .-outb
	.globl	timerinit
	.type	timerinit, @function
timerinit:
.LFB18:
	.file 2 "timer.c"
	.loc 2 26 0
	.cfi_startproc
	pushl	%ebp
.LCFI3:
	.cfi_def_cfa_offset 8
	.cfi_offset 5, -8
	movl	%esp, %ebp
.LCFI4:
	.cfi_def_cfa_register 5
	subl	$24, %esp
	.loc 2 28 0
	movl	$52, 4(%esp)
	movl	$67, (%esp)
	call	outb
.LVL1:
	.loc 2 29 0
	movl	$156, 4(%esp)
	movl	$64, (%esp)
	call	outb
.LVL2:
	.loc 2 30 0
	movl	$46, 4(%esp)
	movl	$64, (%esp)
	call	outb
.LVL3:
	.loc 2 31 0
	movl	$0, (%esp)
	call	picenable
.LVL4:
	.loc 2 32 0
	leave
.LCFI5:
	.cfi_restore 5
	.cfi_def_cfa 4, 4
	ret
	.cfi_endproc
.LFE18:
	.size	timerinit, .-timerinit
.Letext0:
	.file 3 "types.h"
	.file 4 "defs.h"
	.section	.note.GNU-stack,"",@progbits
