	.file	"trap.c"
	.text
.Ltext0:
	.type	lidt, @function
lidt:
.LFB10:
	.file 1 "x86.h"
	.loc 1 78 0
	.cfi_startproc
.LVL0:
	pushl	%ebp
.LCFI0:
	.cfi_def_cfa_offset 8
	.cfi_offset 5, -8
	movl	%esp, %ebp
.LCFI1:
	.cfi_def_cfa_register 5
	subl	$16, %esp
	.loc 1 81 0
	movl	12(%ebp), %eax
	subl	$1, %eax
	movw	%ax, -6(%ebp)
	.loc 1 82 0
	movl	8(%ebp), %eax
	movw	%ax, -4(%ebp)
	.loc 1 83 0
	movl	8(%ebp), %eax
	shrl	$16, %eax
	movw	%ax, -2(%ebp)
	.loc 1 85 0
	leal	-6(%ebp), %eax
#APP
# 85 "x86.h" 1
	lidt (%eax)
# 0 "" 2
	.loc 1 86 0
#NO_APP
	leave
.LCFI2:
	.cfi_restore 5
	.cfi_def_cfa 4, 4
	ret
	.cfi_endproc
.LFE10:
	.size	lidt, .-lidt
	.type	rcr2, @function
rcr2:
.LFB17:
	.loc 1 135 0
	.cfi_startproc
	pushl	%ebp
.LCFI3:
	.cfi_def_cfa_offset 8
	.cfi_offset 5, -8
	movl	%esp, %ebp
.LCFI4:
	.cfi_def_cfa_register 5
	subl	$16, %esp
	.loc 1 137 0
#APP
# 137 "x86.h" 1
	movl %cr2,%eax
# 0 "" 2
#NO_APP
	movl	%eax, -4(%ebp)
.LVL1:
	.loc 1 138 0
	movl	-4(%ebp), %eax
	.loc 1 139 0
	leave
.LCFI5:
	.cfi_restore 5
	.cfi_def_cfa 4, 4
	ret
	.cfi_endproc
.LFE17:
	.size	rcr2, .-rcr2
	.comm	idt,2048,32
	.comm	tickslock,52,32
	.comm	ticks,4,4
	.section	.rodata
.LC0:
	.string	"time"
	.text
	.globl	tvinit
	.type	tvinit, @function
tvinit:
.LFB20:
	.file 2 "trap.c"
	.loc 2 19 0
	.cfi_startproc
	pushl	%ebp
.LCFI6:
	.cfi_def_cfa_offset 8
	.cfi_offset 5, -8
	movl	%esp, %ebp
.LCFI7:
	.cfi_def_cfa_register 5
	subl	$40, %esp
	.loc 2 22 0
	movl	$0, -12(%ebp)
.LVL2:
	jmp	.L5
.L6:
	.loc 2 23 0 discriminator 2
	movl	-12(%ebp), %eax
	movl	vectors(,%eax,4), %eax
	movl	%eax, %edx
	movl	-12(%ebp), %eax
	movw	%dx, idt(,%eax,8)
	movl	-12(%ebp), %eax
	movw	$8, idt+2(,%eax,8)
	movl	-12(%ebp), %eax
	movzbl	idt+4(,%eax,8), %edx
	andl	$-32, %edx
	movb	%dl, idt+4(,%eax,8)
	movl	-12(%ebp), %eax
	movzbl	idt+4(,%eax,8), %edx
	andl	$31, %edx
	movb	%dl, idt+4(,%eax,8)
	movl	-12(%ebp), %eax
	movzbl	idt+5(,%eax,8), %edx
	andl	$-16, %edx
	orl	$14, %edx
	movb	%dl, idt+5(,%eax,8)
	movl	-12(%ebp), %eax
	movzbl	idt+5(,%eax,8), %edx
	andl	$-17, %edx
	movb	%dl, idt+5(,%eax,8)
	movl	-12(%ebp), %eax
	movzbl	idt+5(,%eax,8), %edx
	andl	$-97, %edx
	movb	%dl, idt+5(,%eax,8)
	movl	-12(%ebp), %eax
	movzbl	idt+5(,%eax,8), %edx
	orl	$-128, %edx
	movb	%dl, idt+5(,%eax,8)
	movl	-12(%ebp), %eax
	movl	vectors(,%eax,4), %eax
	shrl	$16, %eax
	movl	%eax, %edx
	movl	-12(%ebp), %eax
	movw	%dx, idt+6(,%eax,8)
	.loc 2 22 0 discriminator 2
	addl	$1, -12(%ebp)
.LVL3:
.L5:
	.loc 2 22 0 is_stmt 0 discriminator 1
	cmpl	$255, -12(%ebp)
	jle	.L6
	.loc 2 24 0 is_stmt 1
	movl	vectors+256, %eax
	movw	%ax, idt+512
	movw	$8, idt+514
	movzbl	idt+516, %eax
	andl	$-32, %eax
	movb	%al, idt+516
	movzbl	idt+516, %eax
	andl	$31, %eax
	movb	%al, idt+516
	movzbl	idt+517, %eax
	orl	$15, %eax
	movb	%al, idt+517
	movzbl	idt+517, %eax
	andl	$-17, %eax
	movb	%al, idt+517
	movzbl	idt+517, %eax
	orl	$96, %eax
	movb	%al, idt+517
	movzbl	idt+517, %eax
	orl	$-128, %eax
	movb	%al, idt+517
	movl	vectors+256, %eax
	shrl	$16, %eax
	movw	%ax, idt+518
	.loc 2 26 0
	movl	$.LC0, 4(%esp)
	movl	$tickslock, (%esp)
	call	initlock
.LVL4:
	.loc 2 27 0
	leave
.LCFI8:
	.cfi_restore 5
	.cfi_def_cfa 4, 4
.LVL5:
	ret
	.cfi_endproc
.LFE20:
	.size	tvinit, .-tvinit
	.globl	idtinit
	.type	idtinit, @function
idtinit:
.LFB21:
	.loc 2 31 0
	.cfi_startproc
	pushl	%ebp
.LCFI9:
	.cfi_def_cfa_offset 8
	.cfi_offset 5, -8
	movl	%esp, %ebp
.LCFI10:
	.cfi_def_cfa_register 5
	subl	$8, %esp
	.loc 2 32 0
	movl	$2048, 4(%esp)
	movl	$idt, (%esp)
	call	lidt
.LVL6:
	.loc 2 33 0
	leave
.LCFI11:
	.cfi_restore 5
	.cfi_def_cfa 4, 4
	ret
	.cfi_endproc
.LFE21:
	.size	idtinit, .-idtinit
	.section	.rodata
	.align 4
.LC1:
	.string	"cpu%d: spurious interrupt at %x:%x\n"
	.align 4
.LC2:
	.string	"unexpected trap %d from cpu %d eip %x (cr2=0x%x)\n"
.LC3:
	.string	"trap"
	.align 4
.LC4:
	.string	"pid %d %s: trap %d err %d on cpu %d eip 0x%x addr 0x%x--kill proc\n"
	.text
	.globl	trap
	.type	trap, @function
trap:
.LFB22:
	.loc 2 38 0
	.cfi_startproc
.LVL7:
	pushl	%ebp
.LCFI12:
	.cfi_def_cfa_offset 8
	.cfi_offset 5, -8
	movl	%esp, %ebp
.LCFI13:
	.cfi_def_cfa_register 5
	pushl	%edi
	pushl	%esi
	pushl	%ebx
	subl	$60, %esp
	.cfi_offset 7, -12
	.cfi_offset 6, -16
	.cfi_offset 3, -20
	.loc 2 39 0
	movl	8(%ebp), %eax
	movl	48(%eax), %eax
	cmpl	$64, %eax
	jne	.L9
	.loc 2 40 0
	movl	%gs:4, %eax
	movl	36(%eax), %eax
	testl	%eax, %eax
	je	.L10
	.loc 2 41 0
	call	exit
.LVL8:
.L10:
	.loc 2 42 0
	movl	%gs:4, %eax
	movl	8(%ebp), %edx
	movl	%edx, 24(%eax)
	.loc 2 43 0
	call	syscall
.LVL9:
	.loc 2 44 0
	movl	%gs:4, %eax
	movl	36(%eax), %eax
	testl	%eax, %eax
	je	.L11
	.loc 2 45 0
	call	exit
.LVL10:
	.loc 2 46 0
	jmp	.L8
.L11:
	jmp	.L8
.L9:
	.loc 2 49 0
	movl	8(%ebp), %eax
	movl	48(%eax), %eax
	subl	$32, %eax
	cmpl	$31, %eax
	ja	.L13
	movl	.L15(,%eax,4), %eax
	jmp	*%eax
	.section	.rodata
	.align 4
	.align 4
.L15:
	.long	.L14
	.long	.L16
	.long	.L13
	.long	.L13
	.long	.L17
	.long	.L13
	.long	.L13
	.long	.L18
	.long	.L13
	.long	.L13
	.long	.L13
	.long	.L13
	.long	.L13
	.long	.L13
	.long	.L19
	.long	.L27
	.long	.L13
	.long	.L13
	.long	.L13
	.long	.L13
	.long	.L13
	.long	.L13
	.long	.L13
	.long	.L13
	.long	.L13
	.long	.L13
	.long	.L13
	.long	.L13
	.long	.L13
	.long	.L13
	.long	.L13
	.long	.L18
	.text
.L14:
	.loc 2 51 0
	movl	%gs:0, %eax
	movzbl	(%eax), %eax
	testb	%al, %al
	jne	.L21
	.loc 2 52 0
	movl	$tickslock, (%esp)
	call	acquire
.LVL11:
	.loc 2 53 0
	movl	ticks, %eax
	addl	$1, %eax
	movl	%eax, ticks
	.loc 2 54 0
	movl	$ticks, (%esp)
	call	wakeup
.LVL12:
	.loc 2 55 0
	movl	$tickslock, (%esp)
	call	release
.LVL13:
.L21:
	.loc 2 57 0
	call	lapiceoi
.LVL14:
	.loc 2 58 0
	jmp	.L22
.L19:
	.loc 2 60 0
	call	ideintr
.LVL15:
	.loc 2 61 0
	call	lapiceoi
.LVL16:
	.loc 2 62 0
	jmp	.L22
.L16:
	.loc 2 67 0
	call	kbdintr
.LVL17:
	.loc 2 68 0
	call	lapiceoi
.LVL18:
	.loc 2 69 0
	jmp	.L22
.L17:
	.loc 2 71 0
	call	uartintr
.LVL19:
	.loc 2 72 0
	call	lapiceoi
.LVL20:
	.loc 2 73 0
	jmp	.L22
.L18:
	.loc 2 76 0
	movl	8(%ebp), %eax
	movl	56(%eax), %ecx
	.loc 2 77 0
	movl	8(%ebp), %eax
	movzwl	60(%eax), %eax
	.loc 2 76 0
	movzwl	%ax, %edx
	.loc 2 77 0
	movl	%gs:0, %eax
	movzbl	(%eax), %eax
	.loc 2 76 0
	movzbl	%al, %eax
	movl	%ecx, 12(%esp)
	movl	%edx, 8(%esp)
	movl	%eax, 4(%esp)
	movl	$.LC1, (%esp)
	call	cprintf
.LVL21:
	.loc 2 78 0
	call	lapiceoi
.LVL22:
	.loc 2 79 0
	jmp	.L22
.L13:
	.loc 2 83 0
	movl	%gs:4, %eax
	testl	%eax, %eax
	je	.L23
	.loc 2 83 0 is_stmt 0 discriminator 1
	movl	8(%ebp), %eax
	movzwl	60(%eax), %eax
	movzwl	%ax, %eax
	andl	$3, %eax
	testl	%eax, %eax
	jne	.L24
.L23:
	.loc 2 85 0 is_stmt 1
	call	rcr2
.LVL23:
	movl	8(%ebp), %edx
	movl	56(%edx), %ebx
	.loc 2 86 0
	movl	%gs:0, %edx
	movzbl	(%edx), %edx
	.loc 2 85 0
	movzbl	%dl, %ecx
	movl	8(%ebp), %edx
	movl	48(%edx), %edx
	movl	%eax, 16(%esp)
	movl	%ebx, 12(%esp)
	movl	%ecx, 8(%esp)
	movl	%edx, 4(%esp)
	movl	$.LC2, (%esp)
	call	cprintf
.LVL24:
	.loc 2 87 0
	movl	$.LC3, (%esp)
	call	panic
.LVL25:
.L24:
	.loc 2 90 0
	call	rcr2
.LVL26:
	movl	%eax, %edx
	movl	8(%ebp), %eax
	movl	56(%eax), %edi
	.loc 2 92 0
	movl	%gs:0, %eax
	movzbl	(%eax), %eax
	.loc 2 90 0
	movzbl	%al, %esi
	movl	8(%ebp), %eax
	movl	52(%eax), %ebx
	movl	8(%ebp), %eax
	movl	48(%eax), %ecx
	.loc 2 92 0
	movl	%gs:4, %eax
	addl	$108, %eax
	movl	%eax, -28(%ebp)
	movl	%gs:4, %eax
	.loc 2 90 0
	movl	16(%eax), %eax
	movl	%edx, 28(%esp)
	movl	%edi, 24(%esp)
	movl	%esi, 20(%esp)
	movl	%ebx, 16(%esp)
	movl	%ecx, 12(%esp)
	movl	-28(%ebp), %esi
	movl	%esi, 8(%esp)
	movl	%eax, 4(%esp)
	movl	$.LC4, (%esp)
	call	cprintf
.LVL27:
	.loc 2 94 0
	movl	%gs:4, %eax
	movl	$1, 36(%eax)
	jmp	.L22
.L27:
	.loc 2 65 0
	nop
.L22:
	.loc 2 100 0
	movl	%gs:4, %eax
	testl	%eax, %eax
	je	.L25
	.loc 2 100 0 is_stmt 0 discriminator 1
	movl	%gs:4, %eax
	movl	36(%eax), %eax
	testl	%eax, %eax
	je	.L25
	movl	8(%ebp), %eax
	movzwl	60(%eax), %eax
	movzwl	%ax, %eax
	andl	$3, %eax
	cmpl	$3, %eax
	jne	.L25
	.loc 2 101 0 is_stmt 1
	call	exit
.LVL28:
.L25:
	.loc 2 105 0
	movl	%gs:4, %eax
	testl	%eax, %eax
	je	.L26
	.loc 2 105 0 is_stmt 0 discriminator 1
	movl	%gs:4, %eax
	movl	12(%eax), %eax
	cmpl	$4, %eax
	jne	.L26
	movl	8(%ebp), %eax
	movl	48(%eax), %eax
	cmpl	$32, %eax
	jne	.L26
	.loc 2 106 0 is_stmt 1
	call	yield
.LVL29:
.L26:
	.loc 2 109 0
	movl	%gs:4, %eax
	testl	%eax, %eax
	je	.L8
	.loc 2 109 0 is_stmt 0 discriminator 1
	movl	%gs:4, %eax
	movl	36(%eax), %eax
	testl	%eax, %eax
	je	.L8
	movl	8(%ebp), %eax
	movzwl	60(%eax), %eax
	movzwl	%ax, %eax
	andl	$3, %eax
	cmpl	$3, %eax
	jne	.L8
	.loc 2 110 0 is_stmt 1
	call	exit
.LVL30:
.L8:
	.loc 2 111 0
	addl	$60, %esp
	popl	%ebx
	.cfi_restore 3
	popl	%esi
	.cfi_restore 6
	popl	%edi
	.cfi_restore 7
	popl	%ebp
.LCFI14:
	.cfi_restore 5
	.cfi_def_cfa 4, 4
	ret
	.cfi_endproc
.LFE22:
	.size	trap, .-trap
.Letext0:
	.file 3 "types.h"
	.file 4 "mmu.h"
	.file 5 "proc.h"
	.file 6 "spinlock.h"
	.file 7 "defs.h"
	.section	.note.GNU-stack,"",@progbits
