	.file	"uart.c"
	.text
.Ltext0:
	.type	inb, @function
inb:
.LFB0:
	.file 1 "x86.h"
	.loc 1 5 0
	.cfi_startproc
.LVL0:
	pushl	%ebp
.LCFI0:
	.cfi_def_cfa_offset 8
	.cfi_offset 5, -8
	movl	%esp, %ebp
.LCFI1:
	.cfi_def_cfa_register 5
	subl	$20, %esp
	movl	8(%ebp), %eax
	movw	%ax, -20(%ebp)
	.loc 1 8 0
	movzwl	-20(%ebp), %eax
	movl	%eax, %edx
#APP
# 8 "x86.h" 1
	in %dx,%al
# 0 "" 2
#NO_APP
	movb	%al, -1(%ebp)
.LVL1:
	.loc 1 9 0
	movzbl	-1(%ebp), %eax
	.loc 1 10 0
	leave
.LCFI2:
	.cfi_restore 5
	.cfi_def_cfa 4, 4
	ret
	.cfi_endproc
.LFE0:
	.size	inb, .-inb
	.type	outb, @function
outb:
.LFB2:
	.loc 1 23 0
	.cfi_startproc
.LVL2:
	pushl	%ebp
.LCFI3:
	.cfi_def_cfa_offset 8
	.cfi_offset 5, -8
	movl	%esp, %ebp
.LCFI4:
	.cfi_def_cfa_register 5
	subl	$8, %esp
	movl	8(%ebp), %edx
	movl	12(%ebp), %eax
	movw	%dx, -4(%ebp)
	movb	%al, -8(%ebp)
	.loc 1 24 0
	movzbl	-8(%ebp), %eax
	movzwl	-4(%ebp), %edx
#APP
# 24 "x86.h" 1
	out %al,%dx
# 0 "" 2
	.loc 1 25 0
#NO_APP
	leave
.LCFI5:
	.cfi_restore 5
	.cfi_def_cfa 4, 4
	ret
	.cfi_endproc
.LFE2:
	.size	outb, .-outb
	.local	uart
	.comm	uart,4,4
	.section	.rodata
.LC0:
	.string	"xv6...\n"
	.text
	.globl	uartinit
	.type	uartinit, @function
uartinit:
.LFB18:
	.file 2 "uart.c"
	.loc 2 20 0
	.cfi_startproc
	pushl	%ebp
.LCFI6:
	.cfi_def_cfa_offset 8
	.cfi_offset 5, -8
	movl	%esp, %ebp
.LCFI7:
	.cfi_def_cfa_register 5
	subl	$40, %esp
	.loc 2 24 0
	movl	$0, 4(%esp)
	movl	$1018, (%esp)
	call	outb
.LVL3:
	.loc 2 27 0
	movl	$128, 4(%esp)
	movl	$1019, (%esp)
	call	outb
.LVL4:
	.loc 2 28 0
	movl	$12, 4(%esp)
	movl	$1016, (%esp)
	call	outb
.LVL5:
	.loc 2 29 0
	movl	$0, 4(%esp)
	movl	$1017, (%esp)
	call	outb
.LVL6:
	.loc 2 30 0
	movl	$3, 4(%esp)
	movl	$1019, (%esp)
	call	outb
.LVL7:
	.loc 2 31 0
	movl	$0, 4(%esp)
	movl	$1020, (%esp)
	call	outb
.LVL8:
	.loc 2 32 0
	movl	$1, 4(%esp)
	movl	$1017, (%esp)
	call	outb
.LVL9:
	.loc 2 35 0
	movl	$1021, (%esp)
	call	inb
.LVL10:
	cmpb	$-1, %al
	jne	.L5
	.loc 2 36 0
	jmp	.L4
.L5:
	.loc 2 37 0
	movl	$1, uart
	.loc 2 41 0
	movl	$1018, (%esp)
	call	inb
.LVL11:
	.loc 2 42 0
	movl	$1016, (%esp)
	call	inb
.LVL12:
	.loc 2 43 0
	movl	$4, (%esp)
	call	picenable
.LVL13:
	.loc 2 44 0
	movl	$0, 4(%esp)
	movl	$4, (%esp)
	call	ioapicenable
.LVL14:
	.loc 2 47 0
	movl	$.LC0, -12(%ebp)
.LVL15:
	jmp	.L7
.L8:
	.loc 2 48 0 discriminator 2
	movl	-12(%ebp), %eax
	movzbl	(%eax), %eax
	movsbl	%al, %eax
	movl	%eax, (%esp)
	call	uartputc
.LVL16:
	.loc 2 47 0 discriminator 2
	addl	$1, -12(%ebp)
.L7:
	.loc 2 47 0 is_stmt 0 discriminator 1
	movl	-12(%ebp), %eax
	movzbl	(%eax), %eax
	testb	%al, %al
	jne	.L8
.LVL17:
.L4:
	.loc 2 49 0 is_stmt 1
	leave
.LCFI8:
	.cfi_restore 5
	.cfi_def_cfa 4, 4
	ret
	.cfi_endproc
.LFE18:
	.size	uartinit, .-uartinit
	.globl	uartputc
	.type	uartputc, @function
uartputc:
.LFB19:
	.loc 2 53 0
	.cfi_startproc
.LVL18:
	pushl	%ebp
.LCFI9:
	.cfi_def_cfa_offset 8
	.cfi_offset 5, -8
	movl	%esp, %ebp
.LCFI10:
	.cfi_def_cfa_register 5
	subl	$40, %esp
	.loc 2 56 0
	movl	uart, %eax
	testl	%eax, %eax
	jne	.L10
	.loc 2 57 0
	jmp	.L9
.L10:
	.loc 2 58 0
	movl	$0, -12(%ebp)
.LVL19:
	jmp	.L12
.L14:
	.loc 2 59 0 discriminator 1
	movl	$10, (%esp)
	call	microdelay
.LVL20:
	.loc 2 58 0 discriminator 1
	addl	$1, -12(%ebp)
.L12:
	cmpl	$127, -12(%ebp)
	jg	.L13
	.loc 2 58 0 is_stmt 0 discriminator 2
	movl	$1021, (%esp)
	call	inb
.LVL21:
	movzbl	%al, %eax
	andl	$32, %eax
	testl	%eax, %eax
	je	.L14
.L13:
	.loc 2 60 0 is_stmt 1
	movl	8(%ebp), %eax
	movzbl	%al, %eax
	movl	%eax, 4(%esp)
	movl	$1016, (%esp)
	call	outb
.LVL22:
.L9:
	.loc 2 61 0
	leave
.LCFI11:
	.cfi_restore 5
	.cfi_def_cfa 4, 4
	ret
	.cfi_endproc
.LFE19:
	.size	uartputc, .-uartputc
	.type	uartgetc, @function
uartgetc:
.LFB20:
	.loc 2 65 0
	.cfi_startproc
	pushl	%ebp
.LCFI12:
	.cfi_def_cfa_offset 8
	.cfi_offset 5, -8
	movl	%esp, %ebp
.LCFI13:
	.cfi_def_cfa_register 5
	subl	$4, %esp
	.loc 2 66 0
	movl	uart, %eax
	testl	%eax, %eax
	jne	.L16
	.loc 2 67 0
	movl	$-1, %eax
	jmp	.L17
.L16:
	.loc 2 68 0
	movl	$1021, (%esp)
	call	inb
.LVL23:
	movzbl	%al, %eax
	andl	$1, %eax
	testl	%eax, %eax
	jne	.L18
	.loc 2 69 0
	movl	$-1, %eax
	jmp	.L17
.L18:
	.loc 2 70 0
	movl	$1016, (%esp)
	call	inb
.LVL24:
	movzbl	%al, %eax
.L17:
	.loc 2 71 0
	leave
.LCFI14:
	.cfi_restore 5
	.cfi_def_cfa 4, 4
	ret
	.cfi_endproc
.LFE20:
	.size	uartgetc, .-uartgetc
	.globl	uartintr
	.type	uartintr, @function
uartintr:
.LFB21:
	.loc 2 75 0
	.cfi_startproc
	pushl	%ebp
.LCFI15:
	.cfi_def_cfa_offset 8
	.cfi_offset 5, -8
	movl	%esp, %ebp
.LCFI16:
	.cfi_def_cfa_register 5
	subl	$24, %esp
	.loc 2 76 0
	movl	$uartgetc, (%esp)
	call	consoleintr
.LVL25:
	.loc 2 77 0
	leave
.LCFI17:
	.cfi_restore 5
	.cfi_def_cfa 4, 4
	ret
	.cfi_endproc
.LFE21:
	.size	uartintr, .-uartintr
.Letext0:
	.file 3 "types.h"
	.file 4 "defs.h"
	.section	.note.GNU-stack,"",@progbits
