	.file	"ulib.c"
	.text
.Ltext0:
	.type	stosb, @function
stosb:
.LFB5:
	.file 1 "x86.h"
	.loc 1 44 0
	.cfi_startproc
.LVL0:
	pushl	%ebp
.LCFI0:
	.cfi_def_cfa_offset 8
	.cfi_offset 5, -8
	movl	%esp, %ebp
.LCFI1:
	.cfi_def_cfa_register 5
	pushl	%edi
	pushl	%ebx
	.cfi_offset 7, -12
	.cfi_offset 3, -16
	.loc 1 45 0
	movl	8(%ebp), %ecx
	movl	16(%ebp), %edx
	movl	12(%ebp), %eax
	movl	%ecx, %ebx
	movl	%ebx, %edi
	movl	%edx, %ecx
#APP
# 45 "x86.h" 1
	cld; rep stosb
# 0 "" 2
.LVL1:
#NO_APP
	movl	%ecx, %edx
	movl	%edi, %ebx
	movl	%ebx, 8(%ebp)
	movl	%edx, 16(%ebp)
.LVL2:
	.loc 1 49 0
	popl	%ebx
	.cfi_restore 3
.LVL3:
	popl	%edi
	.cfi_restore 7
.LVL4:
	popl	%ebp
.LCFI2:
	.cfi_restore 5
	.cfi_def_cfa 4, 4
	ret
	.cfi_endproc
.LFE5:
	.size	stosb, .-stosb
	.globl	strcpy
	.type	strcpy, @function
strcpy:
.LFB18:
	.file 2 "ulib.c"
	.loc 2 9 0
	.cfi_startproc
.LVL5:
	pushl	%ebp
.LCFI3:
	.cfi_def_cfa_offset 8
	.cfi_offset 5, -8
	movl	%esp, %ebp
.LCFI4:
	.cfi_def_cfa_register 5
	subl	$16, %esp
	.loc 2 12 0
	movl	8(%ebp), %eax
	movl	%eax, -4(%ebp)
.LVL6:
	.loc 2 13 0
	nop
.LVL7:
.L3:
	.loc 2 13 0 is_stmt 0 discriminator 1
	movl	8(%ebp), %eax
	leal	1(%eax), %edx
	movl	%edx, 8(%ebp)
.LVL8:
	movl	12(%ebp), %edx
.LVL9:
	leal	1(%edx), %ecx
	movl	%ecx, 12(%ebp)
.LVL10:
	movzbl	(%edx), %edx
	movb	%dl, (%eax)
	movzbl	(%eax), %eax
	testb	%al, %al
	jne	.L3
	.loc 2 15 0 is_stmt 1
	movl	-4(%ebp), %eax
	.loc 2 16 0
	leave
.LCFI5:
	.cfi_restore 5
	.cfi_def_cfa 4, 4
	ret
	.cfi_endproc
.LFE18:
	.size	strcpy, .-strcpy
	.globl	strcmp
	.type	strcmp, @function
strcmp:
.LFB19:
	.loc 2 20 0
	.cfi_startproc
.LVL11:
	pushl	%ebp
.LCFI6:
	.cfi_def_cfa_offset 8
	.cfi_offset 5, -8
	movl	%esp, %ebp
.LCFI7:
	.cfi_def_cfa_register 5
	.loc 2 21 0
	jmp	.L6
.L8:
	.loc 2 22 0
	addl	$1, 8(%ebp)
.LVL12:
	addl	$1, 12(%ebp)
.LVL13:
.L6:
	.loc 2 21 0 discriminator 1
	movl	8(%ebp), %eax
	movzbl	(%eax), %eax
	testb	%al, %al
	je	.L7
	.loc 2 21 0 is_stmt 0 discriminator 2
	movl	8(%ebp), %eax
	movzbl	(%eax), %edx
	movl	12(%ebp), %eax
	movzbl	(%eax), %eax
	cmpb	%al, %dl
	je	.L8
.L7:
	.loc 2 23 0 is_stmt 1
	movl	8(%ebp), %eax
	movzbl	(%eax), %eax
	movzbl	%al, %edx
	movl	12(%ebp), %eax
	movzbl	(%eax), %eax
	movzbl	%al, %eax
	subl	%eax, %edx
	movl	%edx, %eax
	.loc 2 24 0
	popl	%ebp
.LCFI8:
	.cfi_restore 5
	.cfi_def_cfa 4, 4
	ret
	.cfi_endproc
.LFE19:
	.size	strcmp, .-strcmp
	.globl	strlen
	.type	strlen, @function
strlen:
.LFB20:
	.loc 2 28 0
	.cfi_startproc
.LVL14:
	pushl	%ebp
.LCFI9:
	.cfi_def_cfa_offset 8
	.cfi_offset 5, -8
	movl	%esp, %ebp
.LCFI10:
	.cfi_def_cfa_register 5
	subl	$16, %esp
	.loc 2 31 0
	movl	$0, -4(%ebp)
.LVL15:
	jmp	.L11
.LVL16:
.L12:
	.loc 2 31 0 is_stmt 0 discriminator 2
	addl	$1, -4(%ebp)
.LVL17:
.L11:
	.loc 2 31 0 discriminator 1
	movl	-4(%ebp), %edx
	movl	8(%ebp), %eax
	addl	%edx, %eax
	movzbl	(%eax), %eax
	testb	%al, %al
	jne	.L12
	.loc 2 33 0 is_stmt 1
	movl	-4(%ebp), %eax
	.loc 2 34 0
	leave
.LCFI11:
	.cfi_restore 5
	.cfi_def_cfa 4, 4
	ret
	.cfi_endproc
.LFE20:
	.size	strlen, .-strlen
	.globl	memset
	.type	memset, @function
memset:
.LFB21:
	.loc 2 38 0
	.cfi_startproc
.LVL18:
	pushl	%ebp
.LCFI12:
	.cfi_def_cfa_offset 8
	.cfi_offset 5, -8
	movl	%esp, %ebp
.LCFI13:
	.cfi_def_cfa_register 5
	subl	$12, %esp
	.loc 2 39 0
	movl	16(%ebp), %eax
	movl	%eax, 8(%esp)
	movl	12(%ebp), %eax
	movl	%eax, 4(%esp)
	movl	8(%ebp), %eax
	movl	%eax, (%esp)
	call	stosb
.LVL19:
	.loc 2 40 0
	movl	8(%ebp), %eax
	.loc 2 41 0
	leave
.LCFI14:
	.cfi_restore 5
	.cfi_def_cfa 4, 4
	ret
	.cfi_endproc
.LFE21:
	.size	memset, .-memset
	.globl	strchr
	.type	strchr, @function
strchr:
.LFB22:
	.loc 2 45 0
	.cfi_startproc
.LVL20:
	pushl	%ebp
.LCFI15:
	.cfi_def_cfa_offset 8
	.cfi_offset 5, -8
	movl	%esp, %ebp
.LCFI16:
	.cfi_def_cfa_register 5
	subl	$4, %esp
	movl	12(%ebp), %eax
	movb	%al, -4(%ebp)
	.loc 2 46 0
	jmp	.L17
.L20:
	.loc 2 47 0
	movl	8(%ebp), %eax
	movzbl	(%eax), %eax
	cmpb	-4(%ebp), %al
	jne	.L18
	.loc 2 48 0
	movl	8(%ebp), %eax
	jmp	.L19
.L18:
	.loc 2 46 0
	addl	$1, 8(%ebp)
.LVL21:
.L17:
	.loc 2 46 0 is_stmt 0 discriminator 1
	movl	8(%ebp), %eax
	movzbl	(%eax), %eax
	testb	%al, %al
	jne	.L20
	.loc 2 49 0 is_stmt 1
	movl	$0, %eax
.L19:
	.loc 2 50 0
	leave
.LCFI17:
	.cfi_restore 5
	.cfi_def_cfa 4, 4
	ret
	.cfi_endproc
.LFE22:
	.size	strchr, .-strchr
	.globl	gets
	.type	gets, @function
gets:
.LFB23:
	.loc 2 54 0
	.cfi_startproc
.LVL22:
	pushl	%ebp
.LCFI18:
	.cfi_def_cfa_offset 8
	.cfi_offset 5, -8
	movl	%esp, %ebp
.LCFI19:
	.cfi_def_cfa_register 5
	subl	$40, %esp
	.loc 2 58 0
	movl	$0, -12(%ebp)
.LVL23:
	jmp	.L22
.L25:
	.loc 2 59 0
	movl	$1, 8(%esp)
	leal	-17(%ebp), %eax
	movl	%eax, 4(%esp)
	movl	$0, (%esp)
	call	read
.LVL24:
	movl	%eax, -16(%ebp)
.LVL25:
	.loc 2 60 0
	cmpl	$0, -16(%ebp)
	jg	.L23
	.loc 2 61 0
	jmp	.L24
.L23:
	.loc 2 62 0
	movl	-12(%ebp), %eax
.LVL26:
	leal	1(%eax), %edx
	movl	%edx, -12(%ebp)
.LVL27:
	movl	%eax, %edx
.LVL28:
	movl	8(%ebp), %eax
	addl	%eax, %edx
	movzbl	-17(%ebp), %eax
	movb	%al, (%edx)
	.loc 2 63 0
	movzbl	-17(%ebp), %eax
	cmpb	$10, %al
	je	.L24
	.loc 2 63 0 is_stmt 0 discriminator 1
	movzbl	-17(%ebp), %eax
	cmpb	$13, %al
	je	.L24
.LVL29:
.L22:
	.loc 2 58 0 is_stmt 1 discriminator 1
	movl	-12(%ebp), %eax
	addl	$1, %eax
	cmpl	12(%ebp), %eax
	jl	.L25
.L24:
	.loc 2 66 0
	movl	-12(%ebp), %edx
	movl	8(%ebp), %eax
	addl	%edx, %eax
	movb	$0, (%eax)
	.loc 2 67 0
	movl	8(%ebp), %eax
	.loc 2 68 0
	leave
.LCFI20:
	.cfi_restore 5
	.cfi_def_cfa 4, 4
	ret
	.cfi_endproc
.LFE23:
	.size	gets, .-gets
	.globl	stat
	.type	stat, @function
stat:
.LFB24:
	.loc 2 72 0
	.cfi_startproc
.LVL30:
	pushl	%ebp
.LCFI21:
	.cfi_def_cfa_offset 8
	.cfi_offset 5, -8
	movl	%esp, %ebp
.LCFI22:
	.cfi_def_cfa_register 5
	subl	$40, %esp
	.loc 2 76 0
	movl	$0, 4(%esp)
	movl	8(%ebp), %eax
	movl	%eax, (%esp)
	call	open
.LVL31:
	movl	%eax, -12(%ebp)
.LVL32:
	.loc 2 77 0
	cmpl	$0, -12(%ebp)
	jns	.L28
	.loc 2 78 0
	movl	$-1, %eax
.LVL33:
	jmp	.L29
.LVL34:
.L28:
	.loc 2 79 0
	movl	12(%ebp), %eax
.LVL35:
	movl	%eax, 4(%esp)
	movl	-12(%ebp), %eax
	movl	%eax, (%esp)
	call	fstat
.LVL36:
	movl	%eax, -16(%ebp)
.LVL37:
	.loc 2 80 0
	movl	-12(%ebp), %eax
.LVL38:
	movl	%eax, (%esp)
	call	close
.LVL39:
	.loc 2 81 0
	movl	-16(%ebp), %eax
.LVL40:
.L29:
	.loc 2 82 0
	leave
.LCFI23:
	.cfi_restore 5
	.cfi_def_cfa 4, 4
	ret
	.cfi_endproc
.LFE24:
	.size	stat, .-stat
	.globl	atoi
	.type	atoi, @function
atoi:
.LFB25:
	.loc 2 86 0
	.cfi_startproc
.LVL41:
	pushl	%ebp
.LCFI24:
	.cfi_def_cfa_offset 8
	.cfi_offset 5, -8
	movl	%esp, %ebp
.LCFI25:
	.cfi_def_cfa_register 5
	subl	$16, %esp
	.loc 2 89 0
	movl	$0, -4(%ebp)
.LVL42:
	.loc 2 90 0
	jmp	.L31
.L33:
	.loc 2 91 0
	movl	-4(%ebp), %edx
	movl	%edx, %eax
	sall	$2, %eax
	addl	%edx, %eax
	addl	%eax, %eax
	movl	%eax, %ecx
	movl	8(%ebp), %eax
	leal	1(%eax), %edx
	movl	%edx, 8(%ebp)
.LVL43:
	movzbl	(%eax), %eax
	movsbl	%al, %eax
	addl	%ecx, %eax
	subl	$48, %eax
	movl	%eax, -4(%ebp)
.LVL44:
.L31:
	.loc 2 90 0 discriminator 1
	movl	8(%ebp), %eax
	movzbl	(%eax), %eax
	cmpb	$47, %al
	jle	.L32
	.loc 2 90 0 is_stmt 0 discriminator 2
	movl	8(%ebp), %eax
	movzbl	(%eax), %eax
	cmpb	$57, %al
	jle	.L33
.L32:
	.loc 2 92 0 is_stmt 1
	movl	-4(%ebp), %eax
	.loc 2 93 0
	leave
.LCFI26:
	.cfi_restore 5
	.cfi_def_cfa 4, 4
	ret
	.cfi_endproc
.LFE25:
	.size	atoi, .-atoi
	.globl	memmove
	.type	memmove, @function
memmove:
.LFB26:
	.loc 2 97 0
	.cfi_startproc
.LVL45:
	pushl	%ebp
.LCFI27:
	.cfi_def_cfa_offset 8
	.cfi_offset 5, -8
	movl	%esp, %ebp
.LCFI28:
	.cfi_def_cfa_register 5
	subl	$16, %esp
	.loc 2 100 0
	movl	8(%ebp), %eax
	movl	%eax, -4(%ebp)
.LVL46:
	.loc 2 101 0
	movl	12(%ebp), %eax
.LVL47:
	movl	%eax, -8(%ebp)
.LVL48:
	.loc 2 102 0
	jmp	.L36
.LVL49:
.L37:
	.loc 2 103 0
	movl	-4(%ebp), %eax
	leal	1(%eax), %edx
.LVL50:
	movl	%edx, -4(%ebp)
.LVL51:
	movl	-8(%ebp), %edx
.LVL52:
	leal	1(%edx), %ecx
	movl	%ecx, -8(%ebp)
.LVL53:
	movzbl	(%edx), %edx
	movb	%dl, (%eax)
.LVL54:
.L36:
	.loc 2 102 0 discriminator 1
	movl	16(%ebp), %eax
	leal	-1(%eax), %edx
	movl	%edx, 16(%ebp)
.LVL55:
	testl	%eax, %eax
	jg	.L37
	.loc 2 104 0
	movl	8(%ebp), %eax
	.loc 2 105 0
	leave
.LCFI29:
	.cfi_restore 5
	.cfi_def_cfa 4, 4
	ret
	.cfi_endproc
.LFE26:
	.size	memmove, .-memmove
.Letext0:
	.file 3 "types.h"
	.file 4 "stat.h"
	.file 5 "user.h"
	.section	.note.GNU-stack,"",@progbits
