	.file	"umalloc.c"
	.text
.Ltext0:
	.local	base
	.comm	base,8,4
	.local	freep
	.comm	freep,4,4
	.globl	free
	.type	free, @function
free:
.LFB0:
	.file 1 "umalloc.c"
	.loc 1 26 0
	.cfi_startproc
.LVL0:
	pushl	%ebp
.LCFI0:
	.cfi_def_cfa_offset 8
	.cfi_offset 5, -8
	movl	%esp, %ebp
.LCFI1:
	.cfi_def_cfa_register 5
	subl	$16, %esp
	.loc 1 29 0
	movl	8(%ebp), %eax
	subl	$8, %eax
	movl	%eax, -8(%ebp)
.LVL1:
	.loc 1 30 0
	movl	freep, %eax
.LVL2:
	movl	%eax, -4(%ebp)
.LVL3:
	jmp	.L2
.LVL4:
.L5:
	.loc 1 31 0
	movl	-4(%ebp), %eax
	movl	(%eax), %eax
	cmpl	-4(%ebp), %eax
	ja	.L3
	.loc 1 31 0 is_stmt 0 discriminator 1
	movl	-8(%ebp), %eax
	cmpl	-4(%ebp), %eax
	ja	.L4
	movl	-4(%ebp), %eax
	movl	(%eax), %eax
	cmpl	-8(%ebp), %eax
	ja	.L4
.L3:
	.loc 1 30 0 is_stmt 1
	movl	-4(%ebp), %eax
	movl	(%eax), %eax
	movl	%eax, -4(%ebp)
.LVL5:
.L2:
	.loc 1 30 0 is_stmt 0 discriminator 1
	movl	-8(%ebp), %eax
	cmpl	-4(%ebp), %eax
	jbe	.L5
	.loc 1 30 0 discriminator 2
	movl	-4(%ebp), %eax
	movl	(%eax), %eax
	cmpl	-8(%ebp), %eax
	jbe	.L5
.L4:
	.loc 1 33 0 is_stmt 1
	movl	-8(%ebp), %eax
	movl	4(%eax), %eax
	leal	0(,%eax,8), %edx
	movl	-8(%ebp), %eax
	addl	%eax, %edx
	movl	-4(%ebp), %eax
	movl	(%eax), %eax
	cmpl	%eax, %edx
	jne	.L6
	.loc 1 34 0
	movl	-8(%ebp), %eax
	movl	4(%eax), %edx
	movl	-4(%ebp), %eax
	movl	(%eax), %eax
	movl	4(%eax), %eax
	addl	%eax, %edx
	movl	-8(%ebp), %eax
	movl	%edx, 4(%eax)
	.loc 1 35 0
	movl	-4(%ebp), %eax
	movl	(%eax), %eax
	movl	(%eax), %edx
	movl	-8(%ebp), %eax
	movl	%edx, (%eax)
	jmp	.L7
.L6:
	.loc 1 37 0
	movl	-4(%ebp), %eax
	movl	(%eax), %edx
	movl	-8(%ebp), %eax
	movl	%edx, (%eax)
.L7:
	.loc 1 38 0
	movl	-4(%ebp), %eax
	movl	4(%eax), %eax
	leal	0(,%eax,8), %edx
	movl	-4(%ebp), %eax
	addl	%edx, %eax
	cmpl	-8(%ebp), %eax
	jne	.L8
	.loc 1 39 0
	movl	-4(%ebp), %eax
	movl	4(%eax), %edx
	movl	-8(%ebp), %eax
	movl	4(%eax), %eax
	addl	%eax, %edx
	movl	-4(%ebp), %eax
	movl	%edx, 4(%eax)
	.loc 1 40 0
	movl	-8(%ebp), %eax
	movl	(%eax), %edx
	movl	-4(%ebp), %eax
	movl	%edx, (%eax)
	jmp	.L9
.L8:
	.loc 1 42 0
	movl	-4(%ebp), %eax
	movl	-8(%ebp), %edx
	movl	%edx, (%eax)
.L9:
	.loc 1 43 0
	movl	-4(%ebp), %eax
	movl	%eax, freep
	.loc 1 44 0
	leave
.LCFI2:
	.cfi_restore 5
	.cfi_def_cfa 4, 4
	ret
	.cfi_endproc
.LFE0:
	.size	free, .-free
	.type	morecore, @function
morecore:
.LFB1:
	.loc 1 48 0
	.cfi_startproc
.LVL6:
	pushl	%ebp
.LCFI3:
	.cfi_def_cfa_offset 8
	.cfi_offset 5, -8
	movl	%esp, %ebp
.LCFI4:
	.cfi_def_cfa_register 5
	subl	$40, %esp
	.loc 1 52 0
	cmpl	$4095, 8(%ebp)
	ja	.L11
	.loc 1 53 0
	movl	$4096, 8(%ebp)
.LVL7:
.L11:
	.loc 1 54 0
	movl	8(%ebp), %eax
	sall	$3, %eax
	movl	%eax, (%esp)
	call	sbrk
.LVL8:
	movl	%eax, -12(%ebp)
.LVL9:
	.loc 1 55 0
	cmpl	$-1, -12(%ebp)
	jne	.L12
	.loc 1 56 0
	movl	$0, %eax
.LVL10:
	jmp	.L13
.LVL11:
.L12:
	.loc 1 57 0
	movl	-12(%ebp), %eax
.LVL12:
	movl	%eax, -16(%ebp)
.LVL13:
	.loc 1 58 0
	movl	-16(%ebp), %eax
	movl	8(%ebp), %edx
	movl	%edx, 4(%eax)
	.loc 1 59 0
	movl	-16(%ebp), %eax
	addl	$8, %eax
.LVL14:
	movl	%eax, (%esp)
	call	free
.LVL15:
	.loc 1 60 0
	movl	freep, %eax
.LVL16:
.L13:
	.loc 1 61 0
	leave
.LCFI5:
	.cfi_restore 5
	.cfi_def_cfa 4, 4
	ret
	.cfi_endproc
.LFE1:
	.size	morecore, .-morecore
	.globl	malloc
	.type	malloc, @function
malloc:
.LFB2:
	.loc 1 65 0
	.cfi_startproc
.LVL17:
	pushl	%ebp
.LCFI6:
	.cfi_def_cfa_offset 8
	.cfi_offset 5, -8
	movl	%esp, %ebp
.LCFI7:
	.cfi_def_cfa_register 5
	subl	$40, %esp
	.loc 1 69 0
	movl	8(%ebp), %eax
	addl	$7, %eax
	shrl	$3, %eax
	addl	$1, %eax
	movl	%eax, -20(%ebp)
.LVL18:
	.loc 1 70 0
	movl	freep, %eax
.LVL19:
	movl	%eax, -16(%ebp)
.LVL20:
	cmpl	$0, -16(%ebp)
	jne	.L15
	.loc 1 71 0
	movl	$base, -16(%ebp)
.LVL21:
	movl	-16(%ebp), %eax
	movl	%eax, freep
	movl	freep, %eax
	movl	%eax, base
	.loc 1 72 0
	movl	$0, base+4
.LVL22:
.L15:
	.loc 1 74 0
	movl	-16(%ebp), %eax
	movl	(%eax), %eax
	movl	%eax, -12(%ebp)
.LVL23:
.L21:
	.loc 1 75 0
	movl	-12(%ebp), %eax
	movl	4(%eax), %eax
	cmpl	-20(%ebp), %eax
	jb	.L16
	.loc 1 76 0
	movl	-12(%ebp), %eax
	movl	4(%eax), %eax
	cmpl	-20(%ebp), %eax
	jne	.L17
	.loc 1 77 0
	movl	-12(%ebp), %eax
	movl	(%eax), %edx
	movl	-16(%ebp), %eax
	movl	%edx, (%eax)
	jmp	.L18
.L17:
	.loc 1 79 0
	movl	-12(%ebp), %eax
	movl	4(%eax), %eax
	subl	-20(%ebp), %eax
	movl	%eax, %edx
	movl	-12(%ebp), %eax
	movl	%edx, 4(%eax)
	.loc 1 80 0
	movl	-12(%ebp), %eax
	movl	4(%eax), %eax
	sall	$3, %eax
	addl	%eax, -12(%ebp)
.LVL24:
	.loc 1 81 0
	movl	-12(%ebp), %eax
	movl	-20(%ebp), %edx
	movl	%edx, 4(%eax)
.L18:
	.loc 1 83 0
	movl	-16(%ebp), %eax
	movl	%eax, freep
	.loc 1 84 0
	movl	-12(%ebp), %eax
	addl	$8, %eax
	jmp	.L19
.L16:
	.loc 1 86 0
	movl	freep, %eax
	cmpl	%eax, -12(%ebp)
	jne	.L20
	.loc 1 87 0
	movl	-20(%ebp), %eax
	movl	%eax, (%esp)
	call	morecore
.LVL25:
	movl	%eax, -12(%ebp)
.LVL26:
	cmpl	$0, -12(%ebp)
	jne	.L20
	.loc 1 88 0
	movl	$0, %eax
.LVL27:
	jmp	.L19
.L20:
	.loc 1 74 0
	movl	-12(%ebp), %eax
	movl	%eax, -16(%ebp)
.LVL28:
	movl	-12(%ebp), %eax
	movl	(%eax), %eax
	movl	%eax, -12(%ebp)
.LVL29:
	.loc 1 89 0
	jmp	.L21
.LVL30:
.L19:
	.loc 1 90 0
	leave
.LCFI8:
	.cfi_restore 5
	.cfi_def_cfa 4, 4
	ret
	.cfi_endproc
.LFE2:
	.size	malloc, .-malloc
.Letext0:
	.file 2 "types.h"
	.file 3 "user.h"
	.section	.note.GNU-stack,"",@progbits
