	.file	"usertests.c"
	.text
.Ltext0:
	.comm	buf,8192,32
	.comm	name,3,1
	.globl	echoargv
	.section	.rodata
.LC0:
	.string	"echo"
.LC1:
	.string	"ALL"
.LC2:
	.string	"TESTS"
.LC3:
	.string	"PASSED"
	.data
	.align 4
	.type	echoargv, @object
	.size	echoargv, 20
echoargv:
	.long	.LC0
	.long	.LC1
	.long	.LC2
	.long	.LC3
	.long	0
	.globl	stdout
	.align 4
	.type	stdout, @object
	.size	stdout, 4
stdout:
	.long	1
	.section	.rodata
.LC4:
	.string	"iput test\n"
.LC5:
	.string	"iputdir"
.LC6:
	.string	"mkdir failed\n"
.LC7:
	.string	"chdir iputdir failed\n"
.LC8:
	.string	"../iputdir"
.LC9:
	.string	"unlink ../iputdir failed\n"
.LC10:
	.string	"/"
.LC11:
	.string	"chdir / failed\n"
.LC12:
	.string	"iput test ok\n"
	.text
	.globl	iputtest
	.type	iputtest, @function
iputtest:
.LFB2:
	.file 1 "usertests.c"
	.loc 1 19 0
	.cfi_startproc
	pushl	%ebp
.LCFI0:
	.cfi_def_cfa_offset 8
	.cfi_offset 5, -8
	movl	%esp, %ebp
.LCFI1:
	.cfi_def_cfa_register 5
	subl	$24, %esp
	.loc 1 20 0
	movl	stdout, %eax
	movl	$.LC4, 4(%esp)
	movl	%eax, (%esp)
	call	printf
.LVL0:
	.loc 1 22 0
	movl	$.LC5, (%esp)
	call	mkdir
.LVL1:
	testl	%eax, %eax
	jns	.L2
	.loc 1 23 0
	movl	stdout, %eax
	movl	$.LC6, 4(%esp)
	movl	%eax, (%esp)
	call	printf
.LVL2:
	.loc 1 24 0
	call	exit
.LVL3:
.L2:
	.loc 1 26 0
	movl	$.LC5, (%esp)
	call	chdir
.LVL4:
	testl	%eax, %eax
	jns	.L3
	.loc 1 27 0
	movl	stdout, %eax
	movl	$.LC7, 4(%esp)
	movl	%eax, (%esp)
	call	printf
.LVL5:
	.loc 1 28 0
	call	exit
.LVL6:
.L3:
	.loc 1 30 0
	movl	$.LC8, (%esp)
	call	unlink
.LVL7:
	testl	%eax, %eax
	jns	.L4
	.loc 1 31 0
	movl	stdout, %eax
	movl	$.LC9, 4(%esp)
	movl	%eax, (%esp)
	call	printf
.LVL8:
	.loc 1 32 0
	call	exit
.LVL9:
.L4:
	.loc 1 34 0
	movl	$.LC10, (%esp)
	call	chdir
.LVL10:
	testl	%eax, %eax
	jns	.L5
	.loc 1 35 0
	movl	stdout, %eax
	movl	$.LC11, 4(%esp)
	movl	%eax, (%esp)
	call	printf
.LVL11:
	.loc 1 36 0
	call	exit
.LVL12:
.L5:
	.loc 1 38 0
	movl	stdout, %eax
	movl	$.LC12, 4(%esp)
	movl	%eax, (%esp)
	call	printf
.LVL13:
	.loc 1 39 0
	leave
.LCFI2:
	.cfi_restore 5
	.cfi_def_cfa 4, 4
	ret
	.cfi_endproc
.LFE2:
	.size	iputtest, .-iputtest
	.section	.rodata
.LC13:
	.string	"exitiput test\n"
.LC14:
	.string	"fork failed\n"
.LC15:
	.string	"child chdir failed\n"
.LC16:
	.string	"exitiput test ok\n"
	.text
	.globl	exitiputtest
	.type	exitiputtest, @function
exitiputtest:
.LFB3:
	.loc 1 44 0
	.cfi_startproc
	pushl	%ebp
.LCFI3:
	.cfi_def_cfa_offset 8
	.cfi_offset 5, -8
	movl	%esp, %ebp
.LCFI4:
	.cfi_def_cfa_register 5
	subl	$40, %esp
	.loc 1 47 0
	movl	stdout, %eax
	movl	$.LC13, 4(%esp)
	movl	%eax, (%esp)
	call	printf
.LVL14:
	.loc 1 49 0
	call	fork
.LVL15:
	movl	%eax, -12(%ebp)
.LVL16:
	.loc 1 50 0
	cmpl	$0, -12(%ebp)
	jns	.L7
	.loc 1 51 0
	movl	stdout, %eax
.LVL17:
	movl	$.LC14, 4(%esp)
	movl	%eax, (%esp)
	call	printf
.LVL18:
	.loc 1 52 0
	call	exit
.LVL19:
.L7:
	.loc 1 54 0
	cmpl	$0, -12(%ebp)
	jne	.L8
	.loc 1 55 0
	movl	$.LC5, (%esp)
	call	mkdir
.LVL20:
	testl	%eax, %eax
	jns	.L9
	.loc 1 56 0
	movl	stdout, %eax
	movl	$.LC6, 4(%esp)
	movl	%eax, (%esp)
	call	printf
.LVL21:
	.loc 1 57 0
	call	exit
.LVL22:
.L9:
	.loc 1 59 0
	movl	$.LC5, (%esp)
	call	chdir
.LVL23:
	testl	%eax, %eax
	jns	.L10
	.loc 1 60 0
	movl	stdout, %eax
	movl	$.LC15, 4(%esp)
	movl	%eax, (%esp)
	call	printf
.LVL24:
	.loc 1 61 0
	call	exit
.LVL25:
.L10:
	.loc 1 63 0
	movl	$.LC8, (%esp)
	call	unlink
.LVL26:
	testl	%eax, %eax
	jns	.L11
	.loc 1 64 0
	movl	stdout, %eax
	movl	$.LC9, 4(%esp)
	movl	%eax, (%esp)
	call	printf
.LVL27:
	.loc 1 65 0
	call	exit
.LVL28:
.L11:
	.loc 1 67 0
	call	exit
.LVL29:
.L8:
	.loc 1 69 0
	call	wait
.LVL30:
	.loc 1 70 0
	movl	stdout, %eax
	movl	$.LC16, 4(%esp)
	movl	%eax, (%esp)
	call	printf
.LVL31:
	.loc 1 71 0
	leave
.LCFI5:
	.cfi_restore 5
	.cfi_def_cfa 4, 4
.LVL32:
	ret
	.cfi_endproc
.LFE3:
	.size	exitiputtest, .-exitiputtest
	.section	.rodata
.LC17:
	.string	"openiput test\n"
.LC18:
	.string	"oidir"
.LC19:
	.string	"mkdir oidir failed\n"
	.align 4
.LC20:
	.string	"open directory for write succeeded\n"
.LC21:
	.string	"unlink failed\n"
.LC22:
	.string	"openiput test ok\n"
	.text
	.globl	openiputtest
	.type	openiputtest, @function
openiputtest:
.LFB4:
	.loc 1 86 0
	.cfi_startproc
	pushl	%ebp
.LCFI6:
	.cfi_def_cfa_offset 8
	.cfi_offset 5, -8
	movl	%esp, %ebp
.LCFI7:
	.cfi_def_cfa_register 5
	subl	$40, %esp
	.loc 1 89 0
	movl	stdout, %eax
	movl	$.LC17, 4(%esp)
	movl	%eax, (%esp)
	call	printf
.LVL33:
	.loc 1 90 0
	movl	$.LC18, (%esp)
	call	mkdir
.LVL34:
	testl	%eax, %eax
	jns	.L13
	.loc 1 91 0
	movl	stdout, %eax
	movl	$.LC19, 4(%esp)
	movl	%eax, (%esp)
	call	printf
.LVL35:
	.loc 1 92 0
	call	exit
.LVL36:
.L13:
	.loc 1 94 0
	call	fork
.LVL37:
	movl	%eax, -12(%ebp)
.LVL38:
	.loc 1 95 0
	cmpl	$0, -12(%ebp)
	jns	.L14
	.loc 1 96 0
	movl	stdout, %eax
.LVL39:
	movl	$.LC14, 4(%esp)
	movl	%eax, (%esp)
	call	printf
.LVL40:
	.loc 1 97 0
	call	exit
.LVL41:
.L14:
	.loc 1 99 0
	cmpl	$0, -12(%ebp)
	jne	.L15
.LBB2:
	.loc 1 100 0
	movl	$2, 4(%esp)
	movl	$.LC18, (%esp)
	call	open
.LVL42:
	movl	%eax, -16(%ebp)
.LVL43:
	.loc 1 101 0
	cmpl	$0, -16(%ebp)
	js	.L16
	.loc 1 102 0
	movl	stdout, %eax
.LVL44:
	movl	$.LC20, 4(%esp)
	movl	%eax, (%esp)
	call	printf
.LVL45:
	.loc 1 103 0
	call	exit
.LVL46:
.L16:
	.loc 1 105 0
	call	exit
.LVL47:
.L15:
.LBE2:
	.loc 1 107 0
	movl	$1, (%esp)
	call	sleep
.LVL48:
	.loc 1 108 0
	movl	$.LC18, (%esp)
	call	unlink
.LVL49:
	testl	%eax, %eax
	je	.L17
	.loc 1 109 0
	movl	stdout, %eax
	movl	$.LC21, 4(%esp)
	movl	%eax, (%esp)
	call	printf
.LVL50:
	.loc 1 110 0
	call	exit
.LVL51:
.L17:
	.loc 1 112 0
	call	wait
.LVL52:
	.loc 1 113 0
	movl	stdout, %eax
	movl	$.LC22, 4(%esp)
	movl	%eax, (%esp)
	call	printf
.LVL53:
	.loc 1 114 0
	leave
.LCFI8:
	.cfi_restore 5
	.cfi_def_cfa 4, 4
.LVL54:
	ret
	.cfi_endproc
.LFE4:
	.size	openiputtest, .-openiputtest
	.section	.rodata
.LC23:
	.string	"open test\n"
.LC24:
	.string	"open echo failed!\n"
.LC25:
	.string	"doesnotexist"
.LC26:
	.string	"open doesnotexist succeeded!\n"
.LC27:
	.string	"open test ok\n"
	.text
	.globl	opentest
	.type	opentest, @function
opentest:
.LFB5:
	.loc 1 120 0
	.cfi_startproc
	pushl	%ebp
.LCFI9:
	.cfi_def_cfa_offset 8
	.cfi_offset 5, -8
	movl	%esp, %ebp
.LCFI10:
	.cfi_def_cfa_register 5
	subl	$40, %esp
	.loc 1 123 0
	movl	stdout, %eax
	movl	$.LC23, 4(%esp)
	movl	%eax, (%esp)
	call	printf
.LVL55:
	.loc 1 124 0
	movl	$0, 4(%esp)
	movl	$.LC0, (%esp)
	call	open
.LVL56:
	movl	%eax, -12(%ebp)
.LVL57:
	.loc 1 125 0
	cmpl	$0, -12(%ebp)
	jns	.L19
	.loc 1 126 0
	movl	stdout, %eax
.LVL58:
	movl	$.LC24, 4(%esp)
	movl	%eax, (%esp)
	call	printf
.LVL59:
	.loc 1 127 0
	call	exit
.LVL60:
.L19:
	.loc 1 129 0
	movl	-12(%ebp), %eax
.LVL61:
	movl	%eax, (%esp)
	call	close
.LVL62:
	.loc 1 130 0
	movl	$0, 4(%esp)
	movl	$.LC25, (%esp)
	call	open
.LVL63:
	movl	%eax, -12(%ebp)
.LVL64:
	.loc 1 131 0
	cmpl	$0, -12(%ebp)
	js	.L20
	.loc 1 132 0
	movl	stdout, %eax
.LVL65:
	movl	$.LC26, 4(%esp)
	movl	%eax, (%esp)
	call	printf
.LVL66:
	.loc 1 133 0
	call	exit
.LVL67:
.L20:
	.loc 1 135 0
	movl	stdout, %eax
.LVL68:
	movl	$.LC27, 4(%esp)
	movl	%eax, (%esp)
	call	printf
.LVL69:
	.loc 1 136 0
	leave
.LCFI11:
	.cfi_restore 5
	.cfi_def_cfa 4, 4
.LVL70:
	ret
	.cfi_endproc
.LFE5:
	.size	opentest, .-opentest
	.section	.rodata
.LC28:
	.string	"small file test\n"
.LC29:
	.string	"small"
.LC30:
	.string	"creat small succeeded; ok\n"
.LC31:
	.string	"error: creat small failed!\n"
.LC32:
	.string	"aaaaaaaaaa"
	.align 4
.LC33:
	.string	"error: write aa %d new file failed\n"
.LC34:
	.string	"bbbbbbbbbb"
	.align 4
.LC35:
	.string	"error: write bb %d new file failed\n"
.LC36:
	.string	"writes ok\n"
.LC37:
	.string	"open small succeeded ok\n"
.LC38:
	.string	"error: open small failed!\n"
.LC39:
	.string	"read succeeded ok\n"
.LC40:
	.string	"read failed\n"
.LC41:
	.string	"unlink small failed\n"
.LC42:
	.string	"small file test ok\n"
	.text
	.globl	writetest
	.type	writetest, @function
writetest:
.LFB6:
	.loc 1 140 0
	.cfi_startproc
	pushl	%ebp
.LCFI12:
	.cfi_def_cfa_offset 8
	.cfi_offset 5, -8
	movl	%esp, %ebp
.LCFI13:
	.cfi_def_cfa_register 5
	subl	$40, %esp
	.loc 1 144 0
	movl	stdout, %eax
	movl	$.LC28, 4(%esp)
	movl	%eax, (%esp)
	call	printf
.LVL71:
	.loc 1 145 0
	movl	$514, 4(%esp)
	movl	$.LC29, (%esp)
	call	open
.LVL72:
	movl	%eax, -16(%ebp)
.LVL73:
	.loc 1 146 0
	cmpl	$0, -16(%ebp)
	js	.L22
	.loc 1 147 0
	movl	stdout, %eax
.LVL74:
	movl	$.LC30, 4(%esp)
	movl	%eax, (%esp)
	call	printf
.LVL75:
	.loc 1 152 0
	movl	$0, -12(%ebp)
.LVL76:
	jmp	.L24
.LVL77:
.L22:
	.loc 1 149 0
	movl	stdout, %eax
.LVL78:
	movl	$.LC31, 4(%esp)
	movl	%eax, (%esp)
	call	printf
.LVL79:
	.loc 1 150 0
	call	exit
.LVL80:
.L27:
	.loc 1 153 0
	movl	$10, 8(%esp)
	movl	$.LC32, 4(%esp)
	movl	-16(%ebp), %eax
	movl	%eax, (%esp)
	call	write
.LVL81:
	cmpl	$10, %eax
	je	.L25
	.loc 1 154 0
	movl	stdout, %eax
	movl	-12(%ebp), %edx
	movl	%edx, 8(%esp)
	movl	$.LC33, 4(%esp)
	movl	%eax, (%esp)
	call	printf
.LVL82:
	.loc 1 155 0
	call	exit
.LVL83:
.L25:
	.loc 1 157 0
	movl	$10, 8(%esp)
	movl	$.LC34, 4(%esp)
	movl	-16(%ebp), %eax
	movl	%eax, (%esp)
	call	write
.LVL84:
	cmpl	$10, %eax
	je	.L26
	.loc 1 158 0
	movl	stdout, %eax
	movl	-12(%ebp), %edx
	movl	%edx, 8(%esp)
	movl	$.LC35, 4(%esp)
	movl	%eax, (%esp)
	call	printf
.LVL85:
	.loc 1 159 0
	call	exit
.LVL86:
.L26:
	.loc 1 152 0
	addl	$1, -12(%ebp)
.L24:
	.loc 1 152 0 is_stmt 0 discriminator 1
	cmpl	$99, -12(%ebp)
	jle	.L27
	.loc 1 162 0 is_stmt 1
	movl	stdout, %eax
	movl	$.LC36, 4(%esp)
	movl	%eax, (%esp)
	call	printf
.LVL87:
	.loc 1 163 0
	movl	-16(%ebp), %eax
	movl	%eax, (%esp)
	call	close
.LVL88:
	.loc 1 164 0
	movl	$0, 4(%esp)
	movl	$.LC29, (%esp)
	call	open
.LVL89:
	movl	%eax, -16(%ebp)
.LVL90:
	.loc 1 165 0
	cmpl	$0, -16(%ebp)
	js	.L28
	.loc 1 166 0
	movl	stdout, %eax
.LVL91:
	movl	$.LC37, 4(%esp)
	movl	%eax, (%esp)
	call	printf
.LVL92:
	.loc 1 171 0
	movl	$2000, 8(%esp)
	movl	$buf, 4(%esp)
	movl	-16(%ebp), %eax
	movl	%eax, (%esp)
	call	read
.LVL93:
	movl	%eax, -12(%ebp)
.LVL94:
	.loc 1 172 0
	cmpl	$2000, -12(%ebp)
	jne	.L30
	jmp	.L33
.LVL95:
.L28:
	.loc 1 168 0
	movl	stdout, %eax
.LVL96:
	movl	$.LC38, 4(%esp)
	movl	%eax, (%esp)
	call	printf
.LVL97:
	.loc 1 169 0
	call	exit
.LVL98:
.L33:
	.loc 1 173 0
	movl	stdout, %eax
.LVL99:
	movl	$.LC39, 4(%esp)
	movl	%eax, (%esp)
	call	printf
.LVL100:
	.loc 1 178 0
	movl	-16(%ebp), %eax
	movl	%eax, (%esp)
	call	close
.LVL101:
	.loc 1 180 0
	movl	$.LC29, (%esp)
	call	unlink
.LVL102:
	testl	%eax, %eax
	jns	.L32
	jmp	.L34
.LVL103:
.L30:
	.loc 1 175 0
	movl	stdout, %eax
.LVL104:
	movl	$.LC40, 4(%esp)
	movl	%eax, (%esp)
	call	printf
.LVL105:
	.loc 1 176 0
	call	exit
.LVL106:
.L34:
	.loc 1 181 0
	movl	stdout, %eax
	movl	$.LC41, 4(%esp)
	movl	%eax, (%esp)
	call	printf
.LVL107:
	.loc 1 182 0
	call	exit
.LVL108:
.L32:
	.loc 1 184 0
	movl	stdout, %eax
	movl	$.LC42, 4(%esp)
	movl	%eax, (%esp)
	call	printf
.LVL109:
	.loc 1 185 0
	leave
.LCFI14:
	.cfi_restore 5
	.cfi_def_cfa 4, 4
.LVL110:
	ret
	.cfi_endproc
.LFE6:
	.size	writetest, .-writetest
	.section	.rodata
.LC43:
	.string	"big files test\n"
.LC44:
	.string	"big"
.LC45:
	.string	"error: creat big failed!\n"
.LC46:
	.string	"error: write big file failed\n"
.LC47:
	.string	"error: open big failed!\n"
.LC48:
	.string	"read only %d blocks from big"
.LC49:
	.string	"read failed %d\n"
	.align 4
.LC50:
	.string	"read content of block %d is %d\n"
.LC51:
	.string	"unlink big failed\n"
.LC52:
	.string	"big files ok\n"
	.text
	.globl	writetest1
	.type	writetest1, @function
writetest1:
.LFB7:
	.loc 1 189 0
	.cfi_startproc
	pushl	%ebp
.LCFI15:
	.cfi_def_cfa_offset 8
	.cfi_offset 5, -8
	movl	%esp, %ebp
.LCFI16:
	.cfi_def_cfa_register 5
	subl	$40, %esp
	.loc 1 192 0
	movl	stdout, %eax
	movl	$.LC43, 4(%esp)
	movl	%eax, (%esp)
	call	printf
.LVL111:
	.loc 1 194 0
	movl	$514, 4(%esp)
	movl	$.LC44, (%esp)
	call	open
.LVL112:
	movl	%eax, -20(%ebp)
.LVL113:
	.loc 1 195 0
	cmpl	$0, -20(%ebp)
	jns	.L36
	.loc 1 196 0
	movl	stdout, %eax
.LVL114:
	movl	$.LC45, 4(%esp)
	movl	%eax, (%esp)
	call	printf
.LVL115:
	.loc 1 197 0
	call	exit
.LVL116:
.L36:
	.loc 1 200 0
	movl	$0, -12(%ebp)
.LVL117:
	jmp	.L37
.LVL118:
.L39:
	.loc 1 201 0
	movl	$buf, %eax
.LVL119:
	movl	-12(%ebp), %edx
	movl	%edx, (%eax)
	.loc 1 202 0
	movl	$512, 8(%esp)
	movl	$buf, 4(%esp)
	movl	-20(%ebp), %eax
	movl	%eax, (%esp)
	call	write
.LVL120:
	cmpl	$512, %eax
	je	.L38
	.loc 1 203 0
	movl	stdout, %eax
	movl	-12(%ebp), %edx
	movl	%edx, 8(%esp)
	movl	$.LC46, 4(%esp)
	movl	%eax, (%esp)
	call	printf
.LVL121:
	.loc 1 204 0
	call	exit
.LVL122:
.L38:
	.loc 1 200 0
	addl	$1, -12(%ebp)
.L37:
	.loc 1 200 0 is_stmt 0 discriminator 1
	movl	-12(%ebp), %eax
	cmpl	$139, %eax
	jbe	.L39
	.loc 1 208 0 is_stmt 1
	movl	-20(%ebp), %eax
	movl	%eax, (%esp)
	call	close
.LVL123:
	.loc 1 210 0
	movl	$0, 4(%esp)
	movl	$.LC44, (%esp)
	call	open
.LVL124:
	movl	%eax, -20(%ebp)
.LVL125:
	.loc 1 211 0
	cmpl	$0, -20(%ebp)
	jns	.L40
	.loc 1 212 0
	movl	stdout, %eax
.LVL126:
	movl	$.LC47, 4(%esp)
	movl	%eax, (%esp)
	call	printf
.LVL127:
	.loc 1 213 0
	call	exit
.LVL128:
.L40:
	.loc 1 216 0
	movl	$0, -16(%ebp)
.LVL129:
.L46:
	.loc 1 218 0
	movl	$512, 8(%esp)
	movl	$buf, 4(%esp)
	movl	-20(%ebp), %eax
	movl	%eax, (%esp)
	call	read
.LVL130:
	movl	%eax, -12(%ebp)
.LVL131:
	.loc 1 219 0
	cmpl	$0, -12(%ebp)
	jne	.L41
	.loc 1 220 0
	cmpl	$139, -16(%ebp)
	jne	.L42
	.loc 1 221 0
	movl	stdout, %eax
.LVL132:
	movl	-16(%ebp), %edx
	movl	%edx, 8(%esp)
	movl	$.LC48, 4(%esp)
	movl	%eax, (%esp)
	call	printf
.LVL133:
	.loc 1 222 0
	call	exit
.LVL134:
.L42:
	.loc 1 224 0
	nop
	.loc 1 236 0
	movl	-20(%ebp), %eax
.LVL135:
	movl	%eax, (%esp)
	call	close
.LVL136:
	.loc 1 237 0
	movl	$.LC44, (%esp)
	call	unlink
.LVL137:
	testl	%eax, %eax
	jns	.L47
	jmp	.L48
.LVL138:
.L41:
	.loc 1 225 0
	cmpl	$512, -12(%ebp)
	je	.L44
	.loc 1 226 0
	movl	stdout, %eax
.LVL139:
	movl	-12(%ebp), %edx
	movl	%edx, 8(%esp)
	movl	$.LC49, 4(%esp)
	movl	%eax, (%esp)
	call	printf
.LVL140:
	.loc 1 227 0
	call	exit
.LVL141:
.L44:
	.loc 1 229 0
	movl	$buf, %eax
.LVL142:
	movl	(%eax), %eax
	cmpl	-16(%ebp), %eax
	je	.L45
	.loc 1 231 0
	movl	$buf, %eax
	.loc 1 230 0
	movl	(%eax), %edx
	movl	stdout, %eax
	movl	%edx, 12(%esp)
	movl	-16(%ebp), %edx
	movl	%edx, 8(%esp)
	movl	$.LC50, 4(%esp)
	movl	%eax, (%esp)
	call	printf
.LVL143:
	.loc 1 232 0
	call	exit
.LVL144:
.L45:
	.loc 1 234 0
	addl	$1, -16(%ebp)
	.loc 1 235 0
	jmp	.L46
.L48:
	.loc 1 238 0
	movl	stdout, %eax
	movl	$.LC51, 4(%esp)
	movl	%eax, (%esp)
	call	printf
.LVL145:
	.loc 1 239 0
	call	exit
.LVL146:
.L47:
	.loc 1 241 0
	movl	stdout, %eax
	movl	$.LC52, 4(%esp)
	movl	%eax, (%esp)
	call	printf
.LVL147:
	.loc 1 242 0
	leave
.LCFI17:
	.cfi_restore 5
	.cfi_def_cfa 4, 4
.LVL148:
	ret
	.cfi_endproc
.LFE7:
	.size	writetest1, .-writetest1
	.section	.rodata
	.align 4
.LC53:
	.string	"many creates, followed by unlink test\n"
	.align 4
.LC54:
	.string	"many creates, followed by unlink; ok\n"
	.text
	.globl	createtest
	.type	createtest, @function
createtest:
.LFB8:
	.loc 1 246 0
	.cfi_startproc
	pushl	%ebp
.LCFI18:
	.cfi_def_cfa_offset 8
	.cfi_offset 5, -8
	movl	%esp, %ebp
.LCFI19:
	.cfi_def_cfa_register 5
	subl	$40, %esp
	.loc 1 249 0
	movl	stdout, %eax
	movl	$.LC53, 4(%esp)
	movl	%eax, (%esp)
	call	printf
.LVL149:
	.loc 1 251 0
	movb	$97, name
	.loc 1 252 0
	movb	$0, name+2
	.loc 1 253 0
	movl	$0, -12(%ebp)
.LVL150:
	jmp	.L50
.L51:
	.loc 1 254 0 discriminator 2
	movl	-12(%ebp), %eax
	addl	$48, %eax
	movb	%al, name+1
	.loc 1 255 0 discriminator 2
	movl	$514, 4(%esp)
	movl	$name, (%esp)
	call	open
.LVL151:
	movl	%eax, -16(%ebp)
.LVL152:
	.loc 1 256 0 discriminator 2
	movl	-16(%ebp), %eax
	movl	%eax, (%esp)
	call	close
.LVL153:
	.loc 1 253 0 discriminator 2
	addl	$1, -12(%ebp)
.LVL154:
.L50:
	.loc 1 253 0 is_stmt 0 discriminator 1
	cmpl	$51, -12(%ebp)
	jle	.L51
	.loc 1 258 0 is_stmt 1
	movb	$97, name
	.loc 1 259 0
	movb	$0, name+2
	.loc 1 260 0
	movl	$0, -12(%ebp)
.LVL155:
	jmp	.L52
.L53:
	.loc 1 261 0 discriminator 2
	movl	-12(%ebp), %eax
	addl	$48, %eax
	movb	%al, name+1
	.loc 1 262 0 discriminator 2
	movl	$name, (%esp)
	call	unlink
.LVL156:
	.loc 1 260 0 discriminator 2
	addl	$1, -12(%ebp)
.L52:
	.loc 1 260 0 is_stmt 0 discriminator 1
	cmpl	$51, -12(%ebp)
	jle	.L53
	.loc 1 264 0 is_stmt 1
	movl	stdout, %eax
	movl	$.LC54, 4(%esp)
	movl	%eax, (%esp)
	call	printf
.LVL157:
	.loc 1 265 0
	leave
.LCFI20:
	.cfi_restore 5
	.cfi_def_cfa 4, 4
.LVL158:
	ret
	.cfi_endproc
.LFE8:
	.size	createtest, .-createtest
	.section	.rodata
.LC55:
	.string	"mkdir test\n"
.LC56:
	.string	"dir0"
.LC57:
	.string	"chdir dir0 failed\n"
.LC58:
	.string	".."
.LC59:
	.string	"chdir .. failed\n"
.LC60:
	.string	"unlink dir0 failed\n"
.LC61:
	.string	"mkdir test ok\n"
	.text
	.globl	dirtest
	.type	dirtest, @function
dirtest:
.LFB9:
	.loc 1 268 0
	.cfi_startproc
	pushl	%ebp
.LCFI21:
	.cfi_def_cfa_offset 8
	.cfi_offset 5, -8
	movl	%esp, %ebp
.LCFI22:
	.cfi_def_cfa_register 5
	subl	$24, %esp
	.loc 1 269 0
	movl	stdout, %eax
	movl	$.LC55, 4(%esp)
	movl	%eax, (%esp)
	call	printf
.LVL159:
	.loc 1 271 0
	movl	$.LC56, (%esp)
	call	mkdir
.LVL160:
	testl	%eax, %eax
	jns	.L55
	.loc 1 272 0
	movl	stdout, %eax
	movl	$.LC6, 4(%esp)
	movl	%eax, (%esp)
	call	printf
.LVL161:
	.loc 1 273 0
	call	exit
.LVL162:
.L55:
	.loc 1 276 0
	movl	$.LC56, (%esp)
	call	chdir
.LVL163:
	testl	%eax, %eax
	jns	.L56
	.loc 1 277 0
	movl	stdout, %eax
	movl	$.LC57, 4(%esp)
	movl	%eax, (%esp)
	call	printf
.LVL164:
	.loc 1 278 0
	call	exit
.LVL165:
.L56:
	.loc 1 281 0
	movl	$.LC58, (%esp)
	call	chdir
.LVL166:
	testl	%eax, %eax
	jns	.L57
	.loc 1 282 0
	movl	stdout, %eax
	movl	$.LC59, 4(%esp)
	movl	%eax, (%esp)
	call	printf
.LVL167:
	.loc 1 283 0
	call	exit
.LVL168:
.L57:
	.loc 1 286 0
	movl	$.LC56, (%esp)
	call	unlink
.LVL169:
	testl	%eax, %eax
	jns	.L58
	.loc 1 287 0
	movl	stdout, %eax
	movl	$.LC60, 4(%esp)
	movl	%eax, (%esp)
	call	printf
.LVL170:
	.loc 1 288 0
	call	exit
.LVL171:
.L58:
	.loc 1 290 0
	movl	stdout, %eax
	movl	$.LC61, 4(%esp)
	movl	%eax, (%esp)
	call	printf
.LVL172:
	.loc 1 291 0
	leave
.LCFI23:
	.cfi_restore 5
	.cfi_def_cfa 4, 4
	ret
	.cfi_endproc
.LFE9:
	.size	dirtest, .-dirtest
	.section	.rodata
.LC62:
	.string	"exec test\n"
.LC63:
	.string	"exec echo failed\n"
	.text
	.globl	exectest
	.type	exectest, @function
exectest:
.LFB10:
	.loc 1 295 0
	.cfi_startproc
	pushl	%ebp
.LCFI24:
	.cfi_def_cfa_offset 8
	.cfi_offset 5, -8
	movl	%esp, %ebp
.LCFI25:
	.cfi_def_cfa_register 5
	subl	$24, %esp
	.loc 1 296 0
	movl	stdout, %eax
	movl	$.LC62, 4(%esp)
	movl	%eax, (%esp)
	call	printf
.LVL173:
	.loc 1 297 0
	movl	$echoargv, 4(%esp)
	movl	$.LC0, (%esp)
	call	exec
.LVL174:
	testl	%eax, %eax
	jns	.L59
	.loc 1 298 0
	movl	stdout, %eax
	movl	$.LC63, 4(%esp)
	movl	%eax, (%esp)
	call	printf
.LVL175:
	.loc 1 299 0
	call	exit
.LVL176:
.L59:
	.loc 1 301 0
	leave
.LCFI26:
	.cfi_restore 5
	.cfi_def_cfa 4, 4
	ret
	.cfi_endproc
.LFE10:
	.size	exectest, .-exectest
	.section	.rodata
.LC64:
	.string	"pipe() failed\n"
.LC65:
	.string	"pipe1 oops 1\n"
.LC66:
	.string	"pipe1 oops 2\n"
.LC67:
	.string	"pipe1 oops 3 total %d\n"
.LC68:
	.string	"fork() failed\n"
.LC69:
	.string	"pipe1 ok\n"
	.text
	.globl	pipe1
	.type	pipe1, @function
pipe1:
.LFB11:
	.loc 1 307 0
	.cfi_startproc
	pushl	%ebp
.LCFI27:
	.cfi_def_cfa_offset 8
	.cfi_offset 5, -8
	movl	%esp, %ebp
.LCFI28:
	.cfi_def_cfa_register 5
	subl	$56, %esp
	.loc 1 311 0
	leal	-40(%ebp), %eax
	movl	%eax, (%esp)
	call	pipe
.LVL177:
	testl	%eax, %eax
	je	.L62
	.loc 1 312 0
	movl	$.LC64, 4(%esp)
	movl	$1, (%esp)
	call	printf
.LVL178:
	.loc 1 313 0
	call	exit
.LVL179:
.L62:
	.loc 1 315 0
	call	fork
.LVL180:
	movl	%eax, -32(%ebp)
.LVL181:
	.loc 1 316 0
	movl	$0, -12(%ebp)
.LVL182:
	.loc 1 317 0
	cmpl	$0, -32(%ebp)
	jne	.L63
	.loc 1 318 0
	movl	-40(%ebp), %eax
.LVL183:
	movl	%eax, (%esp)
	call	close
.LVL184:
	.loc 1 319 0
	movl	$0, -20(%ebp)
.LVL185:
	jmp	.L64
.LVL186:
.L68:
	.loc 1 320 0
	movl	$0, -16(%ebp)
.LVL187:
	jmp	.L65
.L66:
	.loc 1 321 0 discriminator 2
	movl	-12(%ebp), %eax
	leal	1(%eax), %edx
	movl	%edx, -12(%ebp)
.LVL188:
	movl	-16(%ebp), %edx
.LVL189:
	addl	$buf, %edx
	movb	%al, (%edx)
	.loc 1 320 0 discriminator 2
	addl	$1, -16(%ebp)
.LVL190:
.L65:
	.loc 1 320 0 is_stmt 0 discriminator 1
	cmpl	$1032, -16(%ebp)
	jle	.L66
	.loc 1 322 0 is_stmt 1
	movl	-36(%ebp), %eax
	movl	$1033, 8(%esp)
	movl	$buf, 4(%esp)
	movl	%eax, (%esp)
	call	write
.LVL191:
	cmpl	$1033, %eax
	je	.L67
	.loc 1 323 0
	movl	$.LC65, 4(%esp)
	movl	$1, (%esp)
	call	printf
.LVL192:
	.loc 1 324 0
	call	exit
.LVL193:
.L67:
	.loc 1 319 0
	addl	$1, -20(%ebp)
.LVL194:
.L64:
	.loc 1 319 0 is_stmt 0 discriminator 1
	cmpl	$4, -20(%ebp)
	jle	.L68
	.loc 1 327 0 is_stmt 1
	call	exit
.LVL195:
.L63:
	.loc 1 328 0
	cmpl	$0, -32(%ebp)
	jle	.L69
	.loc 1 329 0
	movl	-36(%ebp), %eax
.LVL196:
	movl	%eax, (%esp)
	call	close
.LVL197:
	.loc 1 330 0
	movl	$0, -28(%ebp)
.LVL198:
	.loc 1 331 0
	movl	$1, -24(%ebp)
.LVL199:
	.loc 1 332 0
	jmp	.L70
.LVL200:
.L75:
	.loc 1 333 0
	movl	$0, -16(%ebp)
.LVL201:
	jmp	.L71
.LVL202:
.L74:
	.loc 1 334 0
	movl	-16(%ebp), %eax
.LVL203:
	addl	$buf, %eax
	movzbl	(%eax), %eax
	movsbl	%al, %ecx
	movl	-12(%ebp), %eax
	leal	1(%eax), %edx
	movl	%edx, -12(%ebp)
.LVL204:
	xorl	%ecx, %eax
	movzbl	%al, %eax
	testl	%eax, %eax
	je	.L72
	.loc 1 335 0
	movl	$.LC66, 4(%esp)
	movl	$1, (%esp)
	call	printf
.LVL205:
	jmp	.L61
.LVL206:
.L72:
	.loc 1 333 0
	addl	$1, -16(%ebp)
.LVL207:
.L71:
	.loc 1 333 0 is_stmt 0 discriminator 1
	movl	-16(%ebp), %eax
	cmpl	-20(%ebp), %eax
	jl	.L74
	.loc 1 339 0 is_stmt 1
	movl	-20(%ebp), %eax
	addl	%eax, -28(%ebp)
	.loc 1 340 0
	sall	-24(%ebp)
	.loc 1 341 0
	movl	-24(%ebp), %eax
	cmpl	$8192, %eax
	jbe	.L70
	.loc 1 342 0
	movl	$8192, -24(%ebp)
.LVL208:
.L70:
	.loc 1 332 0 discriminator 1
	movl	-40(%ebp), %eax
	movl	-24(%ebp), %edx
	movl	%edx, 8(%esp)
	movl	$buf, 4(%esp)
	movl	%eax, (%esp)
	call	read
.LVL209:
	movl	%eax, -20(%ebp)
.LVL210:
	cmpl	$0, -20(%ebp)
	jg	.L75
	.loc 1 344 0
	cmpl	$5165, -28(%ebp)
	je	.L76
	.loc 1 345 0
	movl	-28(%ebp), %eax
.LVL211:
	movl	%eax, 8(%esp)
	movl	$.LC67, 4(%esp)
	movl	$1, (%esp)
	call	printf
.LVL212:
	.loc 1 346 0
	call	exit
.LVL213:
.L76:
	.loc 1 348 0
	movl	-40(%ebp), %eax
.LVL214:
	movl	%eax, (%esp)
	call	close
.LVL215:
	.loc 1 349 0
	call	wait
.LVL216:
	.loc 1 354 0
	movl	$.LC69, 4(%esp)
	movl	$1, (%esp)
	call	printf
.LVL217:
	jmp	.L61
.LVL218:
.L69:
	.loc 1 351 0
	movl	$.LC68, 4(%esp)
	movl	$1, (%esp)
	call	printf
.LVL219:
	.loc 1 352 0
	call	exit
.LVL220:
.L61:
	.loc 1 355 0
	leave
.LCFI29:
	.cfi_restore 5
	.cfi_def_cfa 4, 4
.LVL221:
	ret
	.cfi_endproc
.LFE11:
	.size	pipe1, .-pipe1
	.section	.rodata
.LC70:
	.string	"preempt: "
.LC71:
	.string	"x"
.LC72:
	.string	"preempt write error"
.LC73:
	.string	"preempt read error"
.LC74:
	.string	"kill... "
.LC75:
	.string	"wait... "
.LC76:
	.string	"preempt ok\n"
	.text
	.globl	preempt
	.type	preempt, @function
preempt:
.LFB12:
	.loc 1 360 0
	.cfi_startproc
	pushl	%ebp
.LCFI30:
	.cfi_def_cfa_offset 8
	.cfi_offset 5, -8
	movl	%esp, %ebp
.LCFI31:
	.cfi_def_cfa_register 5
	subl	$56, %esp
	.loc 1 364 0
	movl	$.LC70, 4(%esp)
	movl	$1, (%esp)
	call	printf
.LVL222:
	.loc 1 365 0
	call	fork
.LVL223:
	movl	%eax, -12(%ebp)
.LVL224:
	.loc 1 366 0
	cmpl	$0, -12(%ebp)
	jne	.L79
.L80:
	.loc 1 368 0 discriminator 1
	jmp	.L80
.L79:
	.loc 1 370 0
	call	fork
.LVL225:
	movl	%eax, -16(%ebp)
.LVL226:
	.loc 1 371 0
	cmpl	$0, -16(%ebp)
	jne	.L81
.L82:
	.loc 1 373 0 discriminator 1
	jmp	.L82
.L81:
	.loc 1 375 0
	leal	-28(%ebp), %eax
.LVL227:
	movl	%eax, (%esp)
	call	pipe
.LVL228:
	.loc 1 376 0
	call	fork
.LVL229:
	movl	%eax, -20(%ebp)
.LVL230:
	.loc 1 377 0
	cmpl	$0, -20(%ebp)
	jne	.L83
	.loc 1 378 0
	movl	-28(%ebp), %eax
.LVL231:
	movl	%eax, (%esp)
	call	close
.LVL232:
	.loc 1 379 0
	movl	-24(%ebp), %eax
	movl	$1, 8(%esp)
	movl	$.LC71, 4(%esp)
	movl	%eax, (%esp)
	call	write
.LVL233:
	cmpl	$1, %eax
	je	.L84
	.loc 1 380 0
	movl	$.LC72, 4(%esp)
	movl	$1, (%esp)
	call	printf
.LVL234:
.L84:
	.loc 1 381 0
	movl	-24(%ebp), %eax
	movl	%eax, (%esp)
	call	close
.LVL235:
.L85:
	.loc 1 383 0 discriminator 1
	jmp	.L85
.LVL236:
.L83:
	.loc 1 386 0
	movl	-24(%ebp), %eax
.LVL237:
	movl	%eax, (%esp)
	call	close
.LVL238:
	.loc 1 387 0
	movl	-28(%ebp), %eax
	movl	$8192, 8(%esp)
	movl	$buf, 4(%esp)
	movl	%eax, (%esp)
	call	read
.LVL239:
	cmpl	$1, %eax
	je	.L86
	.loc 1 388 0
	movl	$.LC73, 4(%esp)
	movl	$1, (%esp)
	call	printf
.LVL240:
	jmp	.L78
.L86:
	.loc 1 391 0
	movl	-28(%ebp), %eax
	movl	%eax, (%esp)
	call	close
.LVL241:
	.loc 1 392 0
	movl	$.LC74, 4(%esp)
	movl	$1, (%esp)
	call	printf
.LVL242:
	.loc 1 393 0
	movl	-12(%ebp), %eax
	movl	%eax, (%esp)
	call	kill
.LVL243:
	.loc 1 394 0
	movl	-16(%ebp), %eax
	movl	%eax, (%esp)
	call	kill
.LVL244:
	.loc 1 395 0
	movl	-20(%ebp), %eax
	movl	%eax, (%esp)
	call	kill
.LVL245:
	.loc 1 396 0
	movl	$.LC75, 4(%esp)
	movl	$1, (%esp)
	call	printf
.LVL246:
	.loc 1 397 0
	call	wait
.LVL247:
	.loc 1 398 0
	call	wait
.LVL248:
	.loc 1 399 0
	call	wait
.LVL249:
	.loc 1 400 0
	movl	$.LC76, 4(%esp)
	movl	$1, (%esp)
	call	printf
.LVL250:
.L78:
	.loc 1 401 0
	leave
.LCFI32:
	.cfi_restore 5
	.cfi_def_cfa 4, 4
.LVL251:
	ret
	.cfi_endproc
.LFE12:
	.size	preempt, .-preempt
	.section	.rodata
.LC77:
	.string	"wait wrong pid\n"
.LC78:
	.string	"exitwait ok\n"
	.text
	.globl	exitwait
	.type	exitwait, @function
exitwait:
.LFB13:
	.loc 1 406 0
	.cfi_startproc
	pushl	%ebp
.LCFI33:
	.cfi_def_cfa_offset 8
	.cfi_offset 5, -8
	movl	%esp, %ebp
.LCFI34:
	.cfi_def_cfa_register 5
	subl	$40, %esp
	.loc 1 409 0
	movl	$0, -12(%ebp)
.LVL252:
	jmp	.L89
.L94:
	.loc 1 410 0
	call	fork
.LVL253:
	movl	%eax, -16(%ebp)
.LVL254:
	.loc 1 411 0
	cmpl	$0, -16(%ebp)
	jns	.L90
	.loc 1 412 0
	movl	$.LC14, 4(%esp)
	movl	$1, (%esp)
	call	printf
.LVL255:
	.loc 1 413 0
	jmp	.L88
.LVL256:
.L90:
	.loc 1 415 0
	cmpl	$0, -16(%ebp)
	je	.L92
	.loc 1 416 0
	call	wait
.LVL257:
	cmpl	-16(%ebp), %eax
	je	.L93
	.loc 1 417 0
	movl	$.LC77, 4(%esp)
	movl	$1, (%esp)
	call	printf
.LVL258:
	.loc 1 418 0
	jmp	.L88
.LVL259:
.L92:
	.loc 1 421 0
	call	exit
.LVL260:
.L93:
	.loc 1 409 0
	addl	$1, -12(%ebp)
.LVL261:
.L89:
	.loc 1 409 0 is_stmt 0 discriminator 1
	cmpl	$99, -12(%ebp)
	jle	.L94
	.loc 1 424 0 is_stmt 1
	movl	$.LC78, 4(%esp)
	movl	$1, (%esp)
	call	printf
.LVL262:
.L88:
	.loc 1 425 0
	leave
.LCFI35:
	.cfi_restore 5
	.cfi_def_cfa 4, 4
.LVL263:
	ret
	.cfi_endproc
.LFE13:
	.size	exitwait, .-exitwait
	.section	.rodata
.LC79:
	.string	"mem test\n"
.LC80:
	.string	"couldn't allocate mem?!!\n"
.LC81:
	.string	"mem ok\n"
	.text
	.globl	mem
	.type	mem, @function
mem:
.LFB14:
	.loc 1 429 0
	.cfi_startproc
	pushl	%ebp
.LCFI36:
	.cfi_def_cfa_offset 8
	.cfi_offset 5, -8
	movl	%esp, %ebp
.LCFI37:
	.cfi_def_cfa_register 5
	subl	$40, %esp
	.loc 1 433 0
	movl	$.LC79, 4(%esp)
	movl	$1, (%esp)
	call	printf
.LVL264:
	.loc 1 434 0
	call	getpid
.LVL265:
	movl	%eax, -16(%ebp)
.LVL266:
	.loc 1 435 0
	call	fork
.LVL267:
	movl	%eax, -20(%ebp)
.LVL268:
	cmpl	$0, -20(%ebp)
	jne	.L96
	.loc 1 436 0
	movl	$0, -12(%ebp)
.LVL269:
	.loc 1 437 0
	jmp	.L97
.LVL270:
.L98:
	.loc 1 438 0
	movl	-24(%ebp), %eax
.LVL271:
	movl	-12(%ebp), %edx
	movl	%edx, (%eax)
	.loc 1 439 0
	movl	-24(%ebp), %eax
	movl	%eax, -12(%ebp)
.LVL272:
.L97:
	.loc 1 437 0 discriminator 1
	movl	$10001, (%esp)
	call	malloc
.LVL273:
	movl	%eax, -24(%ebp)
.LVL274:
	cmpl	$0, -24(%ebp)
	jne	.L98
	.loc 1 441 0
	jmp	.L99
.LVL275:
.L100:
	.loc 1 442 0
	movl	-12(%ebp), %eax
	movl	(%eax), %eax
	movl	%eax, -24(%ebp)
.LVL276:
	.loc 1 443 0
	movl	-12(%ebp), %eax
.LVL277:
	movl	%eax, (%esp)
	call	free
.LVL278:
	.loc 1 444 0
	movl	-24(%ebp), %eax
	movl	%eax, -12(%ebp)
.LVL279:
.L99:
	.loc 1 441 0 discriminator 1
	cmpl	$0, -12(%ebp)
	jne	.L100
	.loc 1 446 0
	movl	$20480, (%esp)
	call	malloc
.LVL280:
	movl	%eax, -12(%ebp)
.LVL281:
	.loc 1 447 0
	cmpl	$0, -12(%ebp)
	jne	.L101
	.loc 1 448 0
	movl	$.LC80, 4(%esp)
	movl	$1, (%esp)
	call	printf
.LVL282:
	.loc 1 449 0
	movl	-16(%ebp), %eax
	movl	%eax, (%esp)
	call	kill
.LVL283:
	.loc 1 450 0
	call	exit
.LVL284:
.L101:
	.loc 1 452 0
	movl	-12(%ebp), %eax
.LVL285:
	movl	%eax, (%esp)
	call	free
.LVL286:
	.loc 1 453 0
	movl	$.LC81, 4(%esp)
	movl	$1, (%esp)
	call	printf
.LVL287:
	.loc 1 454 0
	call	exit
.LVL288:
.L96:
	.loc 1 456 0
	call	wait
.LVL289:
	.loc 1 458 0
	leave
.LCFI38:
	.cfi_restore 5
	.cfi_def_cfa 4, 4
.LVL290:
	ret
	.cfi_endproc
.LFE14:
	.size	mem, .-mem
	.section	.rodata
.LC82:
	.string	"sharedfd test\n"
.LC83:
	.string	"sharedfd"
	.align 4
.LC84:
	.string	"fstests: cannot open sharedfd for writing"
	.align 4
.LC85:
	.string	"fstests: write sharedfd failed\n"
	.align 4
.LC86:
	.string	"fstests: cannot open sharedfd for reading\n"
.LC87:
	.string	"sharedfd ok\n"
.LC88:
	.string	"sharedfd oops %d %d\n"
	.text
	.globl	sharedfd
	.type	sharedfd, @function
sharedfd:
.LFB15:
	.loc 1 466 0
	.cfi_startproc
	pushl	%ebp
.LCFI39:
	.cfi_def_cfa_offset 8
	.cfi_offset 5, -8
	movl	%esp, %ebp
.LCFI40:
	.cfi_def_cfa_register 5
	subl	$72, %esp
	.loc 1 470 0
	movl	$.LC82, 4(%esp)
	movl	$1, (%esp)
	call	printf
.LVL291:
	.loc 1 472 0
	movl	$.LC83, (%esp)
	call	unlink
.LVL292:
	.loc 1 473 0
	movl	$514, 4(%esp)
	movl	$.LC83, (%esp)
	call	open
.LVL293:
	movl	%eax, -24(%ebp)
.LVL294:
	.loc 1 474 0
	cmpl	$0, -24(%ebp)
	jns	.L103
	.loc 1 475 0
	movl	$.LC84, 4(%esp)
	movl	$1, (%esp)
	call	printf
.LVL295:
	.loc 1 476 0
	jmp	.L102
.LVL296:
.L103:
	.loc 1 478 0
	call	fork
.LVL297:
	movl	%eax, -28(%ebp)
.LVL298:
	.loc 1 479 0
	cmpl	$0, -28(%ebp)
	jne	.L105
	.loc 1 479 0 is_stmt 0 discriminator 1
	movl	$99, %eax
.LVL299:
	jmp	.L106
.LVL300:
.L105:
	.loc 1 479 0 discriminator 2
	movl	$112, %eax
.LVL301:
.L106:
	.loc 1 479 0 discriminator 3
	movl	$10, 8(%esp)
	movl	%eax, 4(%esp)
	leal	-42(%ebp), %eax
	movl	%eax, (%esp)
	call	memset
.LVL302:
	.loc 1 480 0 is_stmt 1 discriminator 3
	movl	$0, -12(%ebp)
.LVL303:
	jmp	.L107
.L110:
	.loc 1 481 0
	movl	$10, 8(%esp)
	leal	-42(%ebp), %eax
	movl	%eax, 4(%esp)
	movl	-24(%ebp), %eax
	movl	%eax, (%esp)
	call	write
.LVL304:
	cmpl	$10, %eax
	je	.L108
	.loc 1 482 0
	movl	$.LC85, 4(%esp)
	movl	$1, (%esp)
	call	printf
.LVL305:
	.loc 1 483 0
	jmp	.L109
.L108:
	.loc 1 480 0
	addl	$1, -12(%ebp)
.L107:
	.loc 1 480 0 is_stmt 0 discriminator 1
	cmpl	$999, -12(%ebp)
	jle	.L110
.L109:
	.loc 1 486 0 is_stmt 1
	cmpl	$0, -28(%ebp)
	jne	.L111
	.loc 1 487 0
	call	exit
.LVL306:
.L111:
	.loc 1 489 0
	call	wait
.LVL307:
	.loc 1 490 0
	movl	-24(%ebp), %eax
	movl	%eax, (%esp)
	call	close
.LVL308:
	.loc 1 491 0
	movl	$0, 4(%esp)
	movl	$.LC83, (%esp)
	call	open
.LVL309:
	movl	%eax, -24(%ebp)
.LVL310:
	.loc 1 492 0
	cmpl	$0, -24(%ebp)
	jns	.L112
	.loc 1 493 0
	movl	$.LC86, 4(%esp)
	movl	$1, (%esp)
	call	printf
.LVL311:
	.loc 1 494 0
	jmp	.L102
.LVL312:
.L112:
	.loc 1 496 0
	movl	$0, -20(%ebp)
.LVL313:
	movl	-20(%ebp), %eax
.LVL314:
	movl	%eax, -16(%ebp)
.LVL315:
	.loc 1 497 0
	jmp	.L113
.LVL316:
.L118:
	.loc 1 498 0
	movl	$0, -12(%ebp)
	jmp	.L114
.LVL317:
.L117:
	.loc 1 499 0
	leal	-42(%ebp), %edx
	movl	-12(%ebp), %eax
.LVL318:
	addl	%edx, %eax
	movzbl	(%eax), %eax
	cmpb	$99, %al
	jne	.L115
	.loc 1 500 0
	addl	$1, -16(%ebp)
.LVL319:
.L115:
	.loc 1 501 0
	leal	-42(%ebp), %edx
	movl	-12(%ebp), %eax
	addl	%edx, %eax
	movzbl	(%eax), %eax
	cmpb	$112, %al
	jne	.L116
	.loc 1 502 0
	addl	$1, -20(%ebp)
.LVL320:
.L116:
	.loc 1 498 0
	addl	$1, -12(%ebp)
.LVL321:
.L114:
	.loc 1 498 0 is_stmt 0 discriminator 1
	movl	-12(%ebp), %eax
	cmpl	$9, %eax
	jbe	.L117
.LVL322:
.L113:
	.loc 1 497 0 is_stmt 1 discriminator 1
	movl	$10, 8(%esp)
	leal	-42(%ebp), %eax
	movl	%eax, 4(%esp)
	movl	-24(%ebp), %eax
	movl	%eax, (%esp)
	call	read
.LVL323:
	movl	%eax, -32(%ebp)
.LVL324:
	cmpl	$0, -32(%ebp)
	jg	.L118
	.loc 1 505 0
	movl	-24(%ebp), %eax
.LVL325:
	movl	%eax, (%esp)
	call	close
.LVL326:
	.loc 1 506 0
	movl	$.LC83, (%esp)
	call	unlink
.LVL327:
	.loc 1 507 0
	cmpl	$10000, -16(%ebp)
	jne	.L119
	.loc 1 507 0 is_stmt 0 discriminator 1
	cmpl	$10000, -20(%ebp)
	jne	.L119
	.loc 1 508 0 is_stmt 1
	movl	$.LC87, 4(%esp)
	movl	$1, (%esp)
	call	printf
.LVL328:
	jmp	.L102
.L119:
	.loc 1 510 0
	movl	-20(%ebp), %eax
	movl	%eax, 12(%esp)
	movl	-16(%ebp), %eax
	movl	%eax, 8(%esp)
	movl	$.LC88, 4(%esp)
	movl	$1, (%esp)
	call	printf
.LVL329:
	.loc 1 511 0
	call	exit
.LVL330:
.L102:
	.loc 1 513 0
	leave
.LCFI41:
	.cfi_restore 5
	.cfi_def_cfa 4, 4
.LVL331:
	ret
	.cfi_endproc
.LFE15:
	.size	sharedfd, .-sharedfd
	.section	.rodata
.LC89:
	.string	"f0"
.LC90:
	.string	"f1"
.LC91:
	.string	"f2"
.LC92:
	.string	"f3"
.LC93:
	.string	"fourfiles test\n"
.LC94:
	.string	"create failed\n"
.LC95:
	.string	"write failed %d\n"
.LC96:
	.string	"wrong char\n"
.LC97:
	.string	"wrong length %d\n"
.LC98:
	.string	"fourfiles ok\n"
	.text
	.globl	fourfiles
	.type	fourfiles, @function
fourfiles:
.LFB16:
	.loc 1 519 0
	.cfi_startproc
	pushl	%ebp
.LCFI42:
	.cfi_def_cfa_offset 8
	.cfi_offset 5, -8
	movl	%esp, %ebp
.LCFI43:
	.cfi_def_cfa_register 5
	subl	$72, %esp
	.loc 1 521 0
	movl	$.LC89, -56(%ebp)
	movl	$.LC90, -52(%ebp)
	movl	$.LC91, -48(%ebp)
	movl	$.LC92, -44(%ebp)
	.loc 1 524 0
	movl	$.LC93, 4(%esp)
	movl	$1, (%esp)
	call	printf
.LVL332:
	.loc 1 526 0
	movl	$0, -24(%ebp)
.LVL333:
	jmp	.L122
.L129:
	.loc 1 527 0
	movl	-24(%ebp), %eax
	movl	-56(%ebp,%eax,4), %eax
	movl	%eax, -28(%ebp)
.LVL334:
	.loc 1 528 0
	movl	-28(%ebp), %eax
	movl	%eax, (%esp)
	call	unlink
.LVL335:
	.loc 1 530 0
	call	fork
.LVL336:
	movl	%eax, -32(%ebp)
.LVL337:
	.loc 1 531 0
	cmpl	$0, -32(%ebp)
	jns	.L123
	.loc 1 532 0
	movl	$.LC14, 4(%esp)
	movl	$1, (%esp)
	call	printf
.LVL338:
	.loc 1 533 0
	call	exit
.LVL339:
.L123:
	.loc 1 536 0
	cmpl	$0, -32(%ebp)
	jne	.L124
	.loc 1 537 0
	movl	$514, 4(%esp)
	movl	-28(%ebp), %eax
.LVL340:
	movl	%eax, (%esp)
	call	open
.LVL341:
	movl	%eax, -36(%ebp)
.LVL342:
	.loc 1 538 0
	cmpl	$0, -36(%ebp)
	jns	.L125
	.loc 1 539 0
	movl	$.LC94, 4(%esp)
	movl	$1, (%esp)
	call	printf
.LVL343:
	.loc 1 540 0
	call	exit
.LVL344:
.L125:
	.loc 1 543 0
	movl	-24(%ebp), %eax
.LVL345:
	addl	$48, %eax
	movl	$512, 8(%esp)
	movl	%eax, 4(%esp)
	movl	$buf, (%esp)
	call	memset
.LVL346:
	.loc 1 544 0
	movl	$0, -12(%ebp)
.LVL347:
	jmp	.L126
.L128:
	.loc 1 545 0
	movl	$500, 8(%esp)
	movl	$buf, 4(%esp)
	movl	-36(%ebp), %eax
	movl	%eax, (%esp)
	call	write
.LVL348:
	movl	%eax, -40(%ebp)
.LVL349:
	cmpl	$500, -40(%ebp)
	je	.L127
	.loc 1 546 0
	movl	-40(%ebp), %eax
	movl	%eax, 8(%esp)
	movl	$.LC95, 4(%esp)
	movl	$1, (%esp)
	call	printf
.LVL350:
	.loc 1 547 0
	call	exit
.LVL351:
.L127:
	.loc 1 544 0
	addl	$1, -12(%ebp)
.LVL352:
.L126:
	.loc 1 544 0 is_stmt 0 discriminator 1
	cmpl	$11, -12(%ebp)
	jle	.L128
	.loc 1 550 0 is_stmt 1
	call	exit
.LVL353:
.L124:
	.loc 1 526 0
	addl	$1, -24(%ebp)
.LVL354:
.L122:
	.loc 1 526 0 is_stmt 0 discriminator 1
	cmpl	$3, -24(%ebp)
	jle	.L129
	.loc 1 554 0 is_stmt 1
	movl	$0, -24(%ebp)
.LVL355:
	jmp	.L130
.L131:
	.loc 1 555 0 discriminator 2
	call	wait
.LVL356:
	.loc 1 554 0 discriminator 2
	addl	$1, -24(%ebp)
.L130:
	.loc 1 554 0 is_stmt 0 discriminator 1
	cmpl	$3, -24(%ebp)
	jle	.L131
	.loc 1 558 0 is_stmt 1
	movl	$0, -12(%ebp)
.LVL357:
	jmp	.L132
.L139:
	.loc 1 559 0
	movl	-12(%ebp), %eax
	movl	-56(%ebp,%eax,4), %eax
	movl	%eax, -28(%ebp)
.LVL358:
	.loc 1 560 0
	movl	$0, 4(%esp)
	movl	-28(%ebp), %eax
	movl	%eax, (%esp)
	call	open
.LVL359:
	movl	%eax, -36(%ebp)
.LVL360:
	.loc 1 561 0
	movl	$0, -20(%ebp)
.LVL361:
	.loc 1 562 0
	jmp	.L133
.LVL362:
.L137:
	.loc 1 563 0
	movl	$0, -16(%ebp)
.LVL363:
	jmp	.L134
.LVL364:
.L136:
	.loc 1 564 0
	movl	-16(%ebp), %eax
.LVL365:
	addl	$buf, %eax
	movzbl	(%eax), %eax
	movsbl	%al, %eax
	movl	-12(%ebp), %edx
	addl	$48, %edx
	cmpl	%edx, %eax
	je	.L135
	.loc 1 565 0
	movl	$.LC96, 4(%esp)
	movl	$1, (%esp)
	call	printf
.LVL366:
	.loc 1 566 0
	call	exit
.LVL367:
.L135:
	.loc 1 563 0
	addl	$1, -16(%ebp)
.LVL368:
.L134:
	.loc 1 563 0 is_stmt 0 discriminator 1
	movl	-16(%ebp), %eax
	cmpl	-40(%ebp), %eax
	jl	.L136
	.loc 1 569 0 is_stmt 1
	movl	-40(%ebp), %eax
	addl	%eax, -20(%ebp)
.LVL369:
.L133:
	.loc 1 562 0 discriminator 1
	movl	$8192, 8(%esp)
	movl	$buf, 4(%esp)
	movl	-36(%ebp), %eax
	movl	%eax, (%esp)
	call	read
.LVL370:
	movl	%eax, -40(%ebp)
.LVL371:
	cmpl	$0, -40(%ebp)
	jg	.L137
	.loc 1 571 0
	movl	-36(%ebp), %eax
.LVL372:
	movl	%eax, (%esp)
	call	close
.LVL373:
	.loc 1 572 0
	cmpl	$6000, -20(%ebp)
	je	.L138
	.loc 1 573 0
	movl	-20(%ebp), %eax
	movl	%eax, 8(%esp)
	movl	$.LC97, 4(%esp)
	movl	$1, (%esp)
	call	printf
.LVL374:
	.loc 1 574 0
	call	exit
.LVL375:
.L138:
	.loc 1 576 0
	movl	-28(%ebp), %eax
	movl	%eax, (%esp)
	call	unlink
.LVL376:
	.loc 1 558 0
	addl	$1, -12(%ebp)
.LVL377:
.L132:
	.loc 1 558 0 is_stmt 0 discriminator 1
	cmpl	$1, -12(%ebp)
	jle	.L139
	.loc 1 579 0 is_stmt 1
	movl	$.LC98, 4(%esp)
	movl	$1, (%esp)
	call	printf
.LVL378:
	.loc 1 580 0
	leave
.LCFI44:
	.cfi_restore 5
	.cfi_def_cfa 4, 4
.LVL379:
	ret
	.cfi_endproc
.LFE16:
	.size	fourfiles, .-fourfiles
	.section	.rodata
.LC99:
	.string	"createdelete test\n"
	.align 4
.LC100:
	.string	"oops createdelete %s didn't exist\n"
	.align 4
.LC101:
	.string	"oops createdelete %s did exist\n"
.LC102:
	.string	"createdelete ok\n"
	.text
	.globl	createdelete
	.type	createdelete, @function
createdelete:
.LFB17:
	.loc 1 585 0
	.cfi_startproc
	pushl	%ebp
.LCFI45:
	.cfi_def_cfa_offset 8
	.cfi_offset 5, -8
	movl	%esp, %ebp
.LCFI46:
	.cfi_def_cfa_register 5
	subl	$72, %esp
	.loc 1 590 0
	movl	$.LC99, 4(%esp)
	movl	$1, (%esp)
	call	printf
.LVL380:
	.loc 1 592 0
	movl	$0, -16(%ebp)
.LVL381:
	jmp	.L141
.L148:
	.loc 1 593 0
	call	fork
.LVL382:
	movl	%eax, -20(%ebp)
.LVL383:
	.loc 1 594 0
	cmpl	$0, -20(%ebp)
	jns	.L142
	.loc 1 595 0
	movl	$.LC14, 4(%esp)
	movl	$1, (%esp)
	call	printf
.LVL384:
	.loc 1 596 0
	call	exit
.LVL385:
.L142:
	.loc 1 599 0
	cmpl	$0, -20(%ebp)
	jne	.L143
	.loc 1 600 0
	movl	-16(%ebp), %eax
.LVL386:
	addl	$112, %eax
	movb	%al, -56(%ebp)
	.loc 1 601 0
	movb	$0, -54(%ebp)
	.loc 1 602 0
	movl	$0, -12(%ebp)
.LVL387:
	jmp	.L144
.L147:
	.loc 1 603 0
	movl	-12(%ebp), %eax
	addl	$48, %eax
	movb	%al, -55(%ebp)
	.loc 1 604 0
	movl	$514, 4(%esp)
	leal	-56(%ebp), %eax
	movl	%eax, (%esp)
	call	open
.LVL388:
	movl	%eax, -24(%ebp)
.LVL389:
	.loc 1 605 0
	cmpl	$0, -24(%ebp)
	jns	.L145
	.loc 1 606 0
	movl	$.LC94, 4(%esp)
	movl	$1, (%esp)
	call	printf
.LVL390:
	.loc 1 607 0
	call	exit
.LVL391:
.L145:
	.loc 1 609 0
	movl	-24(%ebp), %eax
.LVL392:
	movl	%eax, (%esp)
	call	close
.LVL393:
	.loc 1 610 0
	cmpl	$0, -12(%ebp)
	jle	.L146
	.loc 1 610 0 is_stmt 0 discriminator 1
	movl	-12(%ebp), %eax
	andl	$1, %eax
	testl	%eax, %eax
	jne	.L146
	.loc 1 611 0 is_stmt 1
	movl	-12(%ebp), %eax
	movl	%eax, %edx
	shrl	$31, %edx
	addl	%edx, %eax
	sarl	%eax
	addl	$48, %eax
	movb	%al, -55(%ebp)
	.loc 1 612 0
	leal	-56(%ebp), %eax
	movl	%eax, (%esp)
	call	unlink
.LVL394:
	testl	%eax, %eax
	jns	.L146
	.loc 1 613 0
	movl	$.LC21, 4(%esp)
	movl	$1, (%esp)
	call	printf
.LVL395:
	.loc 1 614 0
	call	exit
.LVL396:
.L146:
	.loc 1 602 0
	addl	$1, -12(%ebp)
.LVL397:
.L144:
	.loc 1 602 0 is_stmt 0 discriminator 1
	cmpl	$19, -12(%ebp)
	jle	.L147
	.loc 1 618 0 is_stmt 1
	call	exit
.LVL398:
.L143:
	.loc 1 592 0
	addl	$1, -16(%ebp)
.LVL399:
.L141:
	.loc 1 592 0 is_stmt 0 discriminator 1
	cmpl	$3, -16(%ebp)
	jle	.L148
	.loc 1 622 0 is_stmt 1
	movl	$0, -16(%ebp)
.LVL400:
	jmp	.L149
.L150:
	.loc 1 623 0 discriminator 2
	call	wait
.LVL401:
	.loc 1 622 0 discriminator 2
	addl	$1, -16(%ebp)
.L149:
	.loc 1 622 0 is_stmt 0 discriminator 1
	cmpl	$3, -16(%ebp)
	jle	.L150
	.loc 1 626 0 is_stmt 1
	movb	$0, -54(%ebp)
	movzbl	-54(%ebp), %eax
	movb	%al, -55(%ebp)
	movzbl	-55(%ebp), %eax
	movb	%al, -56(%ebp)
	.loc 1 627 0
	movl	$0, -12(%ebp)
.LVL402:
	jmp	.L151
.L158:
	.loc 1 628 0
	movl	$0, -16(%ebp)
	jmp	.L152
.L157:
	.loc 1 629 0
	movl	-16(%ebp), %eax
	addl	$112, %eax
	movb	%al, -56(%ebp)
	.loc 1 630 0
	movl	-12(%ebp), %eax
	addl	$48, %eax
	movb	%al, -55(%ebp)
	.loc 1 631 0
	movl	$0, 4(%esp)
	leal	-56(%ebp), %eax
	movl	%eax, (%esp)
	call	open
.LVL403:
	movl	%eax, -24(%ebp)
.LVL404:
	.loc 1 632 0
	cmpl	$0, -12(%ebp)
	je	.L153
	.loc 1 632 0 is_stmt 0 discriminator 2
	cmpl	$9, -12(%ebp)
	jle	.L154
.L153:
	.loc 1 632 0 discriminator 1
	cmpl	$0, -24(%ebp)
	jns	.L154
	.loc 1 633 0 is_stmt 1
	leal	-56(%ebp), %eax
.LVL405:
	movl	%eax, 8(%esp)
	movl	$.LC100, 4(%esp)
	movl	$1, (%esp)
	call	printf
.LVL406:
	.loc 1 634 0
	call	exit
.LVL407:
.L154:
	.loc 1 635 0
	cmpl	$0, -12(%ebp)
	jle	.L155
	.loc 1 635 0 is_stmt 0 discriminator 1
	cmpl	$9, -12(%ebp)
	jg	.L155
	cmpl	$0, -24(%ebp)
	js	.L155
	.loc 1 636 0 is_stmt 1
	leal	-56(%ebp), %eax
.LVL408:
	movl	%eax, 8(%esp)
	movl	$.LC101, 4(%esp)
	movl	$1, (%esp)
	call	printf
.LVL409:
	.loc 1 637 0
	call	exit
.LVL410:
.L155:
	.loc 1 639 0
	cmpl	$0, -24(%ebp)
	js	.L156
	.loc 1 640 0
	movl	-24(%ebp), %eax
.LVL411:
	movl	%eax, (%esp)
	call	close
.LVL412:
.L156:
	.loc 1 628 0
	addl	$1, -16(%ebp)
.LVL413:
.L152:
	.loc 1 628 0 is_stmt 0 discriminator 1
	cmpl	$3, -16(%ebp)
	jle	.L157
	.loc 1 627 0 is_stmt 1
	addl	$1, -12(%ebp)
.L151:
	.loc 1 627 0 is_stmt 0 discriminator 1
	cmpl	$19, -12(%ebp)
	jle	.L158
	.loc 1 644 0 is_stmt 1
	movl	$0, -12(%ebp)
.LVL414:
	jmp	.L159
.L162:
	.loc 1 645 0
	movl	$0, -16(%ebp)
	jmp	.L160
.L161:
	.loc 1 646 0 discriminator 2
	movl	-12(%ebp), %eax
	addl	$112, %eax
	movb	%al, -56(%ebp)
	.loc 1 647 0 discriminator 2
	movl	-12(%ebp), %eax
	addl	$48, %eax
	movb	%al, -55(%ebp)
	.loc 1 648 0 discriminator 2
	leal	-56(%ebp), %eax
	movl	%eax, (%esp)
	call	unlink
.LVL415:
	.loc 1 645 0 discriminator 2
	addl	$1, -16(%ebp)
.L160:
	.loc 1 645 0 is_stmt 0 discriminator 1
	cmpl	$3, -16(%ebp)
	jle	.L161
	.loc 1 644 0 is_stmt 1
	addl	$1, -12(%ebp)
.L159:
	.loc 1 644 0 is_stmt 0 discriminator 1
	cmpl	$19, -12(%ebp)
	jle	.L162
	.loc 1 652 0 is_stmt 1
	movl	$.LC102, 4(%esp)
	movl	$1, (%esp)
	call	printf
.LVL416:
	.loc 1 653 0
	leave
.LCFI47:
	.cfi_restore 5
	.cfi_def_cfa 4, 4
.LVL417:
	ret
	.cfi_endproc
.LFE17:
	.size	createdelete, .-createdelete
	.section	.rodata
.LC103:
	.string	"unlinkread test\n"
.LC104:
	.string	"unlinkread"
.LC105:
	.string	"create unlinkread failed\n"
.LC106:
	.string	"hello"
.LC107:
	.string	"open unlinkread failed\n"
.LC108:
	.string	"unlink unlinkread failed\n"
.LC109:
	.string	"yyy"
.LC110:
	.string	"unlinkread read failed"
.LC111:
	.string	"unlinkread wrong data\n"
.LC112:
	.string	"unlinkread write failed\n"
.LC113:
	.string	"unlinkread ok\n"
	.text
	.globl	unlinkread
	.type	unlinkread, @function
unlinkread:
.LFB18:
	.loc 1 658 0
	.cfi_startproc
	pushl	%ebp
.LCFI48:
	.cfi_def_cfa_offset 8
	.cfi_offset 5, -8
	movl	%esp, %ebp
.LCFI49:
	.cfi_def_cfa_register 5
	subl	$40, %esp
	.loc 1 661 0
	movl	$.LC103, 4(%esp)
	movl	$1, (%esp)
	call	printf
.LVL418:
	.loc 1 662 0
	movl	$514, 4(%esp)
	movl	$.LC104, (%esp)
	call	open
.LVL419:
	movl	%eax, -12(%ebp)
.LVL420:
	.loc 1 663 0
	cmpl	$0, -12(%ebp)
	jns	.L164
	.loc 1 664 0
	movl	$.LC105, 4(%esp)
	movl	$1, (%esp)
	call	printf
.LVL421:
	.loc 1 665 0
	call	exit
.LVL422:
.L164:
	.loc 1 667 0
	movl	$5, 8(%esp)
	movl	$.LC106, 4(%esp)
	movl	-12(%ebp), %eax
.LVL423:
	movl	%eax, (%esp)
	call	write
.LVL424:
	.loc 1 668 0
	movl	-12(%ebp), %eax
	movl	%eax, (%esp)
	call	close
.LVL425:
	.loc 1 670 0
	movl	$2, 4(%esp)
	movl	$.LC104, (%esp)
	call	open
.LVL426:
	movl	%eax, -12(%ebp)
.LVL427:
	.loc 1 671 0
	cmpl	$0, -12(%ebp)
	jns	.L165
	.loc 1 672 0
	movl	$.LC107, 4(%esp)
	movl	$1, (%esp)
	call	printf
.LVL428:
	.loc 1 673 0
	call	exit
.LVL429:
.L165:
	.loc 1 675 0
	movl	$.LC104, (%esp)
	call	unlink
.LVL430:
	testl	%eax, %eax
	je	.L166
	.loc 1 676 0
	movl	$.LC108, 4(%esp)
	movl	$1, (%esp)
	call	printf
.LVL431:
	.loc 1 677 0
	call	exit
.LVL432:
.L166:
	.loc 1 680 0
	movl	$514, 4(%esp)
	movl	$.LC104, (%esp)
	call	open
.LVL433:
	movl	%eax, -16(%ebp)
.LVL434:
	.loc 1 681 0
	movl	$3, 8(%esp)
	movl	$.LC109, 4(%esp)
	movl	-16(%ebp), %eax
	movl	%eax, (%esp)
	call	write
.LVL435:
	.loc 1 682 0
	movl	-16(%ebp), %eax
	movl	%eax, (%esp)
	call	close
.LVL436:
	.loc 1 684 0
	movl	$8192, 8(%esp)
	movl	$buf, 4(%esp)
	movl	-12(%ebp), %eax
	movl	%eax, (%esp)
	call	read
.LVL437:
	cmpl	$5, %eax
	je	.L167
	.loc 1 685 0
	movl	$.LC110, 4(%esp)
	movl	$1, (%esp)
	call	printf
.LVL438:
	.loc 1 686 0
	call	exit
.LVL439:
.L167:
	.loc 1 688 0
	movzbl	buf, %eax
	cmpb	$104, %al
	je	.L168
	.loc 1 689 0
	movl	$.LC111, 4(%esp)
	movl	$1, (%esp)
	call	printf
.LVL440:
	.loc 1 690 0
	call	exit
.LVL441:
.L168:
	.loc 1 692 0
	movl	$10, 8(%esp)
	movl	$buf, 4(%esp)
	movl	-12(%ebp), %eax
	movl	%eax, (%esp)
	call	write
.LVL442:
	cmpl	$10, %eax
	je	.L169
	.loc 1 693 0
	movl	$.LC112, 4(%esp)
	movl	$1, (%esp)
	call	printf
.LVL443:
	.loc 1 694 0
	call	exit
.LVL444:
.L169:
	.loc 1 696 0
	movl	-12(%ebp), %eax
	movl	%eax, (%esp)
	call	close
.LVL445:
	.loc 1 697 0
	movl	$.LC104, (%esp)
	call	unlink
.LVL446:
	.loc 1 698 0
	movl	$.LC113, 4(%esp)
	movl	$1, (%esp)
	call	printf
.LVL447:
	.loc 1 699 0
	leave
.LCFI50:
	.cfi_restore 5
	.cfi_def_cfa 4, 4
.LVL448:
	ret
	.cfi_endproc
.LFE18:
	.size	unlinkread, .-unlinkread
	.section	.rodata
.LC114:
	.string	"linktest\n"
.LC115:
	.string	"lf1"
.LC116:
	.string	"lf2"
.LC117:
	.string	"create lf1 failed\n"
.LC118:
	.string	"write lf1 failed\n"
.LC119:
	.string	"link lf1 lf2 failed\n"
	.align 4
.LC120:
	.string	"unlinked lf1 but it is still there!\n"
.LC121:
	.string	"open lf2 failed\n"
.LC122:
	.string	"read lf2 failed\n"
.LC123:
	.string	"link lf2 lf2 succeeded! oops\n"
	.align 4
.LC124:
	.string	"link non-existant succeeded! oops\n"
.LC125:
	.string	"."
.LC126:
	.string	"link . lf1 succeeded! oops\n"
.LC127:
	.string	"linktest ok\n"
	.text
	.globl	linktest
	.type	linktest, @function
linktest:
.LFB19:
	.loc 1 703 0
	.cfi_startproc
	pushl	%ebp
.LCFI51:
	.cfi_def_cfa_offset 8
	.cfi_offset 5, -8
	movl	%esp, %ebp
.LCFI52:
	.cfi_def_cfa_register 5
	subl	$40, %esp
	.loc 1 706 0
	movl	$.LC114, 4(%esp)
	movl	$1, (%esp)
	call	printf
.LVL449:
	.loc 1 708 0
	movl	$.LC115, (%esp)
	call	unlink
.LVL450:
	.loc 1 709 0
	movl	$.LC116, (%esp)
	call	unlink
.LVL451:
	.loc 1 711 0
	movl	$514, 4(%esp)
	movl	$.LC115, (%esp)
	call	open
.LVL452:
	movl	%eax, -12(%ebp)
.LVL453:
	.loc 1 712 0
	cmpl	$0, -12(%ebp)
	jns	.L171
	.loc 1 713 0
	movl	$.LC117, 4(%esp)
	movl	$1, (%esp)
	call	printf
.LVL454:
	.loc 1 714 0
	call	exit
.LVL455:
.L171:
	.loc 1 716 0
	movl	$5, 8(%esp)
	movl	$.LC106, 4(%esp)
	movl	-12(%ebp), %eax
.LVL456:
	movl	%eax, (%esp)
	call	write
.LVL457:
	cmpl	$5, %eax
	je	.L172
	.loc 1 717 0
	movl	$.LC118, 4(%esp)
	movl	$1, (%esp)
	call	printf
.LVL458:
	.loc 1 718 0
	call	exit
.LVL459:
.L172:
	.loc 1 720 0
	movl	-12(%ebp), %eax
	movl	%eax, (%esp)
	call	close
.LVL460:
	.loc 1 722 0
	movl	$.LC116, 4(%esp)
	movl	$.LC115, (%esp)
	call	link
.LVL461:
	testl	%eax, %eax
	jns	.L173
	.loc 1 723 0
	movl	$.LC119, 4(%esp)
	movl	$1, (%esp)
	call	printf
.LVL462:
	.loc 1 724 0
	call	exit
.LVL463:
.L173:
	.loc 1 726 0
	movl	$.LC115, (%esp)
	call	unlink
.LVL464:
	.loc 1 728 0
	movl	$0, 4(%esp)
	movl	$.LC115, (%esp)
	call	open
.LVL465:
	testl	%eax, %eax
	js	.L174
	.loc 1 729 0
	movl	$.LC120, 4(%esp)
	movl	$1, (%esp)
	call	printf
.LVL466:
	.loc 1 730 0
	call	exit
.LVL467:
.L174:
	.loc 1 733 0
	movl	$0, 4(%esp)
	movl	$.LC116, (%esp)
	call	open
.LVL468:
	movl	%eax, -12(%ebp)
.LVL469:
	.loc 1 734 0
	cmpl	$0, -12(%ebp)
	jns	.L175
	.loc 1 735 0
	movl	$.LC121, 4(%esp)
	movl	$1, (%esp)
	call	printf
.LVL470:
	.loc 1 736 0
	call	exit
.LVL471:
.L175:
	.loc 1 738 0
	movl	$8192, 8(%esp)
	movl	$buf, 4(%esp)
	movl	-12(%ebp), %eax
.LVL472:
	movl	%eax, (%esp)
	call	read
.LVL473:
	cmpl	$5, %eax
	je	.L176
	.loc 1 739 0
	movl	$.LC122, 4(%esp)
	movl	$1, (%esp)
	call	printf
.LVL474:
	.loc 1 740 0
	call	exit
.LVL475:
.L176:
	.loc 1 742 0
	movl	-12(%ebp), %eax
	movl	%eax, (%esp)
	call	close
.LVL476:
	.loc 1 744 0
	movl	$.LC116, 4(%esp)
	movl	$.LC116, (%esp)
	call	link
.LVL477:
	testl	%eax, %eax
	js	.L177
	.loc 1 745 0
	movl	$.LC123, 4(%esp)
	movl	$1, (%esp)
	call	printf
.LVL478:
	.loc 1 746 0
	call	exit
.LVL479:
.L177:
	.loc 1 749 0
	movl	$.LC116, (%esp)
	call	unlink
.LVL480:
	.loc 1 750 0
	movl	$.LC115, 4(%esp)
	movl	$.LC116, (%esp)
	call	link
.LVL481:
	testl	%eax, %eax
	js	.L178
	.loc 1 751 0
	movl	$.LC124, 4(%esp)
	movl	$1, (%esp)
	call	printf
.LVL482:
	.loc 1 752 0
	call	exit
.LVL483:
.L178:
	.loc 1 755 0
	movl	$.LC115, 4(%esp)
	movl	$.LC125, (%esp)
	call	link
.LVL484:
	testl	%eax, %eax
	js	.L179
	.loc 1 756 0
	movl	$.LC126, 4(%esp)
	movl	$1, (%esp)
	call	printf
.LVL485:
	.loc 1 757 0
	call	exit
.LVL486:
.L179:
	.loc 1 760 0
	movl	$.LC127, 4(%esp)
	movl	$1, (%esp)
	call	printf
.LVL487:
	.loc 1 761 0
	leave
.LCFI53:
	.cfi_restore 5
	.cfi_def_cfa 4, 4
.LVL488:
	ret
	.cfi_endproc
.LFE19:
	.size	linktest, .-linktest
	.section	.rodata
.LC128:
	.string	"concreate test\n"
.LC129:
	.string	"C0"
.LC130:
	.string	"concreate create %s failed\n"
.LC131:
	.string	"concreate weird file %s\n"
.LC132:
	.string	"concreate duplicate file %s\n"
	.align 4
.LC133:
	.string	"concreate not enough files in directory listing\n"
.LC134:
	.string	"concreate ok\n"
	.text
	.globl	concreate
	.type	concreate, @function
concreate:
.LFB20:
	.loc 1 766 0
	.cfi_startproc
	pushl	%ebp
.LCFI54:
	.cfi_def_cfa_offset 8
	.cfi_offset 5, -8
	movl	%esp, %ebp
.LCFI55:
	.cfi_def_cfa_register 5
	subl	$104, %esp
	.loc 1 775 0
	movl	$.LC128, 4(%esp)
	movl	$1, (%esp)
	call	printf
.LVL489:
	.loc 1 776 0
	movb	$67, -27(%ebp)
	.loc 1 777 0
	movb	$0, -25(%ebp)
	.loc 1 778 0
	movl	$0, -12(%ebp)
.LVL490:
	jmp	.L181
.L187:
	.loc 1 779 0
	movl	-12(%ebp), %eax
	addl	$48, %eax
	movb	%al, -26(%ebp)
	.loc 1 780 0
	leal	-27(%ebp), %eax
	movl	%eax, (%esp)
	call	unlink
.LVL491:
	.loc 1 781 0
	call	fork
.LVL492:
	movl	%eax, -20(%ebp)
.LVL493:
	.loc 1 782 0
	cmpl	$0, -20(%ebp)
	je	.L182
	.loc 1 782 0 is_stmt 0 discriminator 1
	movl	-12(%ebp), %ecx
	movl	$1431655766, %edx
	movl	%ecx, %eax
.LVL494:
	imull	%edx
	movl	%ecx, %eax
	sarl	$31, %eax
	subl	%eax, %edx
	movl	%edx, %eax
	addl	%eax, %eax
	addl	%edx, %eax
	subl	%eax, %ecx
	movl	%ecx, %edx
	cmpl	$1, %edx
	jne	.L182
	.loc 1 783 0 is_stmt 1
	leal	-27(%ebp), %eax
	movl	%eax, 4(%esp)
	movl	$.LC129, (%esp)
	call	link
.LVL495:
	jmp	.L183
.L182:
	.loc 1 784 0
	cmpl	$0, -20(%ebp)
	jne	.L184
	.loc 1 784 0 is_stmt 0 discriminator 1
	movl	-12(%ebp), %ecx
	movl	$1717986919, %edx
	movl	%ecx, %eax
	imull	%edx
	sarl	%edx
	movl	%ecx, %eax
	sarl	$31, %eax
	subl	%eax, %edx
	movl	%edx, %eax
	sall	$2, %eax
	addl	%edx, %eax
	subl	%eax, %ecx
	movl	%ecx, %edx
	cmpl	$1, %edx
	jne	.L184
	.loc 1 785 0 is_stmt 1
	leal	-27(%ebp), %eax
	movl	%eax, 4(%esp)
	movl	$.LC129, (%esp)
	call	link
.LVL496:
	jmp	.L183
.L184:
	.loc 1 787 0
	movl	$514, 4(%esp)
	leal	-27(%ebp), %eax
	movl	%eax, (%esp)
	call	open
.LVL497:
	movl	%eax, -24(%ebp)
.LVL498:
	.loc 1 788 0
	cmpl	$0, -24(%ebp)
	jns	.L185
	.loc 1 789 0
	leal	-27(%ebp), %eax
.LVL499:
	movl	%eax, 8(%esp)
	movl	$.LC130, 4(%esp)
	movl	$1, (%esp)
	call	printf
.LVL500:
	.loc 1 790 0
	call	exit
.LVL501:
.L185:
	.loc 1 792 0
	movl	-24(%ebp), %eax
.LVL502:
	movl	%eax, (%esp)
	call	close
.LVL503:
.L183:
	.loc 1 794 0
	cmpl	$0, -20(%ebp)
	jne	.L186
	.loc 1 795 0
	call	exit
.LVL504:
.L186:
	.loc 1 797 0
	call	wait
.LVL505:
	.loc 1 778 0
	addl	$1, -12(%ebp)
.LVL506:
.L181:
	.loc 1 778 0 is_stmt 0 discriminator 1
	cmpl	$39, -12(%ebp)
	jle	.L187
	.loc 1 800 0 is_stmt 1
	movl	$40, 8(%esp)
	movl	$0, 4(%esp)
	leal	-67(%ebp), %eax
	movl	%eax, (%esp)
	call	memset
.LVL507:
	.loc 1 801 0
	movl	$0, 4(%esp)
	movl	$.LC125, (%esp)
	call	open
.LVL508:
	movl	%eax, -24(%ebp)
.LVL509:
	.loc 1 802 0
	movl	$0, -16(%ebp)
.LVL510:
	.loc 1 803 0
	jmp	.L188
.LVL511:
.L193:
	.loc 1 804 0
	movzwl	-84(%ebp), %eax
	testw	%ax, %ax
	jne	.L189
	.loc 1 805 0
	jmp	.L188
.L189:
	.loc 1 806 0
	movzbl	-82(%ebp), %eax
	cmpb	$67, %al
	jne	.L188
	.loc 1 806 0 is_stmt 0 discriminator 1
	movzbl	-80(%ebp), %eax
	testb	%al, %al
	jne	.L188
	.loc 1 807 0 is_stmt 1
	movzbl	-81(%ebp), %eax
	movsbl	%al, %eax
	subl	$48, %eax
	movl	%eax, -12(%ebp)
.LVL512:
	.loc 1 808 0
	cmpl	$0, -12(%ebp)
	js	.L190
	.loc 1 808 0 is_stmt 0 discriminator 1
	movl	-12(%ebp), %eax
	cmpl	$39, %eax
	jbe	.L191
.L190:
	.loc 1 809 0 is_stmt 1
	leal	-84(%ebp), %eax
.LVL513:
	addl	$2, %eax
	movl	%eax, 8(%esp)
	movl	$.LC131, 4(%esp)
	movl	$1, (%esp)
	call	printf
.LVL514:
	.loc 1 810 0
	call	exit
.LVL515:
.L191:
	.loc 1 812 0
	leal	-67(%ebp), %edx
	movl	-12(%ebp), %eax
.LVL516:
	addl	%edx, %eax
	movzbl	(%eax), %eax
	testb	%al, %al
	je	.L192
	.loc 1 813 0
	leal	-84(%ebp), %eax
	addl	$2, %eax
	movl	%eax, 8(%esp)
	movl	$.LC132, 4(%esp)
	movl	$1, (%esp)
	call	printf
.LVL517:
	.loc 1 814 0
	call	exit
.LVL518:
.L192:
	.loc 1 816 0
	leal	-67(%ebp), %edx
	movl	-12(%ebp), %eax
	addl	%edx, %eax
	movb	$1, (%eax)
	.loc 1 817 0
	addl	$1, -16(%ebp)
.L188:
	.loc 1 803 0 discriminator 1
	movl	$16, 8(%esp)
	leal	-84(%ebp), %eax
	movl	%eax, 4(%esp)
	movl	-24(%ebp), %eax
	movl	%eax, (%esp)
	call	read
.LVL519:
	testl	%eax, %eax
	jg	.L193
	.loc 1 820 0
	movl	-24(%ebp), %eax
	movl	%eax, (%esp)
	call	close
.LVL520:
	.loc 1 822 0
	cmpl	$40, -16(%ebp)
	je	.L194
	.loc 1 823 0
	movl	$.LC133, 4(%esp)
	movl	$1, (%esp)
	call	printf
.LVL521:
	.loc 1 824 0
	call	exit
.LVL522:
.L194:
	.loc 1 827 0
	movl	$0, -12(%ebp)
	jmp	.L195
.L202:
	.loc 1 828 0
	movl	-12(%ebp), %eax
	addl	$48, %eax
	movb	%al, -26(%ebp)
	.loc 1 829 0
	call	fork
.LVL523:
	movl	%eax, -20(%ebp)
.LVL524:
	.loc 1 830 0
	cmpl	$0, -20(%ebp)
	jns	.L196
	.loc 1 831 0
	movl	$.LC14, 4(%esp)
	movl	$1, (%esp)
	call	printf
.LVL525:
	.loc 1 832 0
	call	exit
.LVL526:
.L196:
	.loc 1 834 0
	movl	-12(%ebp), %ecx
	movl	$1431655766, %edx
	movl	%ecx, %eax
.LVL527:
	imull	%edx
	movl	%ecx, %eax
	sarl	$31, %eax
	subl	%eax, %edx
	movl	%edx, %eax
	addl	%eax, %eax
	addl	%edx, %eax
	subl	%eax, %ecx
	movl	%ecx, %edx
	testl	%edx, %edx
	jne	.L197
	.loc 1 834 0 is_stmt 0 discriminator 1
	cmpl	$0, -20(%ebp)
	je	.L198
.L197:
	.loc 1 835 0 is_stmt 1 discriminator 2
	movl	-12(%ebp), %ecx
	movl	$1431655766, %edx
	movl	%ecx, %eax
	imull	%edx
	movl	%ecx, %eax
	sarl	$31, %eax
	subl	%eax, %edx
	movl	%edx, %eax
	addl	%eax, %eax
	addl	%edx, %eax
	subl	%eax, %ecx
	movl	%ecx, %edx
	.loc 1 834 0 discriminator 2
	cmpl	$1, %edx
	jne	.L199
	.loc 1 835 0
	cmpl	$0, -20(%ebp)
	je	.L199
.L198:
	.loc 1 836 0
	movl	$0, 4(%esp)
	leal	-27(%ebp), %eax
	movl	%eax, (%esp)
	call	open
.LVL528:
	movl	%eax, (%esp)
	call	close
.LVL529:
	.loc 1 837 0
	movl	$0, 4(%esp)
	leal	-27(%ebp), %eax
	movl	%eax, (%esp)
	call	open
.LVL530:
	movl	%eax, (%esp)
	call	close
.LVL531:
	.loc 1 838 0
	movl	$0, 4(%esp)
	leal	-27(%ebp), %eax
	movl	%eax, (%esp)
	call	open
.LVL532:
	movl	%eax, (%esp)
	call	close
.LVL533:
	.loc 1 839 0
	movl	$0, 4(%esp)
	leal	-27(%ebp), %eax
	movl	%eax, (%esp)
	call	open
.LVL534:
	movl	%eax, (%esp)
	call	close
.LVL535:
	jmp	.L200
.L199:
	.loc 1 841 0
	leal	-27(%ebp), %eax
	movl	%eax, (%esp)
	call	unlink
.LVL536:
	.loc 1 842 0
	leal	-27(%ebp), %eax
	movl	%eax, (%esp)
	call	unlink
.LVL537:
	.loc 1 843 0
	leal	-27(%ebp), %eax
	movl	%eax, (%esp)
	call	unlink
.LVL538:
	.loc 1 844 0
	leal	-27(%ebp), %eax
	movl	%eax, (%esp)
	call	unlink
.LVL539:
.L200:
	.loc 1 846 0
	cmpl	$0, -20(%ebp)
	jne	.L201
	.loc 1 847 0
	call	exit
.LVL540:
.L201:
	.loc 1 849 0
	call	wait
.LVL541:
	.loc 1 827 0
	addl	$1, -12(%ebp)
.LVL542:
.L195:
	.loc 1 827 0 is_stmt 0 discriminator 1
	cmpl	$39, -12(%ebp)
	jle	.L202
	.loc 1 852 0 is_stmt 1
	movl	$.LC134, 4(%esp)
	movl	$1, (%esp)
	call	printf
.LVL543:
	.loc 1 853 0
	leave
.LCFI56:
	.cfi_restore 5
	.cfi_def_cfa 4, 4
.LVL544:
	ret
	.cfi_endproc
.LFE20:
	.size	concreate, .-concreate
	.section	.rodata
.LC135:
	.string	"linkunlink test\n"
.LC136:
	.string	"cat"
.LC137:
	.string	"linkunlink ok\n"
	.text
	.globl	linkunlink
	.type	linkunlink, @function
linkunlink:
.LFB21:
	.loc 1 859 0
	.cfi_startproc
	pushl	%ebp
.LCFI57:
	.cfi_def_cfa_offset 8
	.cfi_offset 5, -8
	movl	%esp, %ebp
.LCFI58:
	.cfi_def_cfa_register 5
	subl	$40, %esp
	.loc 1 862 0
	movl	$.LC135, 4(%esp)
	movl	$1, (%esp)
	call	printf
.LVL545:
	.loc 1 864 0
	movl	$.LC71, (%esp)
	call	unlink
.LVL546:
	.loc 1 865 0
	call	fork
.LVL547:
	movl	%eax, -20(%ebp)
.LVL548:
	.loc 1 866 0
	cmpl	$0, -20(%ebp)
	jns	.L204
	.loc 1 867 0
	movl	$.LC14, 4(%esp)
	movl	$1, (%esp)
	call	printf
.LVL549:
	.loc 1 868 0
	call	exit
.LVL550:
.L204:
	.loc 1 871 0
	cmpl	$0, -20(%ebp)
	je	.L205
	.loc 1 871 0 is_stmt 0 discriminator 1
	movl	$1, %eax
.LVL551:
	jmp	.L206
.LVL552:
.L205:
	.loc 1 871 0 discriminator 2
	movl	$97, %eax
.LVL553:
.L206:
	.loc 1 871 0 discriminator 3
	movl	%eax, -16(%ebp)
.LVL554:
	.loc 1 872 0 is_stmt 1 discriminator 3
	movl	$0, -12(%ebp)
.LVL555:
	jmp	.L207
.LVL556:
.L211:
	.loc 1 873 0
	movl	-16(%ebp), %eax
	imull	$1103515245, %eax, %eax
	addl	$12345, %eax
	movl	%eax, -16(%ebp)
.LVL557:
	.loc 1 874 0
	movl	-16(%ebp), %ecx
	movl	$-1431655765, %edx
	movl	%ecx, %eax
	mull	%edx
.LVL558:
	shrl	%edx
	movl	%edx, %eax
	addl	%eax, %eax
	addl	%edx, %eax
	subl	%eax, %ecx
.LVL559:
	movl	%ecx, %edx
	testl	%edx, %edx
	jne	.L208
	.loc 1 875 0
	movl	$514, 4(%esp)
	movl	$.LC71, (%esp)
	call	open
.LVL560:
	movl	%eax, (%esp)
	call	close
.LVL561:
	jmp	.L209
.L208:
	.loc 1 876 0
	movl	-16(%ebp), %ecx
	movl	$-1431655765, %edx
	movl	%ecx, %eax
	mull	%edx
	shrl	%edx
	movl	%edx, %eax
	addl	%eax, %eax
	addl	%edx, %eax
	subl	%eax, %ecx
	movl	%ecx, %edx
	cmpl	$1, %edx
	jne	.L210
	.loc 1 877 0
	movl	$.LC71, 4(%esp)
	movl	$.LC136, (%esp)
	call	link
.LVL562:
	jmp	.L209
.L210:
	.loc 1 879 0
	movl	$.LC71, (%esp)
	call	unlink
.LVL563:
.L209:
	.loc 1 872 0
	addl	$1, -12(%ebp)
.L207:
	.loc 1 872 0 is_stmt 0 discriminator 1
	cmpl	$99, -12(%ebp)
	jle	.L211
	.loc 1 883 0 is_stmt 1
	cmpl	$0, -20(%ebp)
	je	.L212
	.loc 1 884 0
	call	wait
.LVL564:
	jmp	.L214
.L212:
	.loc 1 886 0
	call	exit
.LVL565:
.L214:
	.loc 1 888 0
	movl	$.LC137, 4(%esp)
	movl	$1, (%esp)
	call	printf
.LVL566:
	.loc 1 889 0
	leave
.LCFI59:
	.cfi_restore 5
	.cfi_def_cfa 4, 4
.LVL567:
	ret
	.cfi_endproc
.LFE21:
	.size	linkunlink, .-linkunlink
	.section	.rodata
.LC138:
	.string	"bigdir test\n"
.LC139:
	.string	"bd"
.LC140:
	.string	"bigdir create failed\n"
.LC141:
	.string	"bigdir link failed\n"
.LC142:
	.string	"bigdir unlink failed"
.LC143:
	.string	"bigdir ok\n"
	.text
	.globl	bigdir
	.type	bigdir, @function
bigdir:
.LFB22:
	.loc 1 894 0
	.cfi_startproc
	pushl	%ebp
.LCFI60:
	.cfi_def_cfa_offset 8
	.cfi_offset 5, -8
	movl	%esp, %ebp
.LCFI61:
	.cfi_def_cfa_register 5
	subl	$56, %esp
	.loc 1 898 0
	movl	$.LC138, 4(%esp)
	movl	$1, (%esp)
	call	printf
.LVL568:
	.loc 1 899 0
	movl	$.LC139, (%esp)
	call	unlink
.LVL569:
	.loc 1 901 0
	movl	$512, 4(%esp)
	movl	$.LC139, (%esp)
	call	open
.LVL570:
	movl	%eax, -16(%ebp)
.LVL571:
	.loc 1 902 0
	cmpl	$0, -16(%ebp)
	jns	.L216
	.loc 1 903 0
	movl	$.LC140, 4(%esp)
	movl	$1, (%esp)
	call	printf
.LVL572:
	.loc 1 904 0
	call	exit
.LVL573:
.L216:
	.loc 1 906 0
	movl	-16(%ebp), %eax
.LVL574:
	movl	%eax, (%esp)
	call	close
.LVL575:
	.loc 1 908 0
	movl	$0, -12(%ebp)
.LVL576:
	jmp	.L217
.L219:
	.loc 1 909 0
	movb	$120, -26(%ebp)
	.loc 1 910 0
	movl	-12(%ebp), %eax
	leal	63(%eax), %edx
	testl	%eax, %eax
	cmovs	%edx, %eax
	sarl	$6, %eax
	addl	$48, %eax
	movb	%al, -25(%ebp)
	.loc 1 911 0
	movl	-12(%ebp), %eax
	cltd
	shrl	$26, %edx
	addl	%edx, %eax
	andl	$63, %eax
	subl	%edx, %eax
	addl	$48, %eax
	movb	%al, -24(%ebp)
	.loc 1 912 0
	movb	$0, -23(%ebp)
	.loc 1 913 0
	leal	-26(%ebp), %eax
	movl	%eax, 4(%esp)
	movl	$.LC139, (%esp)
	call	link
.LVL577:
	testl	%eax, %eax
	je	.L218
	.loc 1 914 0
	movl	$.LC141, 4(%esp)
	movl	$1, (%esp)
	call	printf
.LVL578:
	.loc 1 915 0
	call	exit
.LVL579:
.L218:
	.loc 1 908 0
	addl	$1, -12(%ebp)
.L217:
	.loc 1 908 0 is_stmt 0 discriminator 1
	cmpl	$499, -12(%ebp)
	jle	.L219
	.loc 1 919 0 is_stmt 1
	movl	$.LC139, (%esp)
	call	unlink
.LVL580:
	.loc 1 920 0
	movl	$0, -12(%ebp)
	jmp	.L220
.L222:
	.loc 1 921 0
	movb	$120, -26(%ebp)
	.loc 1 922 0
	movl	-12(%ebp), %eax
	leal	63(%eax), %edx
	testl	%eax, %eax
	cmovs	%edx, %eax
	sarl	$6, %eax
	addl	$48, %eax
	movb	%al, -25(%ebp)
	.loc 1 923 0
	movl	-12(%ebp), %eax
	cltd
	shrl	$26, %edx
	addl	%edx, %eax
	andl	$63, %eax
	subl	%edx, %eax
	addl	$48, %eax
	movb	%al, -24(%ebp)
	.loc 1 924 0
	movb	$0, -23(%ebp)
	.loc 1 925 0
	leal	-26(%ebp), %eax
	movl	%eax, (%esp)
	call	unlink
.LVL581:
	testl	%eax, %eax
	je	.L221
	.loc 1 926 0
	movl	$.LC142, 4(%esp)
	movl	$1, (%esp)
	call	printf
.LVL582:
	.loc 1 927 0
	call	exit
.LVL583:
.L221:
	.loc 1 920 0
	addl	$1, -12(%ebp)
.L220:
	.loc 1 920 0 is_stmt 0 discriminator 1
	cmpl	$499, -12(%ebp)
	jle	.L222
	.loc 1 931 0 is_stmt 1
	movl	$.LC143, 4(%esp)
	movl	$1, (%esp)
	call	printf
.LVL584:
	.loc 1 932 0
	leave
.LCFI62:
	.cfi_restore 5
	.cfi_def_cfa 4, 4
.LVL585:
	ret
	.cfi_endproc
.LFE22:
	.size	bigdir, .-bigdir
	.section	.rodata
.LC144:
	.string	"subdir test\n"
.LC145:
	.string	"ff"
.LC146:
	.string	"dd"
.LC147:
	.string	"subdir mkdir dd failed\n"
.LC148:
	.string	"dd/ff"
.LC149:
	.string	"create dd/ff failed\n"
	.align 4
.LC150:
	.string	"unlink dd (non-empty dir) succeeded!\n"
.LC151:
	.string	"/dd/dd"
.LC152:
	.string	"subdir mkdir dd/dd failed\n"
.LC153:
	.string	"dd/dd/ff"
.LC154:
	.string	"create dd/dd/ff failed\n"
.LC155:
	.string	"FF"
.LC156:
	.string	"dd/dd/../ff"
.LC157:
	.string	"open dd/dd/../ff failed\n"
.LC158:
	.string	"dd/dd/../ff wrong content\n"
.LC159:
	.string	"dd/dd/ffff"
	.align 4
.LC160:
	.string	"link dd/dd/ff dd/dd/ffff failed\n"
.LC161:
	.string	"unlink dd/dd/ff failed\n"
	.align 4
.LC162:
	.string	"open (unlinked) dd/dd/ff succeeded\n"
.LC163:
	.string	"chdir dd failed\n"
.LC164:
	.string	"dd/../../dd"
.LC165:
	.string	"chdir dd/../../dd failed\n"
.LC166:
	.string	"dd/../../../dd"
.LC167:
	.string	"./.."
.LC168:
	.string	"chdir ./.. failed\n"
.LC169:
	.string	"open dd/dd/ffff failed\n"
.LC170:
	.string	"read dd/dd/ffff wrong len\n"
	.align 4
.LC171:
	.string	"open (unlinked) dd/dd/ff succeeded!\n"
.LC172:
	.string	"dd/ff/ff"
.LC173:
	.string	"create dd/ff/ff succeeded!\n"
.LC174:
	.string	"dd/xx/ff"
.LC175:
	.string	"create dd/xx/ff succeeded!\n"
.LC176:
	.string	"create dd succeeded!\n"
.LC177:
	.string	"open dd rdwr succeeded!\n"
.LC178:
	.string	"open dd wronly succeeded!\n"
.LC179:
	.string	"dd/dd/xx"
	.align 4
.LC180:
	.string	"link dd/ff/ff dd/dd/xx succeeded!\n"
	.align 4
.LC181:
	.string	"link dd/xx/ff dd/dd/xx succeeded!\n"
	.align 4
.LC182:
	.string	"link dd/ff dd/dd/ffff succeeded!\n"
.LC183:
	.string	"mkdir dd/ff/ff succeeded!\n"
.LC184:
	.string	"mkdir dd/xx/ff succeeded!\n"
.LC185:
	.string	"mkdir dd/dd/ffff succeeded!\n"
.LC186:
	.string	"unlink dd/xx/ff succeeded!\n"
.LC187:
	.string	"unlink dd/ff/ff succeeded!\n"
.LC188:
	.string	"chdir dd/ff succeeded!\n"
.LC189:
	.string	"dd/xx"
.LC190:
	.string	"chdir dd/xx succeeded!\n"
.LC191:
	.string	"unlink dd/ff failed\n"
	.align 4
.LC192:
	.string	"unlink non-empty dd succeeded!\n"
.LC193:
	.string	"dd/dd"
.LC194:
	.string	"unlink dd/dd failed\n"
.LC195:
	.string	"unlink dd failed\n"
.LC196:
	.string	"subdir ok\n"
	.text
	.globl	subdir
	.type	subdir, @function
subdir:
.LFB23:
	.loc 1 936 0
	.cfi_startproc
	pushl	%ebp
.LCFI63:
	.cfi_def_cfa_offset 8
	.cfi_offset 5, -8
	movl	%esp, %ebp
.LCFI64:
	.cfi_def_cfa_register 5
	subl	$40, %esp
	.loc 1 939 0
	movl	$.LC144, 4(%esp)
	movl	$1, (%esp)
	call	printf
.LVL586:
	.loc 1 941 0
	movl	$.LC145, (%esp)
	call	unlink
.LVL587:
	.loc 1 942 0
	movl	$.LC146, (%esp)
	call	mkdir
.LVL588:
	testl	%eax, %eax
	je	.L224
	.loc 1 943 0
	movl	$.LC147, 4(%esp)
	movl	$1, (%esp)
	call	printf
.LVL589:
	.loc 1 944 0
	call	exit
.LVL590:
.L224:
	.loc 1 947 0
	movl	$514, 4(%esp)
	movl	$.LC148, (%esp)
	call	open
.LVL591:
	movl	%eax, -12(%ebp)
.LVL592:
	.loc 1 948 0
	cmpl	$0, -12(%ebp)
	jns	.L225
	.loc 1 949 0
	movl	$.LC149, 4(%esp)
	movl	$1, (%esp)
	call	printf
.LVL593:
	.loc 1 950 0
	call	exit
.LVL594:
.L225:
	.loc 1 952 0
	movl	$2, 8(%esp)
	movl	$.LC145, 4(%esp)
	movl	-12(%ebp), %eax
.LVL595:
	movl	%eax, (%esp)
	call	write
.LVL596:
	.loc 1 953 0
	movl	-12(%ebp), %eax
	movl	%eax, (%esp)
	call	close
.LVL597:
	.loc 1 955 0
	movl	$.LC146, (%esp)
	call	unlink
.LVL598:
	testl	%eax, %eax
	js	.L226
	.loc 1 956 0
	movl	$.LC150, 4(%esp)
	movl	$1, (%esp)
	call	printf
.LVL599:
	.loc 1 957 0
	call	exit
.LVL600:
.L226:
	.loc 1 960 0
	movl	$.LC151, (%esp)
	call	mkdir
.LVL601:
	testl	%eax, %eax
	je	.L227
	.loc 1 961 0
	movl	$.LC152, 4(%esp)
	movl	$1, (%esp)
	call	printf
.LVL602:
	.loc 1 962 0
	call	exit
.LVL603:
.L227:
	.loc 1 965 0
	movl	$514, 4(%esp)
	movl	$.LC153, (%esp)
	call	open
.LVL604:
	movl	%eax, -12(%ebp)
.LVL605:
	.loc 1 966 0
	cmpl	$0, -12(%ebp)
	jns	.L228
	.loc 1 967 0
	movl	$.LC154, 4(%esp)
	movl	$1, (%esp)
	call	printf
.LVL606:
	.loc 1 968 0
	call	exit
.LVL607:
.L228:
	.loc 1 970 0
	movl	$2, 8(%esp)
	movl	$.LC155, 4(%esp)
	movl	-12(%ebp), %eax
.LVL608:
	movl	%eax, (%esp)
	call	write
.LVL609:
	.loc 1 971 0
	movl	-12(%ebp), %eax
	movl	%eax, (%esp)
	call	close
.LVL610:
	.loc 1 973 0
	movl	$0, 4(%esp)
	movl	$.LC156, (%esp)
	call	open
.LVL611:
	movl	%eax, -12(%ebp)
.LVL612:
	.loc 1 974 0
	cmpl	$0, -12(%ebp)
	jns	.L229
	.loc 1 975 0
	movl	$.LC157, 4(%esp)
	movl	$1, (%esp)
	call	printf
.LVL613:
	.loc 1 976 0
	call	exit
.LVL614:
.L229:
	.loc 1 978 0
	movl	$8192, 8(%esp)
	movl	$buf, 4(%esp)
	movl	-12(%ebp), %eax
.LVL615:
	movl	%eax, (%esp)
	call	read
.LVL616:
	movl	%eax, -16(%ebp)
.LVL617:
	.loc 1 979 0
	cmpl	$2, -16(%ebp)
	jne	.L230
	.loc 1 979 0 is_stmt 0 discriminator 1
	movzbl	buf, %eax
.LVL618:
	cmpb	$102, %al
	je	.L231
.L230:
	.loc 1 980 0 is_stmt 1
	movl	$.LC158, 4(%esp)
	movl	$1, (%esp)
	call	printf
.LVL619:
	.loc 1 981 0
	call	exit
.LVL620:
.L231:
	.loc 1 983 0
	movl	-12(%ebp), %eax
	movl	%eax, (%esp)
	call	close
.LVL621:
	.loc 1 985 0
	movl	$.LC159, 4(%esp)
	movl	$.LC153, (%esp)
	call	link
.LVL622:
	testl	%eax, %eax
	je	.L232
	.loc 1 986 0
	movl	$.LC160, 4(%esp)
	movl	$1, (%esp)
	call	printf
.LVL623:
	.loc 1 987 0
	call	exit
.LVL624:
.L232:
	.loc 1 990 0
	movl	$.LC153, (%esp)
	call	unlink
.LVL625:
	testl	%eax, %eax
	je	.L233
	.loc 1 991 0
	movl	$.LC161, 4(%esp)
	movl	$1, (%esp)
	call	printf
.LVL626:
	.loc 1 992 0
	call	exit
.LVL627:
.L233:
	.loc 1 994 0
	movl	$0, 4(%esp)
	movl	$.LC153, (%esp)
	call	open
.LVL628:
	testl	%eax, %eax
	js	.L234
	.loc 1 995 0
	movl	$.LC162, 4(%esp)
	movl	$1, (%esp)
	call	printf
.LVL629:
	.loc 1 996 0
	call	exit
.LVL630:
.L234:
	.loc 1 999 0
	movl	$.LC146, (%esp)
	call	chdir
.LVL631:
	testl	%eax, %eax
	je	.L235
	.loc 1 1000 0
	movl	$.LC163, 4(%esp)
	movl	$1, (%esp)
	call	printf
.LVL632:
	.loc 1 1001 0
	call	exit
.LVL633:
.L235:
	.loc 1 1003 0
	movl	$.LC164, (%esp)
	call	chdir
.LVL634:
	testl	%eax, %eax
	je	.L236
	.loc 1 1004 0
	movl	$.LC165, 4(%esp)
	movl	$1, (%esp)
	call	printf
.LVL635:
	.loc 1 1005 0
	call	exit
.LVL636:
.L236:
	.loc 1 1007 0
	movl	$.LC166, (%esp)
	call	chdir
.LVL637:
	testl	%eax, %eax
	je	.L237
	.loc 1 1008 0
	movl	$.LC165, 4(%esp)
	movl	$1, (%esp)
	call	printf
.LVL638:
	.loc 1 1009 0
	call	exit
.LVL639:
.L237:
	.loc 1 1011 0
	movl	$.LC167, (%esp)
	call	chdir
.LVL640:
	testl	%eax, %eax
	je	.L238
	.loc 1 1012 0
	movl	$.LC168, 4(%esp)
	movl	$1, (%esp)
	call	printf
.LVL641:
	.loc 1 1013 0
	call	exit
.LVL642:
.L238:
	.loc 1 1016 0
	movl	$0, 4(%esp)
	movl	$.LC159, (%esp)
	call	open
.LVL643:
	movl	%eax, -12(%ebp)
.LVL644:
	.loc 1 1017 0
	cmpl	$0, -12(%ebp)
	jns	.L239
	.loc 1 1018 0
	movl	$.LC169, 4(%esp)
	movl	$1, (%esp)
	call	printf
.LVL645:
	.loc 1 1019 0
	call	exit
.LVL646:
.L239:
	.loc 1 1021 0
	movl	$8192, 8(%esp)
	movl	$buf, 4(%esp)
	movl	-12(%ebp), %eax
.LVL647:
	movl	%eax, (%esp)
	call	read
.LVL648:
	cmpl	$2, %eax
	je	.L240
	.loc 1 1022 0
	movl	$.LC170, 4(%esp)
	movl	$1, (%esp)
	call	printf
.LVL649:
	.loc 1 1023 0
	call	exit
.LVL650:
.L240:
	.loc 1 1025 0
	movl	-12(%ebp), %eax
	movl	%eax, (%esp)
	call	close
.LVL651:
	.loc 1 1027 0
	movl	$0, 4(%esp)
	movl	$.LC153, (%esp)
	call	open
.LVL652:
	testl	%eax, %eax
	js	.L241
	.loc 1 1028 0
	movl	$.LC171, 4(%esp)
	movl	$1, (%esp)
	call	printf
.LVL653:
	.loc 1 1029 0
	call	exit
.LVL654:
.L241:
	.loc 1 1032 0
	movl	$514, 4(%esp)
	movl	$.LC172, (%esp)
	call	open
.LVL655:
	testl	%eax, %eax
	js	.L242
	.loc 1 1033 0
	movl	$.LC173, 4(%esp)
	movl	$1, (%esp)
	call	printf
.LVL656:
	.loc 1 1034 0
	call	exit
.LVL657:
.L242:
	.loc 1 1036 0
	movl	$514, 4(%esp)
	movl	$.LC174, (%esp)
	call	open
.LVL658:
	testl	%eax, %eax
	js	.L243
	.loc 1 1037 0
	movl	$.LC175, 4(%esp)
	movl	$1, (%esp)
	call	printf
.LVL659:
	.loc 1 1038 0
	call	exit
.LVL660:
.L243:
	.loc 1 1040 0
	movl	$512, 4(%esp)
	movl	$.LC146, (%esp)
	call	open
.LVL661:
	testl	%eax, %eax
	js	.L244
	.loc 1 1041 0
	movl	$.LC176, 4(%esp)
	movl	$1, (%esp)
	call	printf
.LVL662:
	.loc 1 1042 0
	call	exit
.LVL663:
.L244:
	.loc 1 1044 0
	movl	$2, 4(%esp)
	movl	$.LC146, (%esp)
	call	open
.LVL664:
	testl	%eax, %eax
	js	.L245
	.loc 1 1045 0
	movl	$.LC177, 4(%esp)
	movl	$1, (%esp)
	call	printf
.LVL665:
	.loc 1 1046 0
	call	exit
.LVL666:
.L245:
	.loc 1 1048 0
	movl	$1, 4(%esp)
	movl	$.LC146, (%esp)
	call	open
.LVL667:
	testl	%eax, %eax
	js	.L246
	.loc 1 1049 0
	movl	$.LC178, 4(%esp)
	movl	$1, (%esp)
	call	printf
.LVL668:
	.loc 1 1050 0
	call	exit
.LVL669:
.L246:
	.loc 1 1052 0
	movl	$.LC179, 4(%esp)
	movl	$.LC172, (%esp)
	call	link
.LVL670:
	testl	%eax, %eax
	jne	.L247
	.loc 1 1053 0
	movl	$.LC180, 4(%esp)
	movl	$1, (%esp)
	call	printf
.LVL671:
	.loc 1 1054 0
	call	exit
.LVL672:
.L247:
	.loc 1 1056 0
	movl	$.LC179, 4(%esp)
	movl	$.LC174, (%esp)
	call	link
.LVL673:
	testl	%eax, %eax
	jne	.L248
	.loc 1 1057 0
	movl	$.LC181, 4(%esp)
	movl	$1, (%esp)
	call	printf
.LVL674:
	.loc 1 1058 0
	call	exit
.LVL675:
.L248:
	.loc 1 1060 0
	movl	$.LC159, 4(%esp)
	movl	$.LC148, (%esp)
	call	link
.LVL676:
	testl	%eax, %eax
	jne	.L249
	.loc 1 1061 0
	movl	$.LC182, 4(%esp)
	movl	$1, (%esp)
	call	printf
.LVL677:
	.loc 1 1062 0
	call	exit
.LVL678:
.L249:
	.loc 1 1064 0
	movl	$.LC172, (%esp)
	call	mkdir
.LVL679:
	testl	%eax, %eax
	jne	.L250
	.loc 1 1065 0
	movl	$.LC183, 4(%esp)
	movl	$1, (%esp)
	call	printf
.LVL680:
	.loc 1 1066 0
	call	exit
.LVL681:
.L250:
	.loc 1 1068 0
	movl	$.LC174, (%esp)
	call	mkdir
.LVL682:
	testl	%eax, %eax
	jne	.L251
	.loc 1 1069 0
	movl	$.LC184, 4(%esp)
	movl	$1, (%esp)
	call	printf
.LVL683:
	.loc 1 1070 0
	call	exit
.LVL684:
.L251:
	.loc 1 1072 0
	movl	$.LC159, (%esp)
	call	mkdir
.LVL685:
	testl	%eax, %eax
	jne	.L252
	.loc 1 1073 0
	movl	$.LC185, 4(%esp)
	movl	$1, (%esp)
	call	printf
.LVL686:
	.loc 1 1074 0
	call	exit
.LVL687:
.L252:
	.loc 1 1076 0
	movl	$.LC174, (%esp)
	call	unlink
.LVL688:
	testl	%eax, %eax
	jne	.L253
	.loc 1 1077 0
	movl	$.LC186, 4(%esp)
	movl	$1, (%esp)
	call	printf
.LVL689:
	.loc 1 1078 0
	call	exit
.LVL690:
.L253:
	.loc 1 1080 0
	movl	$.LC172, (%esp)
	call	unlink
.LVL691:
	testl	%eax, %eax
	jne	.L254
	.loc 1 1081 0
	movl	$.LC187, 4(%esp)
	movl	$1, (%esp)
	call	printf
.LVL692:
	.loc 1 1082 0
	call	exit
.LVL693:
.L254:
	.loc 1 1084 0
	movl	$.LC148, (%esp)
	call	chdir
.LVL694:
	testl	%eax, %eax
	jne	.L255
	.loc 1 1085 0
	movl	$.LC188, 4(%esp)
	movl	$1, (%esp)
	call	printf
.LVL695:
	.loc 1 1086 0
	call	exit
.LVL696:
.L255:
	.loc 1 1088 0
	movl	$.LC189, (%esp)
	call	chdir
.LVL697:
	testl	%eax, %eax
	jne	.L256
	.loc 1 1089 0
	movl	$.LC190, 4(%esp)
	movl	$1, (%esp)
	call	printf
.LVL698:
	.loc 1 1090 0
	call	exit
.LVL699:
.L256:
	.loc 1 1093 0
	movl	$.LC159, (%esp)
	call	unlink
.LVL700:
	testl	%eax, %eax
	je	.L257
	.loc 1 1094 0
	movl	$.LC161, 4(%esp)
	movl	$1, (%esp)
	call	printf
.LVL701:
	.loc 1 1095 0
	call	exit
.LVL702:
.L257:
	.loc 1 1097 0
	movl	$.LC148, (%esp)
	call	unlink
.LVL703:
	testl	%eax, %eax
	je	.L258
	.loc 1 1098 0
	movl	$.LC191, 4(%esp)
	movl	$1, (%esp)
	call	printf
.LVL704:
	.loc 1 1099 0
	call	exit
.LVL705:
.L258:
	.loc 1 1101 0
	movl	$.LC146, (%esp)
	call	unlink
.LVL706:
	testl	%eax, %eax
	jne	.L259
	.loc 1 1102 0
	movl	$.LC192, 4(%esp)
	movl	$1, (%esp)
	call	printf
.LVL707:
	.loc 1 1103 0
	call	exit
.LVL708:
.L259:
	.loc 1 1105 0
	movl	$.LC193, (%esp)
	call	unlink
.LVL709:
	testl	%eax, %eax
	jns	.L260
	.loc 1 1106 0
	movl	$.LC194, 4(%esp)
	movl	$1, (%esp)
	call	printf
.LVL710:
	.loc 1 1107 0
	call	exit
.LVL711:
.L260:
	.loc 1 1109 0
	movl	$.LC146, (%esp)
	call	unlink
.LVL712:
	testl	%eax, %eax
	jns	.L261
	.loc 1 1110 0
	movl	$.LC195, 4(%esp)
	movl	$1, (%esp)
	call	printf
.LVL713:
	.loc 1 1111 0
	call	exit
.LVL714:
.L261:
	.loc 1 1114 0
	movl	$.LC196, 4(%esp)
	movl	$1, (%esp)
	call	printf
.LVL715:
	.loc 1 1115 0
	leave
.LCFI65:
	.cfi_restore 5
	.cfi_def_cfa 4, 4
.LVL716:
	ret
	.cfi_endproc
.LFE23:
	.size	subdir, .-subdir
	.section	.rodata
.LC197:
	.string	"bigwrite test\n"
.LC198:
	.string	"bigwrite"
.LC199:
	.string	"cannot create bigwrite\n"
.LC200:
	.string	"write(%d) ret %d\n"
.LC201:
	.string	"bigwrite ok\n"
	.text
	.globl	bigwrite
	.type	bigwrite, @function
bigwrite:
.LFB24:
	.loc 1 1120 0
	.cfi_startproc
	pushl	%ebp
.LCFI66:
	.cfi_def_cfa_offset 8
	.cfi_offset 5, -8
	movl	%esp, %ebp
.LCFI67:
	.cfi_def_cfa_register 5
	subl	$40, %esp
	.loc 1 1123 0
	movl	$.LC197, 4(%esp)
	movl	$1, (%esp)
	call	printf
.LVL717:
	.loc 1 1125 0
	movl	$.LC198, (%esp)
	call	unlink
.LVL718:
	.loc 1 1126 0
	movl	$499, -12(%ebp)
.LVL719:
	jmp	.L263
.L268:
.LBB3:
	.loc 1 1127 0
	movl	$514, 4(%esp)
	movl	$.LC198, (%esp)
	call	open
.LVL720:
	movl	%eax, -20(%ebp)
.LVL721:
	.loc 1 1128 0
	cmpl	$0, -20(%ebp)
	jns	.L264
	.loc 1 1129 0
	movl	$.LC199, 4(%esp)
	movl	$1, (%esp)
	call	printf
.LVL722:
	.loc 1 1130 0
	call	exit
.LVL723:
.L264:
	.loc 1 1133 0
	movl	$0, -16(%ebp)
.LVL724:
	jmp	.L265
.LVL725:
.L267:
.LBB4:
	.loc 1 1134 0
	movl	-12(%ebp), %eax
	movl	%eax, 8(%esp)
	movl	$buf, 4(%esp)
	movl	-20(%ebp), %eax
	movl	%eax, (%esp)
	call	write
.LVL726:
	movl	%eax, -24(%ebp)
.LVL727:
	.loc 1 1135 0
	movl	-24(%ebp), %eax
	cmpl	-12(%ebp), %eax
	je	.L266
	.loc 1 1136 0
	movl	-24(%ebp), %eax
	movl	%eax, 12(%esp)
	movl	-12(%ebp), %eax
.LVL728:
	movl	%eax, 8(%esp)
	movl	$.LC200, 4(%esp)
	movl	$1, (%esp)
	call	printf
.LVL729:
	.loc 1 1137 0
	call	exit
.LVL730:
.L266:
.LBE4:
	.loc 1 1133 0
	addl	$1, -16(%ebp)
.LVL731:
.L265:
	.loc 1 1133 0 is_stmt 0 discriminator 1
	cmpl	$1, -16(%ebp)
	jle	.L267
	.loc 1 1140 0 is_stmt 1
	movl	-20(%ebp), %eax
	movl	%eax, (%esp)
	call	close
.LVL732:
	.loc 1 1141 0
	movl	$.LC198, (%esp)
	call	unlink
.LVL733:
.LBE3:
	.loc 1 1126 0
	addl	$471, -12(%ebp)
.LVL734:
.L263:
	.loc 1 1126 0 is_stmt 0 discriminator 1
	cmpl	$6143, -12(%ebp)
	jle	.L268
	.loc 1 1144 0 is_stmt 1
	movl	$.LC201, 4(%esp)
	movl	$1, (%esp)
	call	printf
.LVL735:
	.loc 1 1145 0
	leave
.LCFI68:
	.cfi_restore 5
	.cfi_def_cfa 4, 4
.LVL736:
	ret
	.cfi_endproc
.LFE24:
	.size	bigwrite, .-bigwrite
	.section	.rodata
.LC202:
	.string	"bigfile test\n"
.LC203:
	.string	"bigfile"
.LC204:
	.string	"cannot create bigfile"
.LC205:
	.string	"write bigfile failed\n"
.LC206:
	.string	"cannot open bigfile\n"
.LC207:
	.string	"read bigfile failed\n"
.LC208:
	.string	"short read bigfile\n"
.LC209:
	.string	"read bigfile wrong data\n"
.LC210:
	.string	"read bigfile wrong total\n"
.LC211:
	.string	"bigfile test ok\n"
	.text
	.globl	bigfile
	.type	bigfile, @function
bigfile:
.LFB25:
	.loc 1 1149 0
	.cfi_startproc
	pushl	%ebp
.LCFI69:
	.cfi_def_cfa_offset 8
	.cfi_offset 5, -8
	movl	%esp, %ebp
.LCFI70:
	.cfi_def_cfa_register 5
	subl	$40, %esp
	.loc 1 1152 0
	movl	$.LC202, 4(%esp)
	movl	$1, (%esp)
	call	printf
.LVL737:
	.loc 1 1154 0
	movl	$.LC203, (%esp)
	call	unlink
.LVL738:
	.loc 1 1155 0
	movl	$514, 4(%esp)
	movl	$.LC203, (%esp)
	call	open
.LVL739:
	movl	%eax, -20(%ebp)
.LVL740:
	.loc 1 1156 0
	cmpl	$0, -20(%ebp)
	jns	.L270
	.loc 1 1157 0
	movl	$.LC204, 4(%esp)
	movl	$1, (%esp)
	call	printf
.LVL741:
	.loc 1 1158 0
	call	exit
.LVL742:
.L270:
	.loc 1 1160 0
	movl	$0, -12(%ebp)
.LVL743:
	jmp	.L271
.LVL744:
.L273:
	.loc 1 1161 0
	movl	$600, 8(%esp)
	movl	-12(%ebp), %eax
	movl	%eax, 4(%esp)
	movl	$buf, (%esp)
	call	memset
.LVL745:
	.loc 1 1162 0
	movl	$600, 8(%esp)
	movl	$buf, 4(%esp)
	movl	-20(%ebp), %eax
	movl	%eax, (%esp)
	call	write
.LVL746:
	cmpl	$600, %eax
	je	.L272
	.loc 1 1163 0
	movl	$.LC205, 4(%esp)
	movl	$1, (%esp)
	call	printf
.LVL747:
	.loc 1 1164 0
	call	exit
.LVL748:
.L272:
	.loc 1 1160 0
	addl	$1, -12(%ebp)
.L271:
	.loc 1 1160 0 is_stmt 0 discriminator 1
	cmpl	$19, -12(%ebp)
	jle	.L273
	.loc 1 1167 0 is_stmt 1
	movl	-20(%ebp), %eax
	movl	%eax, (%esp)
	call	close
.LVL749:
	.loc 1 1169 0
	movl	$0, 4(%esp)
	movl	$.LC203, (%esp)
	call	open
.LVL750:
	movl	%eax, -20(%ebp)
.LVL751:
	.loc 1 1170 0
	cmpl	$0, -20(%ebp)
	jns	.L274
	.loc 1 1171 0
	movl	$.LC206, 4(%esp)
	movl	$1, (%esp)
	call	printf
.LVL752:
	.loc 1 1172 0
	call	exit
.LVL753:
.L274:
	.loc 1 1174 0
	movl	$0, -16(%ebp)
.LVL754:
	.loc 1 1175 0
	movl	$0, -12(%ebp)
.LVL755:
.L281:
	.loc 1 1176 0
	movl	$300, 8(%esp)
	movl	$buf, 4(%esp)
	movl	-20(%ebp), %eax
	movl	%eax, (%esp)
	call	read
.LVL756:
	movl	%eax, -24(%ebp)
.LVL757:
	.loc 1 1177 0
	cmpl	$0, -24(%ebp)
	jns	.L275
	.loc 1 1178 0
	movl	$.LC207, 4(%esp)
	movl	$1, (%esp)
	call	printf
.LVL758:
	.loc 1 1179 0
	call	exit
.LVL759:
.L275:
	.loc 1 1181 0
	cmpl	$0, -24(%ebp)
	jne	.L276
	.loc 1 1182 0
	nop
	.loc 1 1193 0
	movl	-20(%ebp), %eax
.LVL760:
	movl	%eax, (%esp)
	call	close
.LVL761:
	.loc 1 1194 0
	cmpl	$12000, -16(%ebp)
	je	.L282
	jmp	.L283
.LVL762:
.L276:
	.loc 1 1183 0
	cmpl	$300, -24(%ebp)
	je	.L278
	.loc 1 1184 0
	movl	$.LC208, 4(%esp)
	movl	$1, (%esp)
	call	printf
.LVL763:
	.loc 1 1185 0
	call	exit
.LVL764:
.L278:
	.loc 1 1187 0
	movzbl	buf, %eax
.LVL765:
	movsbl	%al, %edx
	movl	-12(%ebp), %eax
	movl	%eax, %ecx
	shrl	$31, %ecx
	addl	%ecx, %eax
	sarl	%eax
	cmpl	%eax, %edx
	jne	.L279
	.loc 1 1187 0 is_stmt 0 discriminator 1
	movzbl	buf+299, %eax
	movsbl	%al, %edx
	movl	-12(%ebp), %eax
	movl	%eax, %ecx
	shrl	$31, %ecx
	addl	%ecx, %eax
	sarl	%eax
	cmpl	%eax, %edx
	je	.L280
.L279:
	.loc 1 1188 0 is_stmt 1
	movl	$.LC209, 4(%esp)
	movl	$1, (%esp)
	call	printf
.LVL766:
	.loc 1 1189 0
	call	exit
.LVL767:
.L280:
	.loc 1 1191 0
	movl	-24(%ebp), %eax
	addl	%eax, -16(%ebp)
	.loc 1 1175 0
	addl	$1, -12(%ebp)
	.loc 1 1192 0
	jmp	.L281
.L283:
	.loc 1 1195 0
	movl	$.LC210, 4(%esp)
	movl	$1, (%esp)
	call	printf
.LVL768:
	.loc 1 1196 0
	call	exit
.LVL769:
.L282:
	.loc 1 1198 0
	movl	$.LC203, (%esp)
	call	unlink
.LVL770:
	.loc 1 1200 0
	movl	$.LC211, 4(%esp)
	movl	$1, (%esp)
	call	printf
.LVL771:
	.loc 1 1201 0
	leave
.LCFI71:
	.cfi_restore 5
	.cfi_def_cfa 4, 4
.LVL772:
	ret
	.cfi_endproc
.LFE25:
	.size	bigfile, .-bigfile
	.section	.rodata
.LC212:
	.string	"fourteen test\n"
.LC213:
	.string	"12345678901234"
.LC214:
	.string	"mkdir 12345678901234 failed\n"
	.align 4
.LC215:
	.string	"12345678901234/123456789012345"
	.align 4
.LC216:
	.string	"mkdir 12345678901234/123456789012345 failed\n"
	.align 4
.LC217:
	.string	"123456789012345/123456789012345/123456789012345"
	.align 4
.LC218:
	.string	"create 123456789012345/123456789012345/123456789012345 failed\n"
	.align 4
.LC219:
	.string	"12345678901234/12345678901234/12345678901234"
	.align 4
.LC220:
	.string	"open 12345678901234/12345678901234/12345678901234 failed\n"
.LC221:
	.string	"12345678901234/12345678901234"
	.align 4
.LC222:
	.string	"mkdir 12345678901234/12345678901234 succeeded!\n"
	.align 4
.LC223:
	.string	"123456789012345/12345678901234"
	.align 4
.LC224:
	.string	"mkdir 12345678901234/123456789012345 succeeded!\n"
.LC225:
	.string	"fourteen ok\n"
	.text
	.globl	fourteen
	.type	fourteen, @function
fourteen:
.LFB26:
	.loc 1 1205 0
	.cfi_startproc
	pushl	%ebp
.LCFI72:
	.cfi_def_cfa_offset 8
	.cfi_offset 5, -8
	movl	%esp, %ebp
.LCFI73:
	.cfi_def_cfa_register 5
	subl	$40, %esp
	.loc 1 1209 0
	movl	$.LC212, 4(%esp)
	movl	$1, (%esp)
	call	printf
.LVL773:
	.loc 1 1211 0
	movl	$.LC213, (%esp)
	call	mkdir
.LVL774:
	testl	%eax, %eax
	je	.L285
	.loc 1 1212 0
	movl	$.LC214, 4(%esp)
	movl	$1, (%esp)
	call	printf
.LVL775:
	.loc 1 1213 0
	call	exit
.LVL776:
.L285:
	.loc 1 1215 0
	movl	$.LC215, (%esp)
	call	mkdir
.LVL777:
	testl	%eax, %eax
	je	.L286
	.loc 1 1216 0
	movl	$.LC216, 4(%esp)
	movl	$1, (%esp)
	call	printf
.LVL778:
	.loc 1 1217 0
	call	exit
.LVL779:
.L286:
	.loc 1 1219 0
	movl	$512, 4(%esp)
	movl	$.LC217, (%esp)
	call	open
.LVL780:
	movl	%eax, -12(%ebp)
.LVL781:
	.loc 1 1220 0
	cmpl	$0, -12(%ebp)
	jns	.L287
	.loc 1 1221 0
	movl	$.LC218, 4(%esp)
	movl	$1, (%esp)
	call	printf
.LVL782:
	.loc 1 1222 0
	call	exit
.LVL783:
.L287:
	.loc 1 1224 0
	movl	-12(%ebp), %eax
.LVL784:
	movl	%eax, (%esp)
	call	close
.LVL785:
	.loc 1 1225 0
	movl	$0, 4(%esp)
	movl	$.LC219, (%esp)
	call	open
.LVL786:
	movl	%eax, -12(%ebp)
.LVL787:
	.loc 1 1226 0
	cmpl	$0, -12(%ebp)
	jns	.L288
	.loc 1 1227 0
	movl	$.LC220, 4(%esp)
	movl	$1, (%esp)
	call	printf
.LVL788:
	.loc 1 1228 0
	call	exit
.LVL789:
.L288:
	.loc 1 1230 0
	movl	-12(%ebp), %eax
.LVL790:
	movl	%eax, (%esp)
	call	close
.LVL791:
	.loc 1 1232 0
	movl	$.LC221, (%esp)
	call	mkdir
.LVL792:
	testl	%eax, %eax
	jne	.L289
	.loc 1 1233 0
	movl	$.LC222, 4(%esp)
	movl	$1, (%esp)
	call	printf
.LVL793:
	.loc 1 1234 0
	call	exit
.LVL794:
.L289:
	.loc 1 1236 0
	movl	$.LC223, (%esp)
	call	mkdir
.LVL795:
	testl	%eax, %eax
	jne	.L290
	.loc 1 1237 0
	movl	$.LC224, 4(%esp)
	movl	$1, (%esp)
	call	printf
.LVL796:
	.loc 1 1238 0
	call	exit
.LVL797:
.L290:
	.loc 1 1241 0
	movl	$.LC225, 4(%esp)
	movl	$1, (%esp)
	call	printf
.LVL798:
	.loc 1 1242 0
	leave
.LCFI74:
	.cfi_restore 5
	.cfi_def_cfa 4, 4
.LVL799:
	ret
	.cfi_endproc
.LFE26:
	.size	fourteen, .-fourteen
	.section	.rodata
.LC226:
	.string	"rmdot test\n"
.LC227:
	.string	"dots"
.LC228:
	.string	"mkdir dots failed\n"
.LC229:
	.string	"chdir dots failed\n"
.LC230:
	.string	"rm . worked!\n"
.LC231:
	.string	"rm .. worked!\n"
.LC232:
	.string	"dots/."
.LC233:
	.string	"unlink dots/. worked!\n"
.LC234:
	.string	"dots/.."
.LC235:
	.string	"unlink dots/.. worked!\n"
.LC236:
	.string	"unlink dots failed!\n"
.LC237:
	.string	"rmdot ok\n"
	.text
	.globl	rmdot
	.type	rmdot, @function
rmdot:
.LFB27:
	.loc 1 1246 0
	.cfi_startproc
	pushl	%ebp
.LCFI75:
	.cfi_def_cfa_offset 8
	.cfi_offset 5, -8
	movl	%esp, %ebp
.LCFI76:
	.cfi_def_cfa_register 5
	subl	$24, %esp
	.loc 1 1247 0
	movl	$.LC226, 4(%esp)
	movl	$1, (%esp)
	call	printf
.LVL800:
	.loc 1 1248 0
	movl	$.LC227, (%esp)
	call	mkdir
.LVL801:
	testl	%eax, %eax
	je	.L292
	.loc 1 1249 0
	movl	$.LC228, 4(%esp)
	movl	$1, (%esp)
	call	printf
.LVL802:
	.loc 1 1250 0
	call	exit
.LVL803:
.L292:
	.loc 1 1252 0
	movl	$.LC227, (%esp)
	call	chdir
.LVL804:
	testl	%eax, %eax
	je	.L293
	.loc 1 1253 0
	movl	$.LC229, 4(%esp)
	movl	$1, (%esp)
	call	printf
.LVL805:
	.loc 1 1254 0
	call	exit
.LVL806:
.L293:
	.loc 1 1256 0
	movl	$.LC125, (%esp)
	call	unlink
.LVL807:
	testl	%eax, %eax
	jne	.L294
	.loc 1 1257 0
	movl	$.LC230, 4(%esp)
	movl	$1, (%esp)
	call	printf
.LVL808:
	.loc 1 1258 0
	call	exit
.LVL809:
.L294:
	.loc 1 1260 0
	movl	$.LC58, (%esp)
	call	unlink
.LVL810:
	testl	%eax, %eax
	jne	.L295
	.loc 1 1261 0
	movl	$.LC231, 4(%esp)
	movl	$1, (%esp)
	call	printf
.LVL811:
	.loc 1 1262 0
	call	exit
.LVL812:
.L295:
	.loc 1 1264 0
	movl	$.LC10, (%esp)
	call	chdir
.LVL813:
	testl	%eax, %eax
	je	.L296
	.loc 1 1265 0
	movl	$.LC11, 4(%esp)
	movl	$1, (%esp)
	call	printf
.LVL814:
	.loc 1 1266 0
	call	exit
.LVL815:
.L296:
	.loc 1 1268 0
	movl	$.LC232, (%esp)
	call	unlink
.LVL816:
	testl	%eax, %eax
	jne	.L297
	.loc 1 1269 0
	movl	$.LC233, 4(%esp)
	movl	$1, (%esp)
	call	printf
.LVL817:
	.loc 1 1270 0
	call	exit
.LVL818:
.L297:
	.loc 1 1272 0
	movl	$.LC234, (%esp)
	call	unlink
.LVL819:
	testl	%eax, %eax
	jne	.L298
	.loc 1 1273 0
	movl	$.LC235, 4(%esp)
	movl	$1, (%esp)
	call	printf
.LVL820:
	.loc 1 1274 0
	call	exit
.LVL821:
.L298:
	.loc 1 1276 0
	movl	$.LC227, (%esp)
	call	unlink
.LVL822:
	testl	%eax, %eax
	je	.L299
	.loc 1 1277 0
	movl	$.LC236, 4(%esp)
	movl	$1, (%esp)
	call	printf
.LVL823:
	.loc 1 1278 0
	call	exit
.LVL824:
.L299:
	.loc 1 1280 0
	movl	$.LC237, 4(%esp)
	movl	$1, (%esp)
	call	printf
.LVL825:
	.loc 1 1281 0
	leave
.LCFI77:
	.cfi_restore 5
	.cfi_def_cfa 4, 4
	ret
	.cfi_endproc
.LFE27:
	.size	rmdot, .-rmdot
	.section	.rodata
.LC238:
	.string	"dir vs file\n"
.LC239:
	.string	"dirfile"
.LC240:
	.string	"create dirfile failed\n"
.LC241:
	.string	"chdir dirfile succeeded!\n"
.LC242:
	.string	"dirfile/xx"
.LC243:
	.string	"create dirfile/xx succeeded!\n"
.LC244:
	.string	"mkdir dirfile/xx succeeded!\n"
.LC245:
	.string	"unlink dirfile/xx succeeded!\n"
.LC246:
	.string	"README"
	.align 4
.LC247:
	.string	"link to dirfile/xx succeeded!\n"
.LC248:
	.string	"unlink dirfile failed!\n"
	.align 4
.LC249:
	.string	"open . for writing succeeded!\n"
.LC250:
	.string	"write . succeeded!\n"
.LC251:
	.string	"dir vs file OK\n"
	.text
	.globl	dirfile
	.type	dirfile, @function
dirfile:
.LFB28:
	.loc 1 1285 0
	.cfi_startproc
	pushl	%ebp
.LCFI78:
	.cfi_def_cfa_offset 8
	.cfi_offset 5, -8
	movl	%esp, %ebp
.LCFI79:
	.cfi_def_cfa_register 5
	subl	$40, %esp
	.loc 1 1288 0
	movl	$.LC238, 4(%esp)
	movl	$1, (%esp)
	call	printf
.LVL826:
	.loc 1 1290 0
	movl	$512, 4(%esp)
	movl	$.LC239, (%esp)
	call	open
.LVL827:
	movl	%eax, -12(%ebp)
.LVL828:
	.loc 1 1291 0
	cmpl	$0, -12(%ebp)
	jns	.L301
	.loc 1 1292 0
	movl	$.LC240, 4(%esp)
	movl	$1, (%esp)
	call	printf
.LVL829:
	.loc 1 1293 0
	call	exit
.LVL830:
.L301:
	.loc 1 1295 0
	movl	-12(%ebp), %eax
.LVL831:
	movl	%eax, (%esp)
	call	close
.LVL832:
	.loc 1 1296 0
	movl	$.LC239, (%esp)
	call	chdir
.LVL833:
	testl	%eax, %eax
	jne	.L302
	.loc 1 1297 0
	movl	$.LC241, 4(%esp)
	movl	$1, (%esp)
	call	printf
.LVL834:
	.loc 1 1298 0
	call	exit
.LVL835:
.L302:
	.loc 1 1300 0
	movl	$0, 4(%esp)
	movl	$.LC242, (%esp)
	call	open
.LVL836:
	movl	%eax, -12(%ebp)
.LVL837:
	.loc 1 1301 0
	cmpl	$0, -12(%ebp)
	js	.L303
	.loc 1 1302 0
	movl	$.LC243, 4(%esp)
	movl	$1, (%esp)
	call	printf
.LVL838:
	.loc 1 1303 0
	call	exit
.LVL839:
.L303:
	.loc 1 1305 0
	movl	$512, 4(%esp)
	movl	$.LC242, (%esp)
	call	open
.LVL840:
	movl	%eax, -12(%ebp)
.LVL841:
	.loc 1 1306 0
	cmpl	$0, -12(%ebp)
	js	.L304
	.loc 1 1307 0
	movl	$.LC243, 4(%esp)
	movl	$1, (%esp)
	call	printf
.LVL842:
	.loc 1 1308 0
	call	exit
.LVL843:
.L304:
	.loc 1 1310 0
	movl	$.LC242, (%esp)
	call	mkdir
.LVL844:
	testl	%eax, %eax
	jne	.L305
	.loc 1 1311 0
	movl	$.LC244, 4(%esp)
	movl	$1, (%esp)
	call	printf
.LVL845:
	.loc 1 1312 0
	call	exit
.LVL846:
.L305:
	.loc 1 1314 0
	movl	$.LC242, (%esp)
	call	unlink
.LVL847:
	testl	%eax, %eax
	jne	.L306
	.loc 1 1315 0
	movl	$.LC245, 4(%esp)
	movl	$1, (%esp)
	call	printf
.LVL848:
	.loc 1 1316 0
	call	exit
.LVL849:
.L306:
	.loc 1 1318 0
	movl	$.LC242, 4(%esp)
	movl	$.LC246, (%esp)
	call	link
.LVL850:
	testl	%eax, %eax
	jne	.L307
	.loc 1 1319 0
	movl	$.LC247, 4(%esp)
	movl	$1, (%esp)
	call	printf
.LVL851:
	.loc 1 1320 0
	call	exit
.LVL852:
.L307:
	.loc 1 1322 0
	movl	$.LC239, (%esp)
	call	unlink
.LVL853:
	testl	%eax, %eax
	je	.L308
	.loc 1 1323 0
	movl	$.LC248, 4(%esp)
	movl	$1, (%esp)
	call	printf
.LVL854:
	.loc 1 1324 0
	call	exit
.LVL855:
.L308:
	.loc 1 1327 0
	movl	$2, 4(%esp)
	movl	$.LC125, (%esp)
	call	open
.LVL856:
	movl	%eax, -12(%ebp)
.LVL857:
	.loc 1 1328 0
	cmpl	$0, -12(%ebp)
	js	.L309
	.loc 1 1329 0
	movl	$.LC249, 4(%esp)
	movl	$1, (%esp)
	call	printf
.LVL858:
	.loc 1 1330 0
	call	exit
.LVL859:
.L309:
	.loc 1 1332 0
	movl	$0, 4(%esp)
	movl	$.LC125, (%esp)
	call	open
.LVL860:
	movl	%eax, -12(%ebp)
.LVL861:
	.loc 1 1333 0
	movl	$1, 8(%esp)
	movl	$.LC71, 4(%esp)
	movl	-12(%ebp), %eax
	movl	%eax, (%esp)
	call	write
.LVL862:
	testl	%eax, %eax
	jle	.L310
	.loc 1 1334 0
	movl	$.LC250, 4(%esp)
	movl	$1, (%esp)
	call	printf
.LVL863:
	.loc 1 1335 0
	call	exit
.LVL864:
.L310:
	.loc 1 1337 0
	movl	-12(%ebp), %eax
	movl	%eax, (%esp)
	call	close
.LVL865:
	.loc 1 1339 0
	movl	$.LC251, 4(%esp)
	movl	$1, (%esp)
	call	printf
.LVL866:
	.loc 1 1340 0
	leave
.LCFI80:
	.cfi_restore 5
	.cfi_def_cfa 4, 4
.LVL867:
	ret
	.cfi_endproc
.LFE28:
	.size	dirfile, .-dirfile
	.section	.rodata
.LC252:
	.string	"empty file name\n"
.LC253:
	.string	"irefd"
.LC254:
	.string	"mkdir irefd failed\n"
.LC255:
	.string	"chdir irefd failed\n"
.LC256:
	.string	""
.LC257:
	.string	"xx"
.LC258:
	.string	"empty file name OK\n"
	.text
	.globl	iref
	.type	iref, @function
iref:
.LFB29:
	.loc 1 1345 0
	.cfi_startproc
	pushl	%ebp
.LCFI81:
	.cfi_def_cfa_offset 8
	.cfi_offset 5, -8
	movl	%esp, %ebp
.LCFI82:
	.cfi_def_cfa_register 5
	subl	$40, %esp
	.loc 1 1348 0
	movl	$.LC252, 4(%esp)
	movl	$1, (%esp)
	call	printf
.LVL868:
	.loc 1 1351 0
	movl	$0, -12(%ebp)
.LVL869:
	jmp	.L312
.L317:
	.loc 1 1352 0
	movl	$.LC253, (%esp)
	call	mkdir
.LVL870:
	testl	%eax, %eax
	je	.L313
	.loc 1 1353 0
	movl	$.LC254, 4(%esp)
	movl	$1, (%esp)
	call	printf
.LVL871:
	.loc 1 1354 0
	call	exit
.LVL872:
.L313:
	.loc 1 1356 0
	movl	$.LC253, (%esp)
	call	chdir
.LVL873:
	testl	%eax, %eax
	je	.L314
	.loc 1 1357 0
	movl	$.LC255, 4(%esp)
	movl	$1, (%esp)
	call	printf
.LVL874:
	.loc 1 1358 0
	call	exit
.LVL875:
.L314:
	.loc 1 1361 0
	movl	$.LC256, (%esp)
	call	mkdir
.LVL876:
	.loc 1 1362 0
	movl	$.LC256, 4(%esp)
	movl	$.LC246, (%esp)
	call	link
.LVL877:
	.loc 1 1363 0
	movl	$512, 4(%esp)
	movl	$.LC256, (%esp)
	call	open
.LVL878:
	movl	%eax, -16(%ebp)
.LVL879:
	.loc 1 1364 0
	cmpl	$0, -16(%ebp)
	js	.L315
	.loc 1 1365 0
	movl	-16(%ebp), %eax
	movl	%eax, (%esp)
	call	close
.LVL880:
.L315:
	.loc 1 1366 0
	movl	$512, 4(%esp)
	movl	$.LC257, (%esp)
	call	open
.LVL881:
	movl	%eax, -16(%ebp)
.LVL882:
	.loc 1 1367 0
	cmpl	$0, -16(%ebp)
	js	.L316
	.loc 1 1368 0
	movl	-16(%ebp), %eax
	movl	%eax, (%esp)
	call	close
.LVL883:
.L316:
	.loc 1 1369 0
	movl	$.LC257, (%esp)
	call	unlink
.LVL884:
	.loc 1 1351 0
	addl	$1, -12(%ebp)
.LVL885:
.L312:
	.loc 1 1351 0 is_stmt 0 discriminator 1
	cmpl	$50, -12(%ebp)
	jle	.L317
	.loc 1 1372 0 is_stmt 1
	movl	$.LC10, (%esp)
	call	chdir
.LVL886:
	.loc 1 1373 0
	movl	$.LC258, 4(%esp)
	movl	$1, (%esp)
	call	printf
.LVL887:
	.loc 1 1374 0
	leave
.LCFI83:
	.cfi_restore 5
	.cfi_def_cfa 4, 4
.LVL888:
	ret
	.cfi_endproc
.LFE29:
	.size	iref, .-iref
	.section	.rodata
.LC259:
	.string	"fork test\n"
	.align 4
.LC260:
	.string	"fork claimed to work 1000 times!\n"
.LC261:
	.string	"wait stopped early\n"
.LC262:
	.string	"wait got too many\n"
.LC263:
	.string	"fork test OK\n"
	.text
	.globl	forktest
	.type	forktest, @function
forktest:
.LFB30:
	.loc 1 1381 0
	.cfi_startproc
	pushl	%ebp
.LCFI84:
	.cfi_def_cfa_offset 8
	.cfi_offset 5, -8
	movl	%esp, %ebp
.LCFI85:
	.cfi_def_cfa_register 5
	subl	$40, %esp
	.loc 1 1384 0
	movl	$.LC259, 4(%esp)
	movl	$1, (%esp)
	call	printf
.LVL889:
	.loc 1 1386 0
	movl	$0, -12(%ebp)
.LVL890:
	jmp	.L319
.L323:
	.loc 1 1387 0
	call	fork
.LVL891:
	movl	%eax, -16(%ebp)
.LVL892:
	.loc 1 1388 0
	cmpl	$0, -16(%ebp)
	jns	.L320
	.loc 1 1389 0
	jmp	.L321
.L320:
	.loc 1 1390 0
	cmpl	$0, -16(%ebp)
	jne	.L322
	.loc 1 1391 0
	call	exit
.LVL893:
.L322:
	.loc 1 1386 0
	addl	$1, -12(%ebp)
.LVL894:
.L319:
	.loc 1 1386 0 is_stmt 0 discriminator 1
	cmpl	$999, -12(%ebp)
	jle	.L323
.L321:
	.loc 1 1394 0 is_stmt 1
	cmpl	$1000, -12(%ebp)
	jne	.L324
	.loc 1 1395 0
	movl	$.LC260, 4(%esp)
	movl	$1, (%esp)
	call	printf
.LVL895:
	.loc 1 1396 0
	call	exit
.LVL896:
.L324:
	.loc 1 1399 0
	jmp	.L325
.L327:
	.loc 1 1400 0
	call	wait
.LVL897:
	testl	%eax, %eax
	jns	.L326
	.loc 1 1401 0
	movl	$.LC261, 4(%esp)
	movl	$1, (%esp)
	call	printf
.LVL898:
	.loc 1 1402 0
	call	exit
.LVL899:
.L326:
	.loc 1 1399 0
	subl	$1, -12(%ebp)
.L325:
	.loc 1 1399 0 is_stmt 0 discriminator 1
	cmpl	$0, -12(%ebp)
	jg	.L327
	.loc 1 1406 0 is_stmt 1
	call	wait
.LVL900:
	cmpl	$-1, %eax
	je	.L328
	.loc 1 1407 0
	movl	$.LC262, 4(%esp)
	movl	$1, (%esp)
	call	printf
.LVL901:
	.loc 1 1408 0
	call	exit
.LVL902:
.L328:
	.loc 1 1411 0
	movl	$.LC263, 4(%esp)
	movl	$1, (%esp)
	call	printf
.LVL903:
	.loc 1 1412 0
	leave
.LCFI86:
	.cfi_restore 5
	.cfi_def_cfa 4, 4
.LVL904:
	ret
	.cfi_endproc
.LFE30:
	.size	forktest, .-forktest
	.section	.rodata
.LC264:
	.string	"sbrk test\n"
.LC265:
	.string	"sbrk test failed %d %x %x\n"
.LC266:
	.string	"sbrk test fork failed\n"
.LC267:
	.string	"sbrk test failed post-fork\n"
	.align 4
.LC268:
	.string	"sbrk test failed to grow big address space; enough phys mem?\n"
.LC269:
	.string	"sbrk could not deallocate\n"
	.align 4
.LC270:
	.string	"sbrk deallocation produced wrong address, a %x c %x\n"
	.align 4
.LC271:
	.string	"sbrk re-allocation failed, a %x c %x\n"
	.align 4
.LC272:
	.string	"sbrk de-allocation didn't really deallocate\n"
	.align 4
.LC273:
	.string	"sbrk downsize failed, a %x c %x\n"
.LC274:
	.string	"oops could read %x = %x\n"
.LC275:
	.string	"failed sbrk leaked memory\n"
.LC276:
	.string	"sbrk test OK\n"
	.text
	.globl	sbrktest
	.type	sbrktest, @function
sbrktest:
.LFB31:
	.loc 1 1416 0
	.cfi_startproc
	pushl	%ebp
.LCFI87:
	.cfi_def_cfa_offset 8
	.cfi_offset 5, -8
	movl	%esp, %ebp
.LCFI88:
	.cfi_def_cfa_register 5
	pushl	%ebx
	subl	$132, %esp
	.cfi_offset 3, -12
	.loc 1 1421 0
	movl	stdout, %eax
	movl	$.LC264, 4(%esp)
	movl	%eax, (%esp)
	call	printf
.LVL905:
	.loc 1 1422 0
	movl	$0, (%esp)
	call	sbrk
.LVL906:
	movl	%eax, -20(%ebp)
.LVL907:
	.loc 1 1425 0
	movl	$0, (%esp)
	call	sbrk
.LVL908:
	movl	%eax, -12(%ebp)
.LVL909:
	.loc 1 1427 0
	movl	$0, -16(%ebp)
.LVL910:
	jmp	.L330
.LVL911:
.L332:
	.loc 1 1428 0
	movl	$1, (%esp)
	call	sbrk
.LVL912:
	movl	%eax, -24(%ebp)
.LVL913:
	.loc 1 1429 0
	movl	-24(%ebp), %eax
	cmpl	-12(%ebp), %eax
	je	.L331
	.loc 1 1430 0
	movl	stdout, %eax
.LVL914:
	movl	-24(%ebp), %edx
	movl	%edx, 16(%esp)
	movl	-12(%ebp), %edx
	movl	%edx, 12(%esp)
	movl	-16(%ebp), %edx
	movl	%edx, 8(%esp)
	movl	$.LC265, 4(%esp)
	movl	%eax, (%esp)
	call	printf
.LVL915:
	.loc 1 1431 0
	call	exit
.LVL916:
.L331:
	.loc 1 1433 0
	movl	-24(%ebp), %eax
.LVL917:
	movb	$1, (%eax)
	.loc 1 1434 0
	movl	-24(%ebp), %eax
	addl	$1, %eax
	movl	%eax, -12(%ebp)
.LVL918:
	.loc 1 1427 0
	addl	$1, -16(%ebp)
.LVL919:
.L330:
	.loc 1 1427 0 is_stmt 0 discriminator 1
	cmpl	$4999, -16(%ebp)
	jle	.L332
	.loc 1 1436 0 is_stmt 1
	call	fork
.LVL920:
	movl	%eax, -28(%ebp)
.LVL921:
	.loc 1 1437 0
	cmpl	$0, -28(%ebp)
	jns	.L333
	.loc 1 1438 0
	movl	stdout, %eax
.LVL922:
	movl	$.LC266, 4(%esp)
	movl	%eax, (%esp)
	call	printf
.LVL923:
	.loc 1 1439 0
	call	exit
.LVL924:
.L333:
	.loc 1 1441 0
	movl	$1, (%esp)
	call	sbrk
.LVL925:
	movl	%eax, -32(%ebp)
.LVL926:
	.loc 1 1442 0
	movl	$1, (%esp)
	call	sbrk
.LVL927:
	movl	%eax, -32(%ebp)
.LVL928:
	.loc 1 1443 0
	movl	-12(%ebp), %eax
.LVL929:
	addl	$1, %eax
	cmpl	-32(%ebp), %eax
	je	.L334
	.loc 1 1444 0
	movl	stdout, %eax
	movl	$.LC267, 4(%esp)
	movl	%eax, (%esp)
	call	printf
.LVL930:
	.loc 1 1445 0
	call	exit
.LVL931:
.L334:
	.loc 1 1447 0
	cmpl	$0, -28(%ebp)
	jne	.L335
	.loc 1 1448 0
	call	exit
.LVL932:
.L335:
	.loc 1 1449 0
	call	wait
.LVL933:
	.loc 1 1453 0
	movl	$0, (%esp)
	call	sbrk
.LVL934:
	movl	%eax, -12(%ebp)
.LVL935:
	.loc 1 1454 0
	movl	-12(%ebp), %eax
	movl	$104857600, %edx
	subl	%eax, %edx
	movl	%edx, %eax
.LVL936:
	movl	%eax, -36(%ebp)
.LVL937:
	.loc 1 1455 0
	movl	-36(%ebp), %eax
	movl	%eax, (%esp)
	call	sbrk
.LVL938:
	movl	%eax, -40(%ebp)
.LVL939:
	.loc 1 1456 0
	movl	-40(%ebp), %eax
	cmpl	-12(%ebp), %eax
	je	.L336
	.loc 1 1457 0
	movl	stdout, %eax
.LVL940:
	movl	$.LC268, 4(%esp)
	movl	%eax, (%esp)
	call	printf
.LVL941:
	.loc 1 1458 0
	call	exit
.LVL942:
.L336:
	.loc 1 1460 0
	movl	$104857599, -44(%ebp)
.LVL943:
	.loc 1 1461 0
	movl	-44(%ebp), %eax
.LVL944:
	movb	$99, (%eax)
	.loc 1 1464 0
	movl	$0, (%esp)
	call	sbrk
.LVL945:
	movl	%eax, -12(%ebp)
.LVL946:
	.loc 1 1465 0
	movl	$-4096, (%esp)
	call	sbrk
.LVL947:
	movl	%eax, -32(%ebp)
.LVL948:
	.loc 1 1466 0
	cmpl	$-1, -32(%ebp)
	jne	.L337
	.loc 1 1467 0
	movl	stdout, %eax
.LVL949:
	movl	$.LC269, 4(%esp)
	movl	%eax, (%esp)
	call	printf
.LVL950:
	.loc 1 1468 0
	call	exit
.LVL951:
.L337:
	.loc 1 1470 0
	movl	$0, (%esp)
	call	sbrk
.LVL952:
	movl	%eax, -32(%ebp)
.LVL953:
	.loc 1 1471 0
	movl	-12(%ebp), %eax
.LVL954:
	subl	$4096, %eax
	cmpl	-32(%ebp), %eax
	je	.L338
	.loc 1 1472 0
	movl	stdout, %eax
	movl	-32(%ebp), %edx
	movl	%edx, 12(%esp)
	movl	-12(%ebp), %edx
	movl	%edx, 8(%esp)
	movl	$.LC270, 4(%esp)
	movl	%eax, (%esp)
	call	printf
.LVL955:
	.loc 1 1473 0
	call	exit
.LVL956:
.L338:
	.loc 1 1477 0
	movl	$0, (%esp)
	call	sbrk
.LVL957:
	movl	%eax, -12(%ebp)
.LVL958:
	.loc 1 1478 0
	movl	$4096, (%esp)
	call	sbrk
.LVL959:
	movl	%eax, -32(%ebp)
.LVL960:
	.loc 1 1479 0
	movl	-32(%ebp), %eax
	cmpl	-12(%ebp), %eax
	jne	.L339
	.loc 1 1479 0 is_stmt 0 discriminator 1
	movl	$0, (%esp)
	call	sbrk
.LVL961:
	movl	-12(%ebp), %edx
	addl	$4096, %edx
	cmpl	%edx, %eax
	je	.L340
.L339:
	.loc 1 1480 0 is_stmt 1
	movl	stdout, %eax
	movl	-32(%ebp), %edx
	movl	%edx, 12(%esp)
	movl	-12(%ebp), %edx
	movl	%edx, 8(%esp)
	movl	$.LC271, 4(%esp)
	movl	%eax, (%esp)
	call	printf
.LVL962:
	.loc 1 1481 0
	call	exit
.LVL963:
.L340:
	.loc 1 1483 0
	movl	-44(%ebp), %eax
	movzbl	(%eax), %eax
	cmpb	$99, %al
	jne	.L341
	.loc 1 1485 0
	movl	stdout, %eax
	movl	$.LC272, 4(%esp)
	movl	%eax, (%esp)
	call	printf
.LVL964:
	.loc 1 1486 0
	call	exit
.LVL965:
.L341:
	.loc 1 1489 0
	movl	$0, (%esp)
	call	sbrk
.LVL966:
	movl	%eax, -12(%ebp)
.LVL967:
	.loc 1 1490 0
	movl	-20(%ebp), %ebx
	movl	$0, (%esp)
	call	sbrk
.LVL968:
	subl	%eax, %ebx
	movl	%ebx, %eax
	movl	%eax, (%esp)
	call	sbrk
.LVL969:
	movl	%eax, -32(%ebp)
.LVL970:
	.loc 1 1491 0
	movl	-32(%ebp), %eax
	cmpl	-12(%ebp), %eax
	je	.L342
	.loc 1 1492 0
	movl	stdout, %eax
.LVL971:
	movl	-32(%ebp), %edx
	movl	%edx, 12(%esp)
	movl	-12(%ebp), %edx
	movl	%edx, 8(%esp)
	movl	$.LC273, 4(%esp)
	movl	%eax, (%esp)
	call	printf
.LVL972:
	.loc 1 1493 0
	call	exit
.LVL973:
.L342:
	.loc 1 1497 0
	movl	$-2147483648, -12(%ebp)
	jmp	.L343
.LVL974:
.L346:
	.loc 1 1498 0
	call	getpid
.LVL975:
	movl	%eax, -48(%ebp)
.LVL976:
	.loc 1 1499 0
	call	fork
.LVL977:
	movl	%eax, -28(%ebp)
.LVL978:
	.loc 1 1500 0
	cmpl	$0, -28(%ebp)
	jns	.L344
	.loc 1 1501 0
	movl	stdout, %eax
.LVL979:
	movl	$.LC14, 4(%esp)
	movl	%eax, (%esp)
	call	printf
.LVL980:
	.loc 1 1502 0
	call	exit
.LVL981:
.L344:
	.loc 1 1504 0
	cmpl	$0, -28(%ebp)
	jne	.L345
	.loc 1 1505 0
	movl	-12(%ebp), %eax
.LVL982:
	movzbl	(%eax), %eax
	movsbl	%al, %edx
	movl	stdout, %eax
	movl	%edx, 12(%esp)
	movl	-12(%ebp), %edx
	movl	%edx, 8(%esp)
	movl	$.LC274, 4(%esp)
	movl	%eax, (%esp)
	call	printf
.LVL983:
	.loc 1 1506 0
	movl	-48(%ebp), %eax
	movl	%eax, (%esp)
	call	kill
.LVL984:
	.loc 1 1507 0
	call	exit
.LVL985:
.L345:
	.loc 1 1509 0
	call	wait
.LVL986:
	.loc 1 1497 0
	addl	$50000, -12(%ebp)
.LVL987:
.L343:
	.loc 1 1497 0 is_stmt 0 discriminator 1
	cmpl	$-2145483649, -12(%ebp)
	jbe	.L346
	.loc 1 1514 0 is_stmt 1
	leal	-56(%ebp), %eax
	movl	%eax, (%esp)
	call	pipe
.LVL988:
	testl	%eax, %eax
	je	.L347
	.loc 1 1515 0
	movl	$.LC64, 4(%esp)
	movl	$1, (%esp)
	call	printf
.LVL989:
	.loc 1 1516 0
	call	exit
.LVL990:
.L347:
	.loc 1 1518 0
	movl	$0, -16(%ebp)
	jmp	.L348
.LVL991:
.L352:
	.loc 1 1519 0
	call	fork
.LVL992:
	movl	-16(%ebp), %edx
	movl	%eax, -96(%ebp,%edx,4)
	movl	-16(%ebp), %eax
	movl	-96(%ebp,%eax,4), %eax
	testl	%eax, %eax
	jne	.L349
	.loc 1 1521 0
	movl	$0, (%esp)
	call	sbrk
.LVL993:
	movl	$104857600, %edx
	subl	%eax, %edx
	movl	%edx, %eax
	movl	%eax, (%esp)
	call	sbrk
.LVL994:
	.loc 1 1522 0
	movl	-52(%ebp), %eax
	movl	$1, 8(%esp)
	movl	$.LC71, 4(%esp)
	movl	%eax, (%esp)
	call	write
.LVL995:
.L350:
	.loc 1 1524 0 discriminator 1
	movl	$1000, (%esp)
	call	sleep
.LVL996:
	jmp	.L350
.L349:
	.loc 1 1526 0
	movl	-16(%ebp), %eax
	movl	-96(%ebp,%eax,4), %eax
	cmpl	$-1, %eax
	je	.L351
	.loc 1 1527 0
	movl	-56(%ebp), %eax
	movl	$1, 8(%esp)
	leal	-97(%ebp), %edx
	movl	%edx, 4(%esp)
	movl	%eax, (%esp)
	call	read
.LVL997:
.L351:
	.loc 1 1518 0
	addl	$1, -16(%ebp)
.L348:
	.loc 1 1518 0 is_stmt 0 discriminator 1
	movl	-16(%ebp), %eax
	cmpl	$9, %eax
	jbe	.L352
	.loc 1 1531 0 is_stmt 1
	movl	$4096, (%esp)
	call	sbrk
.LVL998:
	movl	%eax, -32(%ebp)
.LVL999:
	.loc 1 1532 0
	movl	$0, -16(%ebp)
	jmp	.L353
.LVL1000:
.L356:
	.loc 1 1533 0
	movl	-16(%ebp), %eax
.LVL1001:
	movl	-96(%ebp,%eax,4), %eax
	cmpl	$-1, %eax
	jne	.L354
	.loc 1 1534 0
	jmp	.L355
.L354:
	.loc 1 1535 0
	movl	-16(%ebp), %eax
	movl	-96(%ebp,%eax,4), %eax
	movl	%eax, (%esp)
	call	kill
.LVL1002:
	.loc 1 1536 0
	call	wait
.LVL1003:
.L355:
	.loc 1 1532 0
	addl	$1, -16(%ebp)
.L353:
	.loc 1 1532 0 is_stmt 0 discriminator 1
	movl	-16(%ebp), %eax
	cmpl	$9, %eax
	jbe	.L356
	.loc 1 1538 0 is_stmt 1
	cmpl	$-1, -32(%ebp)
	jne	.L357
	.loc 1 1539 0
	movl	stdout, %eax
	movl	$.LC275, 4(%esp)
	movl	%eax, (%esp)
	call	printf
.LVL1004:
	.loc 1 1540 0
	call	exit
.LVL1005:
.L357:
	.loc 1 1543 0
	movl	$0, (%esp)
	call	sbrk
.LVL1006:
	cmpl	-20(%ebp), %eax
	jbe	.L358
	.loc 1 1544 0
	movl	-20(%ebp), %ebx
	movl	$0, (%esp)
	call	sbrk
.LVL1007:
	subl	%eax, %ebx
	movl	%ebx, %eax
	movl	%eax, (%esp)
	call	sbrk
.LVL1008:
.L358:
	.loc 1 1546 0
	movl	stdout, %eax
	movl	$.LC276, 4(%esp)
	movl	%eax, (%esp)
	call	printf
.LVL1009:
	.loc 1 1547 0
	addl	$132, %esp
	popl	%ebx
	.cfi_restore 3
	popl	%ebp
.LCFI89:
	.cfi_restore 5
	.cfi_def_cfa 4, 4
.LVL1010:
	ret
	.cfi_endproc
.LFE31:
	.size	sbrktest, .-sbrktest
	.globl	validateint
	.type	validateint, @function
validateint:
.LFB32:
	.loc 1 1551 0
	.cfi_startproc
.LVL1011:
	pushl	%ebp
.LCFI90:
	.cfi_def_cfa_offset 8
	.cfi_offset 5, -8
	movl	%esp, %ebp
.LCFI91:
	.cfi_def_cfa_register 5
	pushl	%ebx
	subl	$16, %esp
	.cfi_offset 3, -12
	.loc 1 1553 0
	movl	$13, %eax
	movl	8(%ebp), %edx
	movl	%edx, %ecx
#APP
# 1553 "usertests.c" 1
	mov %esp, %ebx
	mov %ecx, %esp
	int $64
	mov %ebx, %esp
# 0 "" 2
#NO_APP
	movl	%eax, -8(%ebp)
.LVL1012:
	.loc 1 1560 0
	addl	$16, %esp
	popl	%ebx
	.cfi_restore 3
	popl	%ebp
.LCFI92:
	.cfi_restore 5
	.cfi_def_cfa 4, 4
	ret
	.cfi_endproc
.LFE32:
	.size	validateint, .-validateint
	.section	.rodata
.LC277:
	.string	"validate test\n"
.LC278:
	.string	"nosuchfile"
.LC279:
	.string	"link should not succeed\n"
.LC280:
	.string	"validate ok\n"
	.text
	.globl	validatetest
	.type	validatetest, @function
validatetest:
.LFB33:
	.loc 1 1564 0
	.cfi_startproc
	pushl	%ebp
.LCFI93:
	.cfi_def_cfa_offset 8
	.cfi_offset 5, -8
	movl	%esp, %ebp
.LCFI94:
	.cfi_def_cfa_register 5
	subl	$40, %esp
	.loc 1 1568 0
	movl	stdout, %eax
	movl	$.LC277, 4(%esp)
	movl	%eax, (%esp)
	call	printf
.LVL1013:
	.loc 1 1569 0
	movl	$1126400, -16(%ebp)
.LVL1014:
	.loc 1 1571 0
	movl	$0, -12(%ebp)
.LVL1015:
	jmp	.L361
.L364:
	.loc 1 1572 0
	call	fork
.LVL1016:
	movl	%eax, -20(%ebp)
.LVL1017:
	cmpl	$0, -20(%ebp)
	jne	.L362
	.loc 1 1574 0
	movl	-12(%ebp), %eax
.LVL1018:
	movl	%eax, (%esp)
	call	validateint
.LVL1019:
	.loc 1 1575 0
	call	exit
.LVL1020:
.L362:
	.loc 1 1577 0
	movl	$0, (%esp)
	call	sleep
.LVL1021:
	.loc 1 1578 0
	movl	$0, (%esp)
	call	sleep
.LVL1022:
	.loc 1 1579 0
	movl	-20(%ebp), %eax
	movl	%eax, (%esp)
	call	kill
.LVL1023:
	.loc 1 1580 0
	call	wait
.LVL1024:
	.loc 1 1583 0
	movl	-12(%ebp), %eax
	movl	%eax, 4(%esp)
	movl	$.LC278, (%esp)
	call	link
.LVL1025:
	cmpl	$-1, %eax
	je	.L363
	.loc 1 1584 0
	movl	stdout, %eax
	movl	$.LC279, 4(%esp)
	movl	%eax, (%esp)
	call	printf
.LVL1026:
	.loc 1 1585 0
	call	exit
.LVL1027:
.L363:
	.loc 1 1571 0
	addl	$4096, -12(%ebp)
.LVL1028:
.L361:
	.loc 1 1571 0 is_stmt 0 discriminator 1
	movl	-16(%ebp), %eax
	cmpl	-12(%ebp), %eax
	jnb	.L364
	.loc 1 1589 0 is_stmt 1
	movl	stdout, %eax
	movl	$.LC280, 4(%esp)
	movl	%eax, (%esp)
	call	printf
.LVL1029:
	.loc 1 1590 0
	leave
.LCFI95:
	.cfi_restore 5
	.cfi_def_cfa 4, 4
.LVL1030:
	ret
	.cfi_endproc
.LFE33:
	.size	validatetest, .-validatetest
	.comm	uninit,10000,32
	.section	.rodata
.LC281:
	.string	"bss test\n"
.LC282:
	.string	"bss test failed\n"
.LC283:
	.string	"bss test ok\n"
	.text
	.globl	bsstest
	.type	bsstest, @function
bsstest:
.LFB34:
	.loc 1 1596 0
	.cfi_startproc
	pushl	%ebp
.LCFI96:
	.cfi_def_cfa_offset 8
	.cfi_offset 5, -8
	movl	%esp, %ebp
.LCFI97:
	.cfi_def_cfa_register 5
	subl	$40, %esp
	.loc 1 1599 0
	movl	stdout, %eax
	movl	$.LC281, 4(%esp)
	movl	%eax, (%esp)
	call	printf
.LVL1031:
	.loc 1 1600 0
	movl	$0, -12(%ebp)
.LVL1032:
	jmp	.L366
.LVL1033:
.L368:
	.loc 1 1601 0
	movl	-12(%ebp), %eax
.LVL1034:
	addl	$uninit, %eax
	movzbl	(%eax), %eax
	testb	%al, %al
	je	.L367
	.loc 1 1602 0
	movl	stdout, %eax
	movl	$.LC282, 4(%esp)
	movl	%eax, (%esp)
	call	printf
.LVL1035:
	.loc 1 1603 0
	call	exit
.LVL1036:
.L367:
	.loc 1 1600 0
	addl	$1, -12(%ebp)
.LVL1037:
.L366:
	.loc 1 1600 0 is_stmt 0 discriminator 1
	movl	-12(%ebp), %eax
	cmpl	$9999, %eax
	jbe	.L368
	.loc 1 1606 0 is_stmt 1
	movl	stdout, %eax
	movl	$.LC283, 4(%esp)
	movl	%eax, (%esp)
	call	printf
.LVL1038:
	.loc 1 1607 0
	leave
.LCFI98:
	.cfi_restore 5
	.cfi_def_cfa 4, 4
.LVL1039:
	ret
	.cfi_endproc
.LFE34:
	.size	bsstest, .-bsstest
	.section	.rodata
.LC284:
	.string	"bigarg-ok"
	.align 4
.LC285:
	.string	"bigargs test: failed\n                                                                                                                                                                                                       "
.LC286:
	.string	"bigarg test\n"
.LC287:
	.string	"bigarg test ok\n"
.LC288:
	.string	"bigargtest: fork failed\n"
.LC289:
	.string	"bigarg test failed!\n"
	.text
	.globl	bigargtest
	.type	bigargtest, @function
bigargtest:
.LFB35:
	.loc 1 1614 0
	.cfi_startproc
	pushl	%ebp
.LCFI99:
	.cfi_def_cfa_offset 8
	.cfi_offset 5, -8
	movl	%esp, %ebp
.LCFI100:
	.cfi_def_cfa_register 5
	subl	$40, %esp
	.loc 1 1617 0
	movl	$.LC284, (%esp)
	call	unlink
.LVL1040:
	.loc 1 1618 0
	call	fork
.LVL1041:
	movl	%eax, -16(%ebp)
.LVL1042:
	.loc 1 1619 0
	cmpl	$0, -16(%ebp)
	jne	.L370
.LBB5:
	.loc 1 1622 0
	movl	$0, -12(%ebp)
.LVL1043:
	jmp	.L371
.LVL1044:
.L372:
	.loc 1 1623 0 discriminator 2
	movl	-12(%ebp), %eax
	movl	$.LC285, args.1400(,%eax,4)
	.loc 1 1622 0 discriminator 2
	addl	$1, -12(%ebp)
.LVL1045:
.L371:
	.loc 1 1622 0 is_stmt 0 discriminator 1
	cmpl	$30, -12(%ebp)
	jle	.L372
	.loc 1 1624 0 is_stmt 1
	movl	$0, args.1400+124
	.loc 1 1625 0
	movl	stdout, %eax
	movl	$.LC286, 4(%esp)
	movl	%eax, (%esp)
	call	printf
.LVL1046:
	.loc 1 1626 0
	movl	$args.1400, 4(%esp)
	movl	$.LC0, (%esp)
	call	exec
.LVL1047:
	.loc 1 1627 0
	movl	stdout, %eax
	movl	$.LC287, 4(%esp)
	movl	%eax, (%esp)
	call	printf
.LVL1048:
	.loc 1 1628 0
	movl	$512, 4(%esp)
	movl	$.LC284, (%esp)
	call	open
.LVL1049:
	movl	%eax, -20(%ebp)
.LVL1050:
	.loc 1 1629 0
	movl	-20(%ebp), %eax
	movl	%eax, (%esp)
	call	close
.LVL1051:
	.loc 1 1630 0
	call	exit
.LVL1052:
.L370:
.LBE5:
	.loc 1 1631 0
	cmpl	$0, -16(%ebp)
	jns	.L373
	.loc 1 1632 0
	movl	stdout, %eax
.LVL1053:
	movl	$.LC288, 4(%esp)
	movl	%eax, (%esp)
	call	printf
.LVL1054:
	.loc 1 1633 0
	call	exit
.LVL1055:
.L373:
	.loc 1 1635 0
	call	wait
.LVL1056:
	.loc 1 1636 0
	movl	$0, 4(%esp)
	movl	$.LC284, (%esp)
	call	open
.LVL1057:
	movl	%eax, -20(%ebp)
.LVL1058:
	.loc 1 1637 0
	cmpl	$0, -20(%ebp)
	jns	.L374
	.loc 1 1638 0
	movl	stdout, %eax
.LVL1059:
	movl	$.LC289, 4(%esp)
	movl	%eax, (%esp)
	call	printf
.LVL1060:
	.loc 1 1639 0
	call	exit
.LVL1061:
.L374:
	.loc 1 1641 0
	movl	-20(%ebp), %eax
.LVL1062:
	movl	%eax, (%esp)
	call	close
.LVL1063:
	.loc 1 1642 0
	movl	$.LC284, (%esp)
	call	unlink
.LVL1064:
	.loc 1 1643 0
	leave
.LCFI101:
	.cfi_restore 5
	.cfi_def_cfa 4, 4
.LVL1065:
	ret
	.cfi_endproc
.LFE35:
	.size	bigargtest, .-bigargtest
	.section	.rodata
.LC290:
	.string	"fsfull test\n"
.LC291:
	.string	"writing %s\n"
.LC292:
	.string	"open %s failed\n"
.LC293:
	.string	"wrote %d bytes\n"
.LC294:
	.string	"fsfull test finished\n"
	.text
	.globl	fsfull
	.type	fsfull, @function
fsfull:
.LFB36:
	.loc 1 1649 0
	.cfi_startproc
	pushl	%ebp
.LCFI102:
	.cfi_def_cfa_offset 8
	.cfi_offset 5, -8
	movl	%esp, %ebp
.LCFI103:
	.cfi_def_cfa_register 5
	pushl	%ebx
	subl	$116, %esp
	.cfi_offset 3, -12
	.loc 1 1651 0
	movl	$0, -16(%ebp)
.LVL1066:
	.loc 1 1653 0
	movl	$.LC290, 4(%esp)
	movl	$1, (%esp)
	call	printf
.LVL1067:
	.loc 1 1655 0
	movl	$0, -12(%ebp)
.LVL1068:
.L382:
.LBB6:
	.loc 1 1657 0
	movb	$102, -92(%ebp)
	.loc 1 1658 0
	movl	-12(%ebp), %ecx
	movl	$274877907, %edx
	movl	%ecx, %eax
	imull	%edx
	sarl	$6, %edx
	movl	%ecx, %eax
	sarl	$31, %eax
	subl	%eax, %edx
	movl	%edx, %eax
	addl	$48, %eax
	movb	%al, -91(%ebp)
	.loc 1 1659 0
	movl	-12(%ebp), %ebx
	movl	$274877907, %edx
	movl	%ebx, %eax
	imull	%edx
	sarl	$6, %edx
	movl	%ebx, %eax
	sarl	$31, %eax
	movl	%edx, %ecx
	subl	%eax, %ecx
	imull	$1000, %ecx, %eax
	subl	%eax, %ebx
	movl	%ebx, %ecx
	movl	$1374389535, %edx
	movl	%ecx, %eax
	imull	%edx
	sarl	$5, %edx
	movl	%ecx, %eax
	sarl	$31, %eax
	subl	%eax, %edx
	movl	%edx, %eax
	addl	$48, %eax
	movb	%al, -90(%ebp)
	.loc 1 1660 0
	movl	-12(%ebp), %ebx
	movl	$1374389535, %edx
	movl	%ebx, %eax
	imull	%edx
	sarl	$5, %edx
	movl	%ebx, %eax
	sarl	$31, %eax
	movl	%edx, %ecx
	subl	%eax, %ecx
	imull	$100, %ecx, %eax
	subl	%eax, %ebx
	movl	%ebx, %ecx
	movl	$1717986919, %edx
	movl	%ecx, %eax
	imull	%edx
	sarl	$2, %edx
	movl	%ecx, %eax
	sarl	$31, %eax
	subl	%eax, %edx
	movl	%edx, %eax
	addl	$48, %eax
	movb	%al, -89(%ebp)
	.loc 1 1661 0
	movl	-12(%ebp), %ecx
	movl	$1717986919, %edx
	movl	%ecx, %eax
	imull	%edx
	sarl	$2, %edx
	movl	%ecx, %eax
	sarl	$31, %eax
	subl	%eax, %edx
	movl	%edx, %eax
	sall	$2, %eax
	addl	%edx, %eax
	addl	%eax, %eax
	subl	%eax, %ecx
	movl	%ecx, %edx
	movl	%edx, %eax
	addl	$48, %eax
	movb	%al, -88(%ebp)
	.loc 1 1662 0
	movb	$0, -87(%ebp)
	.loc 1 1663 0
	leal	-92(%ebp), %eax
	movl	%eax, 8(%esp)
	movl	$.LC291, 4(%esp)
	movl	$1, (%esp)
	call	printf
.LVL1069:
	.loc 1 1664 0
	movl	$514, 4(%esp)
	leal	-92(%ebp), %eax
	movl	%eax, (%esp)
	call	open
.LVL1070:
	movl	%eax, -24(%ebp)
.LVL1071:
	.loc 1 1665 0
	cmpl	$0, -24(%ebp)
	jns	.L376
	.loc 1 1666 0
	leal	-92(%ebp), %eax
.LVL1072:
	movl	%eax, 8(%esp)
	movl	$.LC292, 4(%esp)
	movl	$1, (%esp)
	call	printf
.LVL1073:
	.loc 1 1667 0
	jmp	.L377
.LVL1074:
.L376:
	.loc 1 1669 0
	movl	$0, -20(%ebp)
.LVL1075:
.L380:
.LBB7:
	.loc 1 1671 0
	movl	$512, 8(%esp)
	movl	$buf, 4(%esp)
	movl	-24(%ebp), %eax
	movl	%eax, (%esp)
	call	write
.LVL1076:
	movl	%eax, -28(%ebp)
.LVL1077:
	.loc 1 1672 0
	cmpl	$511, -28(%ebp)
	jg	.L378
	.loc 1 1673 0
	nop
.LBE7:
	.loc 1 1677 0
	movl	-20(%ebp), %eax
.LVL1078:
	movl	%eax, 8(%esp)
	movl	$.LC293, 4(%esp)
	movl	$1, (%esp)
	call	printf
.LVL1079:
	.loc 1 1678 0
	movl	-24(%ebp), %eax
	movl	%eax, (%esp)
	call	close
.LVL1080:
	.loc 1 1679 0
	cmpl	$0, -20(%ebp)
	jne	.L381
	jmp	.L385
.LVL1081:
.L378:
.LBB8:
	.loc 1 1674 0
	movl	-28(%ebp), %eax
.LVL1082:
	addl	%eax, -20(%ebp)
	.loc 1 1675 0
	addl	$1, -16(%ebp)
.LBE8:
	.loc 1 1676 0
	jmp	.L380
.L385:
	.loc 1 1680 0
	jmp	.L377
.L381:
.LBE6:
	.loc 1 1655 0
	addl	$1, -12(%ebp)
	.loc 1 1681 0
	jmp	.L382
.LVL1083:
.L377:
	.loc 1 1683 0 discriminator 1
	jmp	.L383
.L384:
.LBB9:
	.loc 1 1685 0
	movb	$102, -92(%ebp)
	.loc 1 1686 0
	movl	-12(%ebp), %ecx
	movl	$274877907, %edx
	movl	%ecx, %eax
	imull	%edx
	sarl	$6, %edx
	movl	%ecx, %eax
	sarl	$31, %eax
	subl	%eax, %edx
	movl	%edx, %eax
	addl	$48, %eax
	movb	%al, -91(%ebp)
	.loc 1 1687 0
	movl	-12(%ebp), %ebx
	movl	$274877907, %edx
	movl	%ebx, %eax
	imull	%edx
	sarl	$6, %edx
	movl	%ebx, %eax
	sarl	$31, %eax
	movl	%edx, %ecx
	subl	%eax, %ecx
	imull	$1000, %ecx, %eax
	subl	%eax, %ebx
	movl	%ebx, %ecx
	movl	$1374389535, %edx
	movl	%ecx, %eax
	imull	%edx
	sarl	$5, %edx
	movl	%ecx, %eax
	sarl	$31, %eax
	subl	%eax, %edx
	movl	%edx, %eax
	addl	$48, %eax
	movb	%al, -90(%ebp)
	.loc 1 1688 0
	movl	-12(%ebp), %ebx
	movl	$1374389535, %edx
	movl	%ebx, %eax
	imull	%edx
	sarl	$5, %edx
	movl	%ebx, %eax
	sarl	$31, %eax
	movl	%edx, %ecx
	subl	%eax, %ecx
	imull	$100, %ecx, %eax
	subl	%eax, %ebx
	movl	%ebx, %ecx
	movl	$1717986919, %edx
	movl	%ecx, %eax
	imull	%edx
	sarl	$2, %edx
	movl	%ecx, %eax
	sarl	$31, %eax
	subl	%eax, %edx
	movl	%edx, %eax
	addl	$48, %eax
	movb	%al, -89(%ebp)
	.loc 1 1689 0
	movl	-12(%ebp), %ecx
	movl	$1717986919, %edx
	movl	%ecx, %eax
	imull	%edx
	sarl	$2, %edx
	movl	%ecx, %eax
	sarl	$31, %eax
	subl	%eax, %edx
	movl	%edx, %eax
	sall	$2, %eax
	addl	%edx, %eax
	addl	%eax, %eax
	subl	%eax, %ecx
	movl	%ecx, %edx
	movl	%edx, %eax
	addl	$48, %eax
	movb	%al, -88(%ebp)
	.loc 1 1690 0
	movb	$0, -87(%ebp)
	.loc 1 1691 0
	leal	-92(%ebp), %eax
	movl	%eax, (%esp)
	call	unlink
.LVL1084:
	.loc 1 1692 0
	subl	$1, -12(%ebp)
.L383:
.LBE9:
	.loc 1 1683 0 discriminator 1
	cmpl	$0, -12(%ebp)
	jns	.L384
	.loc 1 1695 0
	movl	$.LC294, 4(%esp)
	movl	$1, (%esp)
	call	printf
.LVL1085:
	.loc 1 1696 0
	addl	$116, %esp
	popl	%ebx
	.cfi_restore 3
	popl	%ebp
.LCFI104:
	.cfi_restore 5
	.cfi_def_cfa 4, 4
.LVL1086:
	ret
	.cfi_endproc
.LFE36:
	.size	fsfull, .-fsfull
	.globl	randstate
	.data
	.align 4
	.type	randstate, @object
	.size	randstate, 4
randstate:
	.long	1
	.text
	.globl	rand
	.type	rand, @function
rand:
.LFB37:
	.loc 1 1701 0
	.cfi_startproc
	pushl	%ebp
.LCFI105:
	.cfi_def_cfa_offset 8
	.cfi_offset 5, -8
	movl	%esp, %ebp
.LCFI106:
	.cfi_def_cfa_register 5
	.loc 1 1702 0
	movl	randstate, %eax
	imull	$1664525, %eax, %eax
	addl	$1013904223, %eax
	movl	%eax, randstate
	.loc 1 1703 0
	movl	randstate, %eax
	.loc 1 1704 0
	popl	%ebp
.LCFI107:
	.cfi_restore 5
	.cfi_def_cfa 4, 4
	ret
	.cfi_endproc
.LFE37:
	.size	rand, .-rand
	.section	.rodata
.LC295:
	.string	"usertests starting\n"
.LC296:
	.string	"usertests.ran"
	.align 4
.LC297:
	.string	"already ran user tests -- rebuild fs.img\n"
	.text
	.globl	main
	.type	main, @function
main:
.LFB38:
	.loc 1 1708 0
	.cfi_startproc
.LVL1087:
	pushl	%ebp
.LCFI108:
	.cfi_def_cfa_offset 8
	.cfi_offset 5, -8
	movl	%esp, %ebp
.LCFI109:
	.cfi_def_cfa_register 5
	andl	$-16, %esp
	subl	$16, %esp
	.loc 1 1709 0
	movl	$.LC295, 4(%esp)
	movl	$1, (%esp)
	call	printf
.LVL1088:
	.loc 1 1711 0
	movl	$0, 4(%esp)
	movl	$.LC296, (%esp)
	call	open
.LVL1089:
	testl	%eax, %eax
	js	.L389
	.loc 1 1712 0
	movl	$.LC297, 4(%esp)
	movl	$1, (%esp)
	call	printf
.LVL1090:
	.loc 1 1713 0
	call	exit
.LVL1091:
.L389:
	.loc 1 1715 0
	movl	$512, 4(%esp)
	movl	$.LC296, (%esp)
	call	open
.LVL1092:
	movl	%eax, (%esp)
	call	close
.LVL1093:
	.loc 1 1717 0
	call	createdelete
.LVL1094:
	.loc 1 1718 0
	call	linkunlink
.LVL1095:
	.loc 1 1719 0
	call	concreate
.LVL1096:
	.loc 1 1720 0
	call	fourfiles
.LVL1097:
	.loc 1 1721 0
	call	sharedfd
.LVL1098:
	.loc 1 1723 0
	call	bigargtest
.LVL1099:
	.loc 1 1724 0
	call	bigwrite
.LVL1100:
	.loc 1 1725 0
	call	bigargtest
.LVL1101:
	.loc 1 1726 0
	call	bsstest
.LVL1102:
	.loc 1 1727 0
	call	sbrktest
.LVL1103:
	.loc 1 1728 0
	call	validatetest
.LVL1104:
	.loc 1 1730 0
	call	opentest
.LVL1105:
	.loc 1 1731 0
	call	writetest
.LVL1106:
	.loc 1 1732 0
	call	writetest1
.LVL1107:
	.loc 1 1733 0
	call	createtest
.LVL1108:
	.loc 1 1735 0
	call	openiputtest
.LVL1109:
	.loc 1 1736 0
	call	exitiputtest
.LVL1110:
	.loc 1 1737 0
	call	iputtest
.LVL1111:
	.loc 1 1739 0
	call	mem
.LVL1112:
	.loc 1 1740 0
	call	pipe1
.LVL1113:
	.loc 1 1741 0
	call	preempt
.LVL1114:
	.loc 1 1742 0
	call	exitwait
.LVL1115:
	.loc 1 1744 0
	call	rmdot
.LVL1116:
	.loc 1 1745 0
	call	fourteen
.LVL1117:
	.loc 1 1746 0
	call	bigfile
.LVL1118:
	.loc 1 1747 0
	call	subdir
.LVL1119:
	.loc 1 1748 0
	call	linktest
.LVL1120:
	.loc 1 1749 0
	call	unlinkread
.LVL1121:
	.loc 1 1750 0
	call	dirfile
.LVL1122:
	.loc 1 1751 0
	call	iref
.LVL1123:
	.loc 1 1752 0
	call	forktest
.LVL1124:
	.loc 1 1753 0
	call	bigdir
.LVL1125:
	.loc 1 1754 0
	call	exectest
.LVL1126:
	.loc 1 1756 0
	call	exit
.LVL1127:
	.cfi_endproc
.LFE38:
	.size	main, .-main
	.local	args.1400
	.comm	args.1400,128,32
.Letext0:
	.file 2 "types.h"
	.file 3 "user.h"
	.section	.note.GNU-stack,"",@progbits
