	.file	"vm.c"
	.text
.Ltext0:
	.type	lgdt, @function
lgdt:
.LFB7:
	.file 1 "x86.h"
	.loc 1 64 0
	.cfi_startproc
.LVL0:
	pushl	%ebp
.LCFI0:
	.cfi_def_cfa_offset 8
	.cfi_offset 5, -8
	movl	%esp, %ebp
.LCFI1:
	.cfi_def_cfa_register 5
	subl	$16, %esp
	.loc 1 67 0
	movl	12(%ebp), %eax
	subl	$1, %eax
	movw	%ax, -6(%ebp)
	.loc 1 68 0
	movl	8(%ebp), %eax
	movw	%ax, -4(%ebp)
	.loc 1 69 0
	movl	8(%ebp), %eax
	shrl	$16, %eax
	movw	%ax, -2(%ebp)
	.loc 1 71 0
	leal	-6(%ebp), %eax
#APP
# 71 "x86.h" 1
	lgdt (%eax)
# 0 "" 2
	.loc 1 72 0
#NO_APP
	leave
.LCFI2:
	.cfi_restore 5
	.cfi_def_cfa 4, 4
	ret
	.cfi_endproc
.LFE7:
	.size	lgdt, .-lgdt
	.type	ltr, @function
ltr:
.LFB9:
	.loc 1 90 0
	.cfi_startproc
.LVL1:
	pushl	%ebp
.LCFI3:
	.cfi_def_cfa_offset 8
	.cfi_offset 5, -8
	movl	%esp, %ebp
.LCFI4:
	.cfi_def_cfa_register 5
	subl	$4, %esp
	movl	8(%ebp), %eax
	movw	%ax, -4(%ebp)
	.loc 1 91 0
	movzwl	-4(%ebp), %eax
#APP
# 91 "x86.h" 1
	ltr %ax
# 0 "" 2
	.loc 1 92 0
#NO_APP
	leave
.LCFI5:
	.cfi_restore 5
	.cfi_def_cfa 4, 4
	ret
	.cfi_endproc
.LFE9:
	.size	ltr, .-ltr
	.type	loadgs, @function
loadgs:
.LFB11:
	.loc 1 104 0
	.cfi_startproc
.LVL2:
	pushl	%ebp
.LCFI6:
	.cfi_def_cfa_offset 8
	.cfi_offset 5, -8
	movl	%esp, %ebp
.LCFI7:
	.cfi_def_cfa_register 5
	subl	$4, %esp
	movl	8(%ebp), %eax
	movw	%ax, -4(%ebp)
	.loc 1 105 0
	movzwl	-4(%ebp), %eax
#APP
# 105 "x86.h" 1
	movw %ax, %gs
# 0 "" 2
	.loc 1 106 0
#NO_APP
	leave
.LCFI8:
	.cfi_restore 5
	.cfi_def_cfa 4, 4
	ret
	.cfi_endproc
.LFE11:
	.size	loadgs, .-loadgs
	.type	lcr3, @function
lcr3:
.LFB16:
	.loc 1 143 0
	.cfi_startproc
.LVL3:
	pushl	%ebp
.LCFI9:
	.cfi_def_cfa_offset 8
	.cfi_offset 5, -8
	movl	%esp, %ebp
.LCFI10:
	.cfi_def_cfa_register 5
	.loc 1 144 0
	movl	8(%ebp), %eax
#APP
# 144 "x86.h" 1
	movl %eax,%cr3
# 0 "" 2
	.loc 1 145 0
#NO_APP
	popl	%ebp
.LCFI11:
	.cfi_restore 5
	.cfi_def_cfa 4, 4
	ret
	.cfi_endproc
.LFE16:
	.size	lcr3, .-lcr3
	.type	v2p, @function
v2p:
.LFB18:
	.file 2 "memlayout.h"
	.loc 2 13 0
	.cfi_startproc
.LVL4:
	pushl	%ebp
.LCFI12:
	.cfi_def_cfa_offset 8
	.cfi_offset 5, -8
	movl	%esp, %ebp
.LCFI13:
	.cfi_def_cfa_register 5
	.loc 2 13 0
	movl	8(%ebp), %eax
	addl	$-2147483648, %eax
	popl	%ebp
.LCFI14:
	.cfi_restore 5
	.cfi_def_cfa 4, 4
	ret
	.cfi_endproc
.LFE18:
	.size	v2p, .-v2p
	.type	p2v, @function
p2v:
.LFB19:
	.loc 2 14 0
	.cfi_startproc
.LVL5:
	pushl	%ebp
.LCFI15:
	.cfi_def_cfa_offset 8
	.cfi_offset 5, -8
	movl	%esp, %ebp
.LCFI16:
	.cfi_def_cfa_register 5
	.loc 2 14 0
	movl	8(%ebp), %eax
	addl	$-2147483648, %eax
	popl	%ebp
.LCFI17:
	.cfi_restore 5
	.cfi_def_cfa 4, 4
	ret
	.cfi_endproc
.LFE19:
	.size	p2v, .-p2v
	.comm	kpgdir,4,4
	.comm	gdt,56,32
	.globl	seginit
	.type	seginit, @function
seginit:
.LFB20:
	.file 3 "vm.c"
	.loc 3 18 0
	.cfi_startproc
	pushl	%ebp
.LCFI18:
	.cfi_def_cfa_offset 8
	.cfi_offset 5, -8
	movl	%esp, %ebp
.LCFI19:
	.cfi_def_cfa_register 5
	pushl	%ebx
	subl	$36, %esp
	.cfi_offset 3, -12
	.loc 3 25 0
	call	cpunum
.LVL6:
	imull	$188, %eax, %eax
	addl	$cpus, %eax
	movl	%eax, -12(%ebp)
.LVL7:
	.loc 3 26 0
	movl	-12(%ebp), %eax
	movw	$-1, 120(%eax)
	movl	-12(%ebp), %eax
	movw	$0, 122(%eax)
	movl	-12(%ebp), %eax
	movb	$0, 124(%eax)
	movl	-12(%ebp), %eax
	movzbl	125(%eax), %edx
	andl	$-16, %edx
	orl	$10, %edx
	movb	%dl, 125(%eax)
	movl	-12(%ebp), %eax
.LVL8:
	movzbl	125(%eax), %edx
	orl	$16, %edx
	movb	%dl, 125(%eax)
.LVL9:
	movl	-12(%ebp), %eax
	movzbl	125(%eax), %edx
	andl	$-97, %edx
	movb	%dl, 125(%eax)
	movl	-12(%ebp), %eax
	movzbl	125(%eax), %edx
	orl	$-128, %edx
	movb	%dl, 125(%eax)
	movl	-12(%ebp), %eax
	movzbl	126(%eax), %edx
	orl	$15, %edx
	movb	%dl, 126(%eax)
	movl	-12(%ebp), %eax
	movzbl	126(%eax), %edx
	andl	$-17, %edx
	movb	%dl, 126(%eax)
	movl	-12(%ebp), %eax
	movzbl	126(%eax), %edx
	andl	$-33, %edx
	movb	%dl, 126(%eax)
	movl	-12(%ebp), %eax
	movzbl	126(%eax), %edx
	orl	$64, %edx
	movb	%dl, 126(%eax)
	movl	-12(%ebp), %eax
	movzbl	126(%eax), %edx
	orl	$-128, %edx
	movb	%dl, 126(%eax)
	movl	-12(%ebp), %eax
	movb	$0, 127(%eax)
	.loc 3 27 0
	movl	-12(%ebp), %eax
	movw	$-1, 128(%eax)
	movl	-12(%ebp), %eax
	movw	$0, 130(%eax)
	movl	-12(%ebp), %eax
	movb	$0, 132(%eax)
	movl	-12(%ebp), %eax
	movzbl	133(%eax), %edx
	andl	$-16, %edx
	orl	$2, %edx
	movb	%dl, 133(%eax)
	movl	-12(%ebp), %eax
	movzbl	133(%eax), %edx
	orl	$16, %edx
	movb	%dl, 133(%eax)
	movl	-12(%ebp), %eax
	movzbl	133(%eax), %edx
	andl	$-97, %edx
	movb	%dl, 133(%eax)
	movl	-12(%ebp), %eax
	movzbl	133(%eax), %edx
	orl	$-128, %edx
	movb	%dl, 133(%eax)
	movl	-12(%ebp), %eax
	movzbl	134(%eax), %edx
	orl	$15, %edx
	movb	%dl, 134(%eax)
	movl	-12(%ebp), %eax
	movzbl	134(%eax), %edx
	andl	$-17, %edx
	movb	%dl, 134(%eax)
	movl	-12(%ebp), %eax
	movzbl	134(%eax), %edx
	andl	$-33, %edx
	movb	%dl, 134(%eax)
	movl	-12(%ebp), %eax
	movzbl	134(%eax), %edx
	orl	$64, %edx
	movb	%dl, 134(%eax)
	movl	-12(%ebp), %eax
	movzbl	134(%eax), %edx
	orl	$-128, %edx
	movb	%dl, 134(%eax)
	movl	-12(%ebp), %eax
	movb	$0, 135(%eax)
	.loc 3 28 0
	movl	-12(%ebp), %eax
	movw	$-1, 144(%eax)
	movl	-12(%ebp), %eax
	movw	$0, 146(%eax)
	movl	-12(%ebp), %eax
	movb	$0, 148(%eax)
	movl	-12(%ebp), %eax
	movzbl	149(%eax), %edx
	andl	$-16, %edx
	orl	$10, %edx
	movb	%dl, 149(%eax)
	movl	-12(%ebp), %eax
	movzbl	149(%eax), %edx
	orl	$16, %edx
	movb	%dl, 149(%eax)
	movl	-12(%ebp), %eax
	movzbl	149(%eax), %edx
	orl	$96, %edx
	movb	%dl, 149(%eax)
	movl	-12(%ebp), %eax
	movzbl	149(%eax), %edx
	orl	$-128, %edx
	movb	%dl, 149(%eax)
	movl	-12(%ebp), %eax
	movzbl	150(%eax), %edx
	orl	$15, %edx
	movb	%dl, 150(%eax)
	movl	-12(%ebp), %eax
	movzbl	150(%eax), %edx
	andl	$-17, %edx
	movb	%dl, 150(%eax)
	movl	-12(%ebp), %eax
	movzbl	150(%eax), %edx
	andl	$-33, %edx
	movb	%dl, 150(%eax)
	movl	-12(%ebp), %eax
	movzbl	150(%eax), %edx
	orl	$64, %edx
	movb	%dl, 150(%eax)
	movl	-12(%ebp), %eax
	movzbl	150(%eax), %edx
	orl	$-128, %edx
	movb	%dl, 150(%eax)
	movl	-12(%ebp), %eax
	movb	$0, 151(%eax)
	.loc 3 29 0
	movl	-12(%ebp), %eax
	movw	$-1, 152(%eax)
	movl	-12(%ebp), %eax
	movw	$0, 154(%eax)
	movl	-12(%ebp), %eax
	movb	$0, 156(%eax)
	movl	-12(%ebp), %eax
	movzbl	157(%eax), %edx
	andl	$-16, %edx
	orl	$2, %edx
	movb	%dl, 157(%eax)
	movl	-12(%ebp), %eax
	movzbl	157(%eax), %edx
	orl	$16, %edx
	movb	%dl, 157(%eax)
	movl	-12(%ebp), %eax
	movzbl	157(%eax), %edx
	orl	$96, %edx
	movb	%dl, 157(%eax)
	movl	-12(%ebp), %eax
	movzbl	157(%eax), %edx
	orl	$-128, %edx
	movb	%dl, 157(%eax)
	movl	-12(%ebp), %eax
	movzbl	158(%eax), %edx
	orl	$15, %edx
	movb	%dl, 158(%eax)
	movl	-12(%ebp), %eax
	movzbl	158(%eax), %edx
	andl	$-17, %edx
	movb	%dl, 158(%eax)
	movl	-12(%ebp), %eax
	movzbl	158(%eax), %edx
	andl	$-33, %edx
	movb	%dl, 158(%eax)
	movl	-12(%ebp), %eax
	movzbl	158(%eax), %edx
	orl	$64, %edx
	movb	%dl, 158(%eax)
	movl	-12(%ebp), %eax
	movzbl	158(%eax), %edx
	orl	$-128, %edx
	movb	%dl, 158(%eax)
	movl	-12(%ebp), %eax
	movb	$0, 159(%eax)
	.loc 3 32 0
	movl	-12(%ebp), %eax
	addl	$180, %eax
	movl	%eax, %ebx
	movl	-12(%ebp), %eax
	addl	$180, %eax
	shrl	$16, %eax
	movl	%eax, %ecx
	movl	-12(%ebp), %eax
	addl	$180, %eax
	shrl	$24, %eax
	movl	%eax, %edx
	movl	-12(%ebp), %eax
	movw	$0, 136(%eax)
	movl	-12(%ebp), %eax
	movw	%bx, 138(%eax)
	movl	-12(%ebp), %eax
	movb	%cl, 140(%eax)
	movl	-12(%ebp), %eax
	movzbl	141(%eax), %ecx
	andl	$-16, %ecx
	orl	$2, %ecx
	movb	%cl, 141(%eax)
	movl	-12(%ebp), %eax
	movzbl	141(%eax), %ecx
	orl	$16, %ecx
	movb	%cl, 141(%eax)
	movl	-12(%ebp), %eax
	movzbl	141(%eax), %ecx
	andl	$-97, %ecx
	movb	%cl, 141(%eax)
	movl	-12(%ebp), %eax
	movzbl	141(%eax), %ecx
	orl	$-128, %ecx
	movb	%cl, 141(%eax)
	movl	-12(%ebp), %eax
	movzbl	142(%eax), %ecx
	andl	$-16, %ecx
	movb	%cl, 142(%eax)
	movl	-12(%ebp), %eax
	movzbl	142(%eax), %ecx
	andl	$-17, %ecx
	movb	%cl, 142(%eax)
	movl	-12(%ebp), %eax
	movzbl	142(%eax), %ecx
	andl	$-33, %ecx
	movb	%cl, 142(%eax)
	movl	-12(%ebp), %eax
	movzbl	142(%eax), %ecx
	orl	$64, %ecx
	movb	%cl, 142(%eax)
	movl	-12(%ebp), %eax
	movzbl	142(%eax), %ecx
	orl	$-128, %ecx
	movb	%cl, 142(%eax)
	movl	-12(%ebp), %eax
	movb	%dl, 143(%eax)
	.loc 3 34 0
	movl	-12(%ebp), %eax
	addl	$112, %eax
	movl	$56, 4(%esp)
	movl	%eax, (%esp)
	call	lgdt
.LVL10:
	.loc 3 35 0
	movl	$24, (%esp)
	call	loadgs
.LVL11:
	.loc 3 38 0
	movl	-12(%ebp), %eax
	movl	%eax, %gs:0
	.loc 3 39 0
	movl	$0, %gs:4
	.loc 3 40 0
	addl	$36, %esp
	popl	%ebx
	.cfi_restore 3
	popl	%ebp
.LCFI20:
	.cfi_restore 5
	.cfi_def_cfa 4, 4
	ret
	.cfi_endproc
.LFE20:
	.size	seginit, .-seginit
	.type	walkpgdir, @function
walkpgdir:
.LFB21:
	.loc 3 47 0
	.cfi_startproc
.LVL12:
	pushl	%ebp
.LCFI21:
	.cfi_def_cfa_offset 8
	.cfi_offset 5, -8
	movl	%esp, %ebp
.LCFI22:
	.cfi_def_cfa_register 5
	subl	$40, %esp
	.loc 3 51 0
	movl	12(%ebp), %eax
	shrl	$22, %eax
	leal	0(,%eax,4), %edx
	movl	8(%ebp), %eax
	addl	%edx, %eax
	movl	%eax, -16(%ebp)
.LVL13:
	.loc 3 52 0
	movl	-16(%ebp), %eax
	movl	(%eax), %eax
.LVL14:
	andl	$1, %eax
	testl	%eax, %eax
	je	.L11
	.loc 3 53 0
	movl	-16(%ebp), %eax
	movl	(%eax), %eax
	andl	$-4096, %eax
	movl	%eax, (%esp)
	call	p2v
.LVL15:
	movl	%eax, -12(%ebp)
.LVL16:
	jmp	.L12
.LVL17:
.L11:
	.loc 3 55 0
	cmpl	$0, 16(%ebp)
	je	.L13
	.loc 3 55 0 is_stmt 0 discriminator 1
	call	kalloc
.LVL18:
	movl	%eax, -12(%ebp)
.LVL19:
	cmpl	$0, -12(%ebp)
	jne	.L14
.LVL20:
.L13:
	.loc 3 56 0 is_stmt 1
	movl	$0, %eax
	jmp	.L15
.LVL21:
.L14:
	.loc 3 58 0
	movl	$4096, 8(%esp)
	movl	$0, 4(%esp)
	movl	-12(%ebp), %eax
.LVL22:
	movl	%eax, (%esp)
	call	memset
.LVL23:
	.loc 3 62 0
	movl	-12(%ebp), %eax
	movl	%eax, (%esp)
	call	v2p
.LVL24:
	orl	$7, %eax
	movl	%eax, %edx
	movl	-16(%ebp), %eax
	movl	%edx, (%eax)
.L12:
	.loc 3 64 0
	movl	12(%ebp), %eax
	shrl	$12, %eax
	andl	$1023, %eax
	leal	0(,%eax,4), %edx
	movl	-12(%ebp), %eax
	addl	%edx, %eax
.LVL25:
.L15:
	.loc 3 65 0
	leave
.LCFI23:
	.cfi_restore 5
	.cfi_def_cfa 4, 4
	ret
	.cfi_endproc
.LFE21:
	.size	walkpgdir, .-walkpgdir
	.section	.rodata
.LC0:
	.string	"remap"
	.text
	.type	mappages, @function
mappages:
.LFB22:
	.loc 3 72 0
	.cfi_startproc
.LVL26:
	pushl	%ebp
.LCFI24:
	.cfi_def_cfa_offset 8
	.cfi_offset 5, -8
	movl	%esp, %ebp
.LCFI25:
	.cfi_def_cfa_register 5
	subl	$40, %esp
	.loc 3 76 0
	movl	12(%ebp), %eax
	andl	$-4096, %eax
	movl	%eax, -12(%ebp)
.LVL27:
	.loc 3 77 0
	movl	12(%ebp), %edx
	movl	16(%ebp), %eax
.LVL28:
	addl	%edx, %eax
	subl	$1, %eax
	andl	$-4096, %eax
	movl	%eax, -16(%ebp)
.LVL29:
.L22:
	.loc 3 79 0
	movl	$1, 8(%esp)
	movl	-12(%ebp), %eax
	movl	%eax, 4(%esp)
	movl	8(%ebp), %eax
	movl	%eax, (%esp)
	call	walkpgdir
.LVL30:
	movl	%eax, -20(%ebp)
.LVL31:
	cmpl	$0, -20(%ebp)
	jne	.L17
	.loc 3 80 0
	movl	$-1, %eax
.LVL32:
	jmp	.L18
.LVL33:
.L17:
	.loc 3 81 0
	movl	-20(%ebp), %eax
.LVL34:
	movl	(%eax), %eax
	andl	$1, %eax
	testl	%eax, %eax
	je	.L19
	.loc 3 82 0
	movl	$.LC0, (%esp)
	call	panic
.LVL35:
.L19:
	.loc 3 83 0
	movl	24(%ebp), %eax
	orl	20(%ebp), %eax
	orl	$1, %eax
	movl	%eax, %edx
	movl	-20(%ebp), %eax
	movl	%edx, (%eax)
	.loc 3 84 0
	movl	-12(%ebp), %eax
	cmpl	-16(%ebp), %eax
	jne	.L20
	.loc 3 85 0
	nop
	.loc 3 89 0
	movl	$0, %eax
	jmp	.L18
.L20:
	.loc 3 86 0
	addl	$4096, -12(%ebp)
	.loc 3 87 0
	addl	$4096, 20(%ebp)
	.loc 3 88 0
	jmp	.L22
.L18:
	.loc 3 90 0
	leave
.LCFI26:
	.cfi_restore 5
	.cfi_def_cfa 4, 4
	ret
	.cfi_endproc
.LFE22:
	.size	mappages, .-mappages
	.data
	.align 32
	.type	kmap, @object
	.size	kmap, 64
kmap:
	.long	-2147483648
	.long	0
	.long	1048576
	.long	2
	.long	-2146435072
	.long	1048576
	.long	data-2147483648
	.long	0
	.long	data
	.long	data-2147483648
	.long	234881024
	.long	2
	.long	-33554432
	.long	-33554432
	.long	0
	.long	2
	.section	.rodata
.LC1:
	.string	"PHYSTOP too high"
	.text
	.globl	setupkvm
	.type	setupkvm, @function
setupkvm:
.LFB23:
	.loc 3 130 0
	.cfi_startproc
	pushl	%ebp
.LCFI27:
	.cfi_def_cfa_offset 8
	.cfi_offset 5, -8
	movl	%esp, %ebp
.LCFI28:
	.cfi_def_cfa_register 5
	pushl	%ebx
	subl	$52, %esp
	.cfi_offset 3, -12
	.loc 3 134 0
	call	kalloc
.LVL36:
	movl	%eax, -16(%ebp)
.LVL37:
	cmpl	$0, -16(%ebp)
	jne	.L24
	.loc 3 135 0
	movl	$0, %eax
.LVL38:
	jmp	.L25
.LVL39:
.L24:
	.loc 3 136 0
	movl	$4096, 8(%esp)
	movl	$0, 4(%esp)
	movl	-16(%ebp), %eax
.LVL40:
	movl	%eax, (%esp)
	call	memset
.LVL41:
	.loc 3 137 0
	movl	$234881024, (%esp)
	call	p2v
.LVL42:
	cmpl	$-33554432, %eax
	jbe	.L26
	.loc 3 138 0
	movl	$.LC1, (%esp)
	call	panic
.LVL43:
.L26:
	.loc 3 139 0
	movl	$kmap, -12(%ebp)
.LVL44:
	jmp	.L27
.L29:
	.loc 3 140 0
	movl	-12(%ebp), %eax
	movl	12(%eax), %ecx
	movl	-12(%ebp), %eax
	movl	4(%eax), %edx
	movl	-12(%ebp), %eax
	movl	8(%eax), %ebx
	movl	-12(%ebp), %eax
	movl	4(%eax), %eax
	subl	%eax, %ebx
	movl	-12(%ebp), %eax
	movl	(%eax), %eax
	movl	%ecx, 16(%esp)
	movl	%edx, 12(%esp)
	movl	%ebx, 8(%esp)
	movl	%eax, 4(%esp)
	movl	-16(%ebp), %eax
	movl	%eax, (%esp)
	call	mappages
.LVL45:
	testl	%eax, %eax
	jns	.L28
	.loc 3 142 0
	movl	$0, %eax
	jmp	.L25
.L28:
	.loc 3 139 0
	addl	$16, -12(%ebp)
.L27:
	.loc 3 139 0 is_stmt 0 discriminator 1
	cmpl	$kmap+64, -12(%ebp)
	jb	.L29
	.loc 3 143 0 is_stmt 1
	movl	-16(%ebp), %eax
.LVL46:
.L25:
	.loc 3 144 0
	addl	$52, %esp
	popl	%ebx
	.cfi_restore 3
	popl	%ebp
.LCFI29:
	.cfi_restore 5
	.cfi_def_cfa 4, 4
.LVL47:
	ret
	.cfi_endproc
.LFE23:
	.size	setupkvm, .-setupkvm
	.globl	kvmalloc
	.type	kvmalloc, @function
kvmalloc:
.LFB24:
	.loc 3 150 0
	.cfi_startproc
	pushl	%ebp
.LCFI30:
	.cfi_def_cfa_offset 8
	.cfi_offset 5, -8
	movl	%esp, %ebp
.LCFI31:
	.cfi_def_cfa_register 5
	subl	$8, %esp
	.loc 3 151 0
	call	setupkvm
.LVL48:
	movl	%eax, kpgdir
	.loc 3 152 0
	call	switchkvm
.LVL49:
	.loc 3 153 0
	leave
.LCFI32:
	.cfi_restore 5
	.cfi_def_cfa 4, 4
	ret
	.cfi_endproc
.LFE24:
	.size	kvmalloc, .-kvmalloc
	.globl	switchkvm
	.type	switchkvm, @function
switchkvm:
.LFB25:
	.loc 3 159 0
	.cfi_startproc
	pushl	%ebp
.LCFI33:
	.cfi_def_cfa_offset 8
	.cfi_offset 5, -8
	movl	%esp, %ebp
.LCFI34:
	.cfi_def_cfa_register 5
	subl	$4, %esp
	.loc 3 160 0
	movl	kpgdir, %eax
	movl	%eax, (%esp)
	call	v2p
.LVL50:
	movl	%eax, (%esp)
	call	lcr3
.LVL51:
	.loc 3 161 0
	leave
.LCFI35:
	.cfi_restore 5
	.cfi_def_cfa 4, 4
	ret
	.cfi_endproc
.LFE25:
	.size	switchkvm, .-switchkvm
	.section	.rodata
.LC2:
	.string	"switchuvm: no pgdir"
	.text
	.globl	switchuvm
	.type	switchuvm, @function
switchuvm:
.LFB26:
	.loc 3 166 0
	.cfi_startproc
.LVL52:
	pushl	%ebp
.LCFI36:
	.cfi_def_cfa_offset 8
	.cfi_offset 5, -8
	movl	%esp, %ebp
.LCFI37:
	.cfi_def_cfa_register 5
	pushl	%ebx
	subl	$20, %esp
	.cfi_offset 3, -12
	.loc 3 167 0
	call	pushcli
.LVL53:
	.loc 3 168 0
	movl	%gs:0, %eax
	movl	%gs:0, %edx
	addl	$8, %edx
	movl	%edx, %ebx
	movl	%gs:0, %edx
	addl	$8, %edx
	shrl	$16, %edx
	movl	%edx, %ecx
	movl	%gs:0, %edx
	addl	$8, %edx
	shrl	$24, %edx
	movw	$103, 160(%eax)
	movw	%bx, 162(%eax)
	movb	%cl, 164(%eax)
	movzbl	165(%eax), %ecx
	andl	$-16, %ecx
	orl	$9, %ecx
	movb	%cl, 165(%eax)
	movzbl	165(%eax), %ecx
	orl	$16, %ecx
	movb	%cl, 165(%eax)
	movzbl	165(%eax), %ecx
	andl	$-97, %ecx
	movb	%cl, 165(%eax)
	movzbl	165(%eax), %ecx
	orl	$-128, %ecx
	movb	%cl, 165(%eax)
	movzbl	166(%eax), %ecx
	andl	$-16, %ecx
	movb	%cl, 166(%eax)
	movzbl	166(%eax), %ecx
	andl	$-17, %ecx
	movb	%cl, 166(%eax)
	movzbl	166(%eax), %ecx
	andl	$-33, %ecx
	movb	%cl, 166(%eax)
	movzbl	166(%eax), %ecx
	orl	$64, %ecx
	movb	%cl, 166(%eax)
	movzbl	166(%eax), %ecx
	andl	$127, %ecx
	movb	%cl, 166(%eax)
	movb	%dl, 167(%eax)
	.loc 3 169 0
	movl	%gs:0, %eax
	movzbl	165(%eax), %edx
	andl	$-17, %edx
	movb	%dl, 165(%eax)
	.loc 3 170 0
	movl	%gs:0, %eax
	movw	$16, 16(%eax)
	.loc 3 171 0
	movl	%gs:0, %eax
	movl	%gs:4, %edx
	movl	8(%edx), %edx
	addl	$4096, %edx
	movl	%edx, 12(%eax)
	.loc 3 172 0
	movl	$48, (%esp)
	call	ltr
.LVL54:
	.loc 3 173 0
	movl	8(%ebp), %eax
	movl	4(%eax), %eax
	testl	%eax, %eax
	jne	.L33
	.loc 3 174 0
	movl	$.LC2, (%esp)
	call	panic
.LVL55:
.L33:
	.loc 3 175 0
	movl	8(%ebp), %eax
	movl	4(%eax), %eax
	movl	%eax, (%esp)
	call	v2p
.LVL56:
	movl	%eax, (%esp)
	call	lcr3
.LVL57:
	.loc 3 176 0
	call	popcli
.LVL58:
	.loc 3 177 0
	addl	$20, %esp
	popl	%ebx
	.cfi_restore 3
	popl	%ebp
.LCFI38:
	.cfi_restore 5
	.cfi_def_cfa 4, 4
	ret
	.cfi_endproc
.LFE26:
	.size	switchuvm, .-switchuvm
	.section	.rodata
.LC3:
	.string	"inituvm: more than a page"
	.text
	.globl	inituvm
	.type	inituvm, @function
inituvm:
.LFB27:
	.loc 3 183 0
	.cfi_startproc
.LVL59:
	pushl	%ebp
.LCFI39:
	.cfi_def_cfa_offset 8
	.cfi_offset 5, -8
	movl	%esp, %ebp
.LCFI40:
	.cfi_def_cfa_register 5
	subl	$56, %esp
	.loc 3 186 0
	cmpl	$4095, 16(%ebp)
	jbe	.L35
	.loc 3 187 0
	movl	$.LC3, (%esp)
	call	panic
.LVL60:
.L35:
	.loc 3 188 0
	call	kalloc
.LVL61:
	movl	%eax, -12(%ebp)
.LVL62:
	.loc 3 189 0
	movl	$4096, 8(%esp)
	movl	$0, 4(%esp)
	movl	-12(%ebp), %eax
	movl	%eax, (%esp)
	call	memset
.LVL63:
	.loc 3 190 0
	movl	-12(%ebp), %eax
	movl	%eax, (%esp)
	call	v2p
.LVL64:
	movl	$6, 16(%esp)
	movl	%eax, 12(%esp)
	movl	$4096, 8(%esp)
	movl	$0, 4(%esp)
	movl	8(%ebp), %eax
	movl	%eax, (%esp)
	call	mappages
.LVL65:
	.loc 3 191 0
	movl	16(%ebp), %eax
	movl	%eax, 8(%esp)
	movl	12(%ebp), %eax
	movl	%eax, 4(%esp)
	movl	-12(%ebp), %eax
	movl	%eax, (%esp)
	call	memmove
.LVL66:
	.loc 3 192 0
	leave
.LCFI41:
	.cfi_restore 5
	.cfi_def_cfa 4, 4
	ret
	.cfi_endproc
.LFE27:
	.size	inituvm, .-inituvm
	.section	.rodata
	.align 4
.LC4:
	.string	"loaduvm: addr must be page aligned"
.LC5:
	.string	"loaduvm: address should exist"
	.text
	.globl	loaduvm
	.type	loaduvm, @function
loaduvm:
.LFB28:
	.loc 3 198 0
	.cfi_startproc
.LVL67:
	pushl	%ebp
.LCFI42:
	.cfi_def_cfa_offset 8
	.cfi_offset 5, -8
	movl	%esp, %ebp
.LCFI43:
	.cfi_def_cfa_register 5
	pushl	%ebx
	subl	$36, %esp
	.cfi_offset 3, -12
	.loc 3 202 0
	movl	12(%ebp), %eax
	andl	$4095, %eax
	testl	%eax, %eax
	je	.L37
	.loc 3 203 0
	movl	$.LC4, (%esp)
	call	panic
.LVL68:
.L37:
	.loc 3 204 0
	movl	$0, -12(%ebp)
.LVL69:
	jmp	.L38
.LVL70:
.L44:
	.loc 3 205 0
	movl	-12(%ebp), %eax
.LVL71:
	movl	12(%ebp), %edx
	addl	%edx, %eax
	movl	$0, 8(%esp)
	movl	%eax, 4(%esp)
	movl	8(%ebp), %eax
	movl	%eax, (%esp)
	call	walkpgdir
.LVL72:
	movl	%eax, -20(%ebp)
.LVL73:
	cmpl	$0, -20(%ebp)
	jne	.L39
	.loc 3 206 0
	movl	$.LC5, (%esp)
	call	panic
.LVL74:
.L39:
	.loc 3 207 0
	movl	-20(%ebp), %eax
.LVL75:
	movl	(%eax), %eax
	andl	$-4096, %eax
	movl	%eax, -24(%ebp)
.LVL76:
	.loc 3 208 0
	movl	-12(%ebp), %eax
.LVL77:
	movl	24(%ebp), %edx
	subl	%eax, %edx
	movl	%edx, %eax
	cmpl	$4095, %eax
	ja	.L40
	.loc 3 209 0
	movl	-12(%ebp), %eax
	movl	24(%ebp), %edx
	subl	%eax, %edx
	movl	%edx, %eax
	movl	%eax, -16(%ebp)
.LVL78:
	jmp	.L41
.LVL79:
.L40:
	.loc 3 211 0
	movl	$4096, -16(%ebp)
.LVL80:
.L41:
	.loc 3 212 0
	movl	-12(%ebp), %eax
	movl	20(%ebp), %edx
	leal	(%edx,%eax), %ebx
	movl	-24(%ebp), %eax
	movl	%eax, (%esp)
	call	p2v
.LVL81:
	movl	-16(%ebp), %edx
	movl	%edx, 12(%esp)
	movl	%ebx, 8(%esp)
	movl	%eax, 4(%esp)
	movl	16(%ebp), %eax
	movl	%eax, (%esp)
	call	readi
.LVL82:
	cmpl	-16(%ebp), %eax
	je	.L42
	.loc 3 213 0
	movl	$-1, %eax
	jmp	.L43
.L42:
	.loc 3 204 0
	addl	$4096, -12(%ebp)
.LVL83:
.L38:
	.loc 3 204 0 is_stmt 0 discriminator 1
	movl	-12(%ebp), %eax
	cmpl	24(%ebp), %eax
	jb	.L44
	.loc 3 215 0 is_stmt 1
	movl	$0, %eax
.L43:
	.loc 3 216 0
	addl	$36, %esp
	popl	%ebx
	.cfi_restore 3
	popl	%ebp
.LCFI44:
	.cfi_restore 5
	.cfi_def_cfa 4, 4
	ret
	.cfi_endproc
.LFE28:
	.size	loaduvm, .-loaduvm
	.section	.rodata
.LC6:
	.string	"allocuvm out of memory\n"
	.text
	.globl	allocuvm
	.type	allocuvm, @function
allocuvm:
.LFB29:
	.loc 3 222 0
	.cfi_startproc
.LVL84:
	pushl	%ebp
.LCFI45:
	.cfi_def_cfa_offset 8
	.cfi_offset 5, -8
	movl	%esp, %ebp
.LCFI46:
	.cfi_def_cfa_register 5
	subl	$56, %esp
	.loc 3 226 0
	movl	16(%ebp), %eax
	testl	%eax, %eax
	jns	.L46
	.loc 3 227 0
	movl	$0, %eax
	jmp	.L47
.L46:
	.loc 3 228 0
	movl	16(%ebp), %eax
	cmpl	12(%ebp), %eax
	jnb	.L48
	.loc 3 229 0
	movl	12(%ebp), %eax
	jmp	.L47
.L48:
	.loc 3 231 0
	movl	12(%ebp), %eax
	addl	$4095, %eax
	andl	$-4096, %eax
	movl	%eax, -12(%ebp)
.LVL85:
	.loc 3 232 0
	jmp	.L49
.L51:
	.loc 3 233 0
	call	kalloc
.LVL86:
	movl	%eax, -16(%ebp)
.LVL87:
	.loc 3 234 0
	cmpl	$0, -16(%ebp)
	jne	.L50
	.loc 3 235 0
	movl	$.LC6, (%esp)
	call	cprintf
.LVL88:
	.loc 3 236 0
	movl	12(%ebp), %eax
	movl	%eax, 8(%esp)
	movl	16(%ebp), %eax
	movl	%eax, 4(%esp)
	movl	8(%ebp), %eax
	movl	%eax, (%esp)
	call	deallocuvm
.LVL89:
	.loc 3 237 0
	movl	$0, %eax
	jmp	.L47
.LVL90:
.L50:
	.loc 3 239 0
	movl	$4096, 8(%esp)
	movl	$0, 4(%esp)
	movl	-16(%ebp), %eax
.LVL91:
	movl	%eax, (%esp)
	call	memset
.LVL92:
	.loc 3 240 0
	movl	-16(%ebp), %eax
	movl	%eax, (%esp)
	call	v2p
.LVL93:
	movl	-12(%ebp), %edx
	movl	$6, 16(%esp)
	movl	%eax, 12(%esp)
	movl	$4096, 8(%esp)
	movl	%edx, 4(%esp)
	movl	8(%ebp), %eax
	movl	%eax, (%esp)
	call	mappages
.LVL94:
	.loc 3 232 0
	addl	$4096, -12(%ebp)
.LVL95:
.L49:
	.loc 3 232 0 is_stmt 0 discriminator 1
	movl	-12(%ebp), %eax
	cmpl	16(%ebp), %eax
	jb	.L51
	.loc 3 242 0 is_stmt 1
	movl	16(%ebp), %eax
.LVL96:
.L47:
	.loc 3 243 0
	leave
.LCFI47:
	.cfi_restore 5
	.cfi_def_cfa 4, 4
	ret
	.cfi_endproc
.LFE29:
	.size	allocuvm, .-allocuvm
	.section	.rodata
.LC7:
	.string	"kfree"
	.text
	.globl	deallocuvm
	.type	deallocuvm, @function
deallocuvm:
.LFB30:
	.loc 3 251 0
	.cfi_startproc
.LVL97:
	pushl	%ebp
.LCFI48:
	.cfi_def_cfa_offset 8
	.cfi_offset 5, -8
	movl	%esp, %ebp
.LCFI49:
	.cfi_def_cfa_register 5
	subl	$40, %esp
	.loc 3 255 0
	movl	16(%ebp), %eax
	cmpl	12(%ebp), %eax
	jb	.L53
	.loc 3 256 0
	movl	12(%ebp), %eax
	jmp	.L54
.L53:
	.loc 3 258 0
	movl	16(%ebp), %eax
	addl	$4095, %eax
	andl	$-4096, %eax
	movl	%eax, -12(%ebp)
.LVL98:
	.loc 3 259 0
	jmp	.L55
.L59:
	.loc 3 260 0
	movl	-12(%ebp), %eax
.LVL99:
	movl	$0, 8(%esp)
	movl	%eax, 4(%esp)
	movl	8(%ebp), %eax
	movl	%eax, (%esp)
	call	walkpgdir
.LVL100:
	movl	%eax, -16(%ebp)
.LVL101:
	.loc 3 261 0
	cmpl	$0, -16(%ebp)
	jne	.L56
	.loc 3 262 0
	addl	$4190208, -12(%ebp)
	jmp	.L57
.L56:
	.loc 3 263 0
	movl	-16(%ebp), %eax
.LVL102:
	movl	(%eax), %eax
	andl	$1, %eax
	testl	%eax, %eax
	je	.L57
.LBB2:
	.loc 3 264 0
	movl	-16(%ebp), %eax
	movl	(%eax), %eax
	andl	$-4096, %eax
	movl	%eax, -20(%ebp)
.LVL103:
	.loc 3 265 0
	cmpl	$0, -20(%ebp)
	jne	.L58
	.loc 3 266 0
	movl	$.LC7, (%esp)
	call	panic
.LVL104:
.L58:
	.loc 3 267 0
	movl	-20(%ebp), %eax
.LVL105:
	movl	%eax, (%esp)
	call	p2v
.LVL106:
	movl	%eax, -24(%ebp)
.LVL107:
	.loc 3 268 0
	movl	-24(%ebp), %eax
	movl	%eax, (%esp)
	call	kfree
.LVL108:
	.loc 3 269 0
	movl	-16(%ebp), %eax
	movl	$0, (%eax)
.LVL109:
.L57:
.LBE2:
	.loc 3 259 0
	addl	$4096, -12(%ebp)
.LVL110:
.L55:
	.loc 3 259 0 is_stmt 0 discriminator 1
	movl	-12(%ebp), %eax
	cmpl	12(%ebp), %eax
	jb	.L59
	.loc 3 272 0 is_stmt 1
	movl	16(%ebp), %eax
.LVL111:
.L54:
	.loc 3 273 0
	leave
.LCFI50:
	.cfi_restore 5
	.cfi_def_cfa 4, 4
	ret
	.cfi_endproc
.LFE30:
	.size	deallocuvm, .-deallocuvm
	.section	.rodata
.LC8:
	.string	"freevm: no pgdir"
	.text
	.globl	freevm
	.type	freevm, @function
freevm:
.LFB31:
	.loc 3 279 0
	.cfi_startproc
.LVL112:
	pushl	%ebp
.LCFI51:
	.cfi_def_cfa_offset 8
	.cfi_offset 5, -8
	movl	%esp, %ebp
.LCFI52:
	.cfi_def_cfa_register 5
	subl	$40, %esp
	.loc 3 282 0
	cmpl	$0, 8(%ebp)
	jne	.L61
	.loc 3 283 0
	movl	$.LC8, (%esp)
	call	panic
.LVL113:
.L61:
	.loc 3 284 0
	movl	$0, 8(%esp)
	movl	$-2147483648, 4(%esp)
	movl	8(%ebp), %eax
	movl	%eax, (%esp)
	call	deallocuvm
.LVL114:
	.loc 3 285 0
	movl	$0, -12(%ebp)
.LVL115:
	jmp	.L62
.L64:
	.loc 3 286 0
	movl	-12(%ebp), %eax
	leal	0(,%eax,4), %edx
	movl	8(%ebp), %eax
	addl	%edx, %eax
	movl	(%eax), %eax
	andl	$1, %eax
	testl	%eax, %eax
	je	.L63
.LBB3:
	.loc 3 287 0
	movl	-12(%ebp), %eax
	leal	0(,%eax,4), %edx
	movl	8(%ebp), %eax
	addl	%edx, %eax
	movl	(%eax), %eax
	andl	$-4096, %eax
	movl	%eax, (%esp)
	call	p2v
.LVL116:
	movl	%eax, -16(%ebp)
.LVL117:
	.loc 3 288 0
	movl	-16(%ebp), %eax
	movl	%eax, (%esp)
	call	kfree
.LVL118:
.L63:
.LBE3:
	.loc 3 285 0
	addl	$1, -12(%ebp)
.L62:
	.loc 3 285 0 is_stmt 0 discriminator 1
	cmpl	$1023, -12(%ebp)
	jbe	.L64
	.loc 3 291 0 is_stmt 1
	movl	8(%ebp), %eax
	movl	%eax, (%esp)
	call	kfree
.LVL119:
	.loc 3 292 0
	leave
.LCFI53:
	.cfi_restore 5
	.cfi_def_cfa 4, 4
	ret
	.cfi_endproc
.LFE31:
	.size	freevm, .-freevm
	.section	.rodata
.LC9:
	.string	"clearpteu"
	.text
	.globl	clearpteu
	.type	clearpteu, @function
clearpteu:
.LFB32:
	.loc 3 298 0
	.cfi_startproc
.LVL120:
	pushl	%ebp
.LCFI54:
	.cfi_def_cfa_offset 8
	.cfi_offset 5, -8
	movl	%esp, %ebp
.LCFI55:
	.cfi_def_cfa_register 5
	subl	$40, %esp
	.loc 3 301 0
	movl	$0, 8(%esp)
	movl	12(%ebp), %eax
	movl	%eax, 4(%esp)
	movl	8(%ebp), %eax
	movl	%eax, (%esp)
	call	walkpgdir
.LVL121:
	movl	%eax, -12(%ebp)
.LVL122:
	.loc 3 302 0
	cmpl	$0, -12(%ebp)
	jne	.L66
	.loc 3 303 0
	movl	$.LC9, (%esp)
	call	panic
.LVL123:
.L66:
	.loc 3 304 0
	movl	-12(%ebp), %eax
.LVL124:
	movl	(%eax), %eax
	andl	$-5, %eax
	movl	%eax, %edx
	movl	-12(%ebp), %eax
	movl	%edx, (%eax)
	.loc 3 305 0
	leave
.LCFI56:
	.cfi_restore 5
	.cfi_def_cfa 4, 4
	ret
	.cfi_endproc
.LFE32:
	.size	clearpteu, .-clearpteu
	.section	.rodata
.LC10:
	.string	"copyuvm: pte should exist"
.LC11:
	.string	"copyuvm: page not present"
	.text
	.globl	copyuvm
	.type	copyuvm, @function
copyuvm:
.LFB33:
	.loc 3 311 0
	.cfi_startproc
.LVL125:
	pushl	%ebp
.LCFI57:
	.cfi_def_cfa_offset 8
	.cfi_offset 5, -8
	movl	%esp, %ebp
.LCFI58:
	.cfi_def_cfa_register 5
	pushl	%ebx
	subl	$68, %esp
	.cfi_offset 3, -12
	.loc 3 317 0
	call	setupkvm
.LVL126:
	movl	%eax, -16(%ebp)
.LVL127:
	cmpl	$0, -16(%ebp)
	jne	.L68
	.loc 3 318 0
	movl	$0, %eax
.LVL128:
	jmp	.L69
.LVL129:
.L68:
	.loc 3 319 0
	movl	$0, -12(%ebp)
.LVL130:
	jmp	.L70
.LVL131:
.L76:
	.loc 3 320 0
	movl	-12(%ebp), %eax
.LVL132:
	movl	$0, 8(%esp)
	movl	%eax, 4(%esp)
	movl	8(%ebp), %eax
	movl	%eax, (%esp)
	call	walkpgdir
.LVL133:
	movl	%eax, -20(%ebp)
.LVL134:
	cmpl	$0, -20(%ebp)
	jne	.L71
	.loc 3 321 0
	movl	$.LC10, (%esp)
	call	panic
.LVL135:
.L71:
	.loc 3 322 0
	movl	-20(%ebp), %eax
.LVL136:
	movl	(%eax), %eax
	andl	$1, %eax
	testl	%eax, %eax
	jne	.L72
	.loc 3 323 0
	movl	$.LC11, (%esp)
	call	panic
.LVL137:
.L72:
	.loc 3 324 0
	movl	-20(%ebp), %eax
	movl	(%eax), %eax
	andl	$-4096, %eax
	movl	%eax, -24(%ebp)
.LVL138:
	.loc 3 325 0
	movl	-20(%ebp), %eax
.LVL139:
	movl	(%eax), %eax
	andl	$4095, %eax
	movl	%eax, -28(%ebp)
.LVL140:
	.loc 3 326 0
	call	kalloc
.LVL141:
	movl	%eax, -32(%ebp)
.LVL142:
	cmpl	$0, -32(%ebp)
	jne	.L73
	.loc 3 327 0
	jmp	.L74
.L73:
	.loc 3 328 0
	movl	-24(%ebp), %eax
.LVL143:
	movl	%eax, (%esp)
	call	p2v
.LVL144:
	movl	$4096, 8(%esp)
	movl	%eax, 4(%esp)
	movl	-32(%ebp), %eax
	movl	%eax, (%esp)
	call	memmove
.LVL145:
	.loc 3 329 0
	movl	-28(%ebp), %ebx
	movl	-32(%ebp), %eax
	movl	%eax, (%esp)
	call	v2p
.LVL146:
	movl	-12(%ebp), %edx
	movl	%ebx, 16(%esp)
	movl	%eax, 12(%esp)
	movl	$4096, 8(%esp)
	movl	%edx, 4(%esp)
	movl	-16(%ebp), %eax
	movl	%eax, (%esp)
	call	mappages
.LVL147:
	testl	%eax, %eax
	jns	.L75
	.loc 3 330 0
	jmp	.L74
.L75:
	.loc 3 319 0
	addl	$4096, -12(%ebp)
.LVL148:
.L70:
	.loc 3 319 0 is_stmt 0 discriminator 1
	movl	-12(%ebp), %eax
	cmpl	12(%ebp), %eax
	jb	.L76
	.loc 3 332 0 is_stmt 1
	movl	-16(%ebp), %eax
	jmp	.L69
.LVL149:
.L74:
	.loc 3 335 0
	movl	-16(%ebp), %eax
	movl	%eax, (%esp)
	call	freevm
.LVL150:
	.loc 3 336 0
	movl	$0, %eax
.LVL151:
.L69:
	.loc 3 337 0
	addl	$68, %esp
	popl	%ebx
	.cfi_restore 3
	popl	%ebp
.LCFI59:
	.cfi_restore 5
	.cfi_def_cfa 4, 4
	ret
	.cfi_endproc
.LFE33:
	.size	copyuvm, .-copyuvm
	.globl	uva2ka
	.type	uva2ka, @function
uva2ka:
.LFB34:
	.loc 3 343 0
	.cfi_startproc
.LVL152:
	pushl	%ebp
.LCFI60:
	.cfi_def_cfa_offset 8
	.cfi_offset 5, -8
	movl	%esp, %ebp
.LCFI61:
	.cfi_def_cfa_register 5
	subl	$40, %esp
	.loc 3 346 0
	movl	$0, 8(%esp)
	movl	12(%ebp), %eax
	movl	%eax, 4(%esp)
	movl	8(%ebp), %eax
	movl	%eax, (%esp)
	call	walkpgdir
.LVL153:
	movl	%eax, -12(%ebp)
.LVL154:
	.loc 3 347 0
	movl	-12(%ebp), %eax
	movl	(%eax), %eax
.LVL155:
	andl	$1, %eax
	testl	%eax, %eax
	jne	.L78
	.loc 3 348 0
	movl	$0, %eax
	jmp	.L79
.L78:
	.loc 3 349 0
	movl	-12(%ebp), %eax
	movl	(%eax), %eax
	andl	$4, %eax
	testl	%eax, %eax
	jne	.L80
	.loc 3 350 0
	movl	$0, %eax
	jmp	.L79
.L80:
	.loc 3 351 0
	movl	-12(%ebp), %eax
	movl	(%eax), %eax
	andl	$-4096, %eax
	movl	%eax, (%esp)
	call	p2v
.LVL156:
.L79:
	.loc 3 352 0
	leave
.LCFI62:
	.cfi_restore 5
	.cfi_def_cfa 4, 4
	ret
	.cfi_endproc
.LFE34:
	.size	uva2ka, .-uva2ka
	.globl	copyout
	.type	copyout, @function
copyout:
.LFB35:
	.loc 3 359 0
	.cfi_startproc
.LVL157:
	pushl	%ebp
.LCFI63:
	.cfi_def_cfa_offset 8
	.cfi_offset 5, -8
	movl	%esp, %ebp
.LCFI64:
	.cfi_def_cfa_register 5
	subl	$40, %esp
	.loc 3 363 0
	movl	16(%ebp), %eax
	movl	%eax, -12(%ebp)
.LVL158:
	.loc 3 364 0
	jmp	.L82
.LVL159:
.L86:
	.loc 3 365 0
	movl	12(%ebp), %eax
	andl	$-4096, %eax
	movl	%eax, -20(%ebp)
.LVL160:
	.loc 3 366 0
	movl	-20(%ebp), %eax
	movl	%eax, 4(%esp)
	movl	8(%ebp), %eax
.LVL161:
	movl	%eax, (%esp)
	call	uva2ka
.LVL162:
	movl	%eax, -24(%ebp)
.LVL163:
	.loc 3 367 0
	cmpl	$0, -24(%ebp)
	jne	.L83
	.loc 3 368 0
	movl	$-1, %eax
.LVL164:
	jmp	.L84
.LVL165:
.L83:
	.loc 3 369 0
	movl	12(%ebp), %eax
.LVL166:
	movl	-20(%ebp), %edx
	subl	%eax, %edx
	movl	%edx, %eax
	addl	$4096, %eax
	movl	%eax, -16(%ebp)
.LVL167:
	.loc 3 370 0
	movl	-16(%ebp), %eax
	cmpl	20(%ebp), %eax
	jbe	.L85
	.loc 3 371 0
	movl	20(%ebp), %eax
.LVL168:
	movl	%eax, -16(%ebp)
.LVL169:
.L85:
	.loc 3 372 0
	movl	-20(%ebp), %eax
	movl	12(%ebp), %edx
	subl	%eax, %edx
	movl	-24(%ebp), %eax
	addl	%eax, %edx
	movl	-16(%ebp), %eax
	movl	%eax, 8(%esp)
	movl	-12(%ebp), %eax
	movl	%eax, 4(%esp)
	movl	%edx, (%esp)
	call	memmove
.LVL170:
	.loc 3 373 0
	movl	-16(%ebp), %eax
	subl	%eax, 20(%ebp)
	.loc 3 374 0
	movl	-16(%ebp), %eax
	addl	%eax, -12(%ebp)
	.loc 3 375 0
	movl	-20(%ebp), %eax
	addl	$4096, %eax
	movl	%eax, 12(%ebp)
.LVL171:
.L82:
	.loc 3 364 0 discriminator 1
	cmpl	$0, 20(%ebp)
	jne	.L86
	.loc 3 377 0
	movl	$0, %eax
.L84:
	.loc 3 378 0
	leave
.LCFI65:
	.cfi_restore 5
	.cfi_def_cfa 4, 4
	ret
	.cfi_endproc
.LFE35:
	.size	copyout, .-copyout
.Letext0:
	.file 4 "types.h"
	.file 5 "mmu.h"
	.file 6 "proc.h"
	.file 7 "defs.h"
	.section	.note.GNU-stack,"",@progbits
